
/root/workspace/nncase/build/Release/bin/test_ntt_unary_abs_fp16:     file format elf64-littleriscv


Disassembly of section .plt:

00000000000151c0 <_PROCEDURE_LINKAGE_TABLE_>:
   151c0:	97 53 03 00 33 03 c3 41 03 be 03 e3 13 03 43 fd     .S..3..A......C.
   151d0:	93 82 03 e3 13 53 13 00 83 b2 82 00 67 00 0e 00     .....S......g...

00000000000151e0 <fcntl@plt>:
   151e0:	00035e17          	auipc	t3,0x35
   151e4:	e20e3e03          	ld	t3,-480(t3) # 4a000 <fcntl@GLIBC_2.27>
   151e8:	000e0367          	jalr	t1,t3
   151ec:	00000013          	nop

00000000000151f0 <__errno_location@plt>:
   151f0:	00035e17          	auipc	t3,0x35
   151f4:	e18e3e03          	ld	t3,-488(t3) # 4a008 <__errno_location@GLIBC_2.27>
   151f8:	000e0367          	jalr	t1,t3
   151fc:	00000013          	nop

0000000000015200 <_ZStrsIcSt11char_traitsIcESaIcEERSt13basic_istreamIT_T0_ES7_RNSt7__cxx1112basic_stringIS4_S5_T1_EE@plt>:
   15200:	00035e17          	auipc	t3,0x35
   15204:	e10e3e03          	ld	t3,-496(t3) # 4a010 <_ZStrsIcSt11char_traitsIcESaIcEERSt13basic_istreamIT_T0_ES7_RNSt7__cxx1112basic_stringIS4_S5_T1_EE@Base>
   15208:	000e0367          	jalr	t1,t3
   1520c:	00000013          	nop

0000000000015210 <execve@plt>:
   15210:	00035e17          	auipc	t3,0x35
   15214:	e08e3e03          	ld	t3,-504(t3) # 4a018 <execve@GLIBC_2.27>
   15218:	000e0367          	jalr	t1,t3
   1521c:	00000013          	nop

0000000000015220 <fseek@plt>:
   15220:	00035e17          	auipc	t3,0x35
   15224:	e00e3e03          	ld	t3,-512(t3) # 4a020 <fseek@GLIBC_2.27>
   15228:	000e0367          	jalr	t1,t3
   1522c:	00000013          	nop

0000000000015230 <_ZSt18_Rb_tree_incrementPKSt18_Rb_tree_node_base@plt>:
   15230:	00035e17          	auipc	t3,0x35
   15234:	df8e3e03          	ld	t3,-520(t3) # 4a028 <_ZSt18_Rb_tree_incrementPKSt18_Rb_tree_node_base@Base>
   15238:	000e0367          	jalr	t1,t3
   1523c:	00000013          	nop

0000000000015240 <strcasecmp@plt>:
   15240:	00035e17          	auipc	t3,0x35
   15244:	df0e3e03          	ld	t3,-528(t3) # 4a030 <strcasecmp@GLIBC_2.27>
   15248:	000e0367          	jalr	t1,t3
   1524c:	00000013          	nop

0000000000015250 <strncmp@plt>:
   15250:	00035e17          	auipc	t3,0x35
   15254:	de8e3e03          	ld	t3,-536(t3) # 4a038 <strncmp@GLIBC_2.27>
   15258:	000e0367          	jalr	t1,t3
   1525c:	00000013          	nop

0000000000015260 <_ZNSt13random_device7_M_initERKNSt7__cxx1112basic_stringIcSt11char_traitsIcESaIcEEE@plt>:
   15260:	00035e17          	auipc	t3,0x35
   15264:	de0e3e03          	ld	t3,-544(t3) # 4a040 <_ZNSt13random_device7_M_initERKNSt7__cxx1112basic_stringIcSt11char_traitsIcESaIcEEE@Base>
   15268:	000e0367          	jalr	t1,t3
   1526c:	00000013          	nop

0000000000015270 <fork@plt>:
   15270:	00035e17          	auipc	t3,0x35
   15274:	dd8e3e03          	ld	t3,-552(t3) # 4a048 <fork@GLIBC_2.27>
   15278:	000e0367          	jalr	t1,t3
   1527c:	00000013          	nop

0000000000015280 <_ZNSt7__cxx1112basic_stringIcSt11char_traitsIcESaIcEE8_M_eraseEmm@plt>:
   15280:	00035e17          	auipc	t3,0x35
   15284:	dd0e3e03          	ld	t3,-560(t3) # 4a050 <_ZNSt7__cxx1112basic_stringIcSt11char_traitsIcESaIcEE8_M_eraseEmm@Base>
   15288:	000e0367          	jalr	t1,t3
   1528c:	00000013          	nop

0000000000015290 <stat@plt>:
   15290:	00035e17          	auipc	t3,0x35
   15294:	dc8e3e03          	ld	t3,-568(t3) # 4a058 <stat@GLIBC_2.33>
   15298:	000e0367          	jalr	t1,t3
   1529c:	00000013          	nop

00000000000152a0 <__cxa_guard_abort@plt>:
   152a0:	00035e17          	auipc	t3,0x35
   152a4:	dc0e3e03          	ld	t3,-576(t3) # 4a060 <__cxa_guard_abort@Base>
   152a8:	000e0367          	jalr	t1,t3
   152ac:	00000013          	nop

00000000000152b0 <regfree@plt>:
   152b0:	00035e17          	auipc	t3,0x35
   152b4:	db8e3e03          	ld	t3,-584(t3) # 4a068 <regfree@GLIBC_2.27>
   152b8:	000e0367          	jalr	t1,t3
   152bc:	00000013          	nop

00000000000152c0 <_ZNSt7__cxx1118basic_stringstreamIcSt11char_traitsIcESaIcEED1Ev@plt>:
   152c0:	00035e17          	auipc	t3,0x35
   152c4:	db0e3e03          	ld	t3,-592(t3) # 4a070 <_ZNSt7__cxx1118basic_stringstreamIcSt11char_traitsIcESaIcEED1Ev@Base>
   152c8:	000e0367          	jalr	t1,t3
   152cc:	00000013          	nop

00000000000152d0 <_ZNSt6localeC1Ev@plt>:
   152d0:	00035e17          	auipc	t3,0x35
   152d4:	da8e3e03          	ld	t3,-600(t3) # 4a078 <_ZNSt6localeC1Ev@Base>
   152d8:	000e0367          	jalr	t1,t3
   152dc:	00000013          	nop

00000000000152e0 <_ZNSt9basic_iosIcSt11char_traitsIcEE4initEPSt15basic_streambufIcS1_E@plt>:
   152e0:	00035e17          	auipc	t3,0x35
   152e4:	da0e3e03          	ld	t3,-608(t3) # 4a080 <_ZNSt9basic_iosIcSt11char_traitsIcEE4initEPSt15basic_streambufIcS1_E@Base>
   152e8:	000e0367          	jalr	t1,t3
   152ec:	00000013          	nop

00000000000152f0 <fputc@plt>:
   152f0:	00035e17          	auipc	t3,0x35
   152f4:	d98e3e03          	ld	t3,-616(t3) # 4a088 <fputc@GLIBC_2.27>
   152f8:	000e0367          	jalr	t1,t3
   152fc:	00000013          	nop

0000000000015300 <fwrite@plt>:
   15300:	00035e17          	auipc	t3,0x35
   15304:	d90e3e03          	ld	t3,-624(t3) # 4a090 <fwrite@GLIBC_2.27>
   15308:	000e0367          	jalr	t1,t3
   1530c:	00000013          	nop

0000000000015310 <strchr@plt>:
   15310:	00035e17          	auipc	t3,0x35
   15314:	d88e3e03          	ld	t3,-632(t3) # 4a098 <strchr@GLIBC_2.27>
   15318:	000e0367          	jalr	t1,t3
   1531c:	00000013          	nop

0000000000015320 <wcsstr@plt>:
   15320:	00035e17          	auipc	t3,0x35
   15324:	d80e3e03          	ld	t3,-640(t3) # 4a0a0 <wcsstr@GLIBC_2.27>
   15328:	000e0367          	jalr	t1,t3
   1532c:	00000013          	nop

0000000000015330 <_ZNSt8ios_baseC2Ev@plt>:
   15330:	00035e17          	auipc	t3,0x35
   15334:	d78e3e03          	ld	t3,-648(t3) # 4a0a8 <_ZNSt8ios_baseC2Ev@Base>
   15338:	000e0367          	jalr	t1,t3
   1533c:	00000013          	nop

0000000000015340 <fprintf@plt>:
   15340:	00035e17          	auipc	t3,0x35
   15344:	d70e3e03          	ld	t3,-656(t3) # 4a0b0 <fprintf@GLIBC_2.27>
   15348:	000e0367          	jalr	t1,t3
   1534c:	00000013          	nop

0000000000015350 <_ZNSt6localeD1Ev@plt>:
   15350:	00035e17          	auipc	t3,0x35
   15354:	d68e3e03          	ld	t3,-664(t3) # 4a0b8 <_ZNSt6localeD1Ev@Base>
   15358:	000e0367          	jalr	t1,t3
   1535c:	00000013          	nop

0000000000015360 <connect@plt>:
   15360:	00035e17          	auipc	t3,0x35
   15364:	d60e3e03          	ld	t3,-672(t3) # 4a0c0 <connect@GLIBC_2.27>
   15368:	000e0367          	jalr	t1,t3
   1536c:	00000013          	nop

0000000000015370 <_ZNKSt7__cxx1115basic_stringbufIcSt11char_traitsIcESaIcEE3strEv@plt>:
   15370:	00035e17          	auipc	t3,0x35
   15374:	d58e3e03          	ld	t3,-680(t3) # 4a0c8 <_ZNKSt7__cxx1115basic_stringbufIcSt11char_traitsIcESaIcEE3strEv@Base>
   15378:	000e0367          	jalr	t1,t3
   1537c:	00000013          	nop

0000000000015380 <_ZNKSt7__cxx1112basic_stringIcSt11char_traitsIcESaIcEE4findEPKcmm@plt>:
   15380:	00035e17          	auipc	t3,0x35
   15384:	d50e3e03          	ld	t3,-688(t3) # 4a0d0 <_ZNKSt7__cxx1112basic_stringIcSt11char_traitsIcESaIcEE4findEPKcmm@Base>
   15388:	000e0367          	jalr	t1,t3
   1538c:	00000013          	nop

0000000000015390 <strerror@plt>:
   15390:	00035e17          	auipc	t3,0x35
   15394:	d48e3e03          	ld	t3,-696(t3) # 4a0d8 <strerror@GLIBC_2.27>
   15398:	000e0367          	jalr	t1,t3
   1539c:	00000013          	nop

00000000000153a0 <getpid@plt>:
   153a0:	00035e17          	auipc	t3,0x35
   153a4:	d40e3e03          	ld	t3,-704(t3) # 4a0e0 <getpid@GLIBC_2.27>
   153a8:	000e0367          	jalr	t1,t3
   153ac:	00000013          	nop

00000000000153b0 <getpagesize@plt>:
   153b0:	00035e17          	auipc	t3,0x35
   153b4:	d38e3e03          	ld	t3,-712(t3) # 4a0e8 <getpagesize@GLIBC_2.27>
   153b8:	000e0367          	jalr	t1,t3
   153bc:	00000013          	nop

00000000000153c0 <_ZNSt13basic_filebufIcSt11char_traitsIcEE5closeEv@plt>:
   153c0:	00035e17          	auipc	t3,0x35
   153c4:	d30e3e03          	ld	t3,-720(t3) # 4a0f0 <_ZNSt13basic_filebufIcSt11char_traitsIcEE5closeEv@Base>
   153c8:	000e0367          	jalr	t1,t3
   153cc:	00000013          	nop

00000000000153d0 <_ZNSo9_M_insertIdEERSoT_@plt>:
   153d0:	00035e17          	auipc	t3,0x35
   153d4:	d28e3e03          	ld	t3,-728(t3) # 4a0f8 <_ZNSo9_M_insertIdEERSoT_@Base>
   153d8:	000e0367          	jalr	t1,t3
   153dc:	00000013          	nop

00000000000153e0 <wmemcpy@plt>:
   153e0:	00035e17          	auipc	t3,0x35
   153e4:	d20e3e03          	ld	t3,-736(t3) # 4a100 <wmemcpy@GLIBC_2.27>
   153e8:	000e0367          	jalr	t1,t3
   153ec:	00000013          	nop

00000000000153f0 <chdir@plt>:
   153f0:	00035e17          	auipc	t3,0x35
   153f4:	d18e3e03          	ld	t3,-744(t3) # 4a108 <chdir@GLIBC_2.27>
   153f8:	000e0367          	jalr	t1,t3
   153fc:	00000013          	nop

0000000000015400 <localtime_r@plt>:
   15400:	00035e17          	auipc	t3,0x35
   15404:	d10e3e03          	ld	t3,-752(t3) # 4a110 <localtime_r@GLIBC_2.27>
   15408:	000e0367          	jalr	t1,t3
   1540c:	00000013          	nop

0000000000015410 <abort@plt>:
   15410:	00035e17          	auipc	t3,0x35
   15414:	d08e3e03          	ld	t3,-760(t3) # 4a118 <abort@GLIBC_2.27>
   15418:	000e0367          	jalr	t1,t3
   1541c:	00000013          	nop

0000000000015420 <getcwd@plt>:
   15420:	00035e17          	auipc	t3,0x35
   15424:	d00e3e03          	ld	t3,-768(t3) # 4a120 <getcwd@GLIBC_2.27>
   15428:	000e0367          	jalr	t1,t3
   1542c:	00000013          	nop

0000000000015430 <exit@plt>:
   15430:	00035e17          	auipc	t3,0x35
   15434:	cf8e3e03          	ld	t3,-776(t3) # 4a128 <exit@GLIBC_2.27>
   15438:	000e0367          	jalr	t1,t3
   1543c:	00000013          	nop

0000000000015440 <_ZNSolsEi@plt>:
   15440:	00035e17          	auipc	t3,0x35
   15444:	cf0e3e03          	ld	t3,-784(t3) # 4a130 <_ZNSolsEi@Base>
   15448:	000e0367          	jalr	t1,t3
   1544c:	00000013          	nop

0000000000015450 <_ZNSt13basic_filebufIcSt11char_traitsIcEEC1Ev@plt>:
   15450:	00035e17          	auipc	t3,0x35
   15454:	ce8e3e03          	ld	t3,-792(t3) # 4a138 <_ZNSt13basic_filebufIcSt11char_traitsIcEEC1Ev@Base>
   15458:	000e0367          	jalr	t1,t3
   1545c:	00000013          	nop

0000000000015460 <fopen@plt>:
   15460:	00035e17          	auipc	t3,0x35
   15464:	ce0e3e03          	ld	t3,-800(t3) # 4a140 <fopen@GLIBC_2.27>
   15468:	000e0367          	jalr	t1,t3
   1546c:	00000013          	nop

0000000000015470 <sigemptyset@plt>:
   15470:	00035e17          	auipc	t3,0x35
   15474:	cd8e3e03          	ld	t3,-808(t3) # 4a148 <sigemptyset@GLIBC_2.27>
   15478:	000e0367          	jalr	t1,t3
   1547c:	00000013          	nop

0000000000015480 <remove@plt>:
   15480:	00035e17          	auipc	t3,0x35
   15484:	cd0e3e03          	ld	t3,-816(t3) # 4a150 <remove@GLIBC_2.27>
   15488:	000e0367          	jalr	t1,t3
   1548c:	00000013          	nop

0000000000015490 <strdup@plt>:
   15490:	00035e17          	auipc	t3,0x35
   15494:	cc8e3e03          	ld	t3,-824(t3) # 4a158 <strdup@GLIBC_2.27>
   15498:	000e0367          	jalr	t1,t3
   1549c:	00000013          	nop

00000000000154a0 <pthread_self@plt>:
   154a0:	00035e17          	auipc	t3,0x35
   154a4:	cc0e3e03          	ld	t3,-832(t3) # 4a160 <pthread_self@GLIBC_2.27>
   154a8:	000e0367          	jalr	t1,t3
   154ac:	00000013          	nop

00000000000154b0 <_ZNSt7__cxx1112basic_stringIcSt11char_traitsIcESaIcEE6appendEPKc@plt>:
   154b0:	00035e17          	auipc	t3,0x35
   154b4:	cb8e3e03          	ld	t3,-840(t3) # 4a168 <_ZNSt7__cxx1112basic_stringIcSt11char_traitsIcESaIcEE6appendEPKc@Base>
   154b8:	000e0367          	jalr	t1,t3
   154bc:	00000013          	nop

00000000000154c0 <_ZNSt13random_device7_M_finiEv@plt>:
   154c0:	00035e17          	auipc	t3,0x35
   154c4:	cb0e3e03          	ld	t3,-848(t3) # 4a170 <_ZNSt13random_device7_M_finiEv@Base>
   154c8:	000e0367          	jalr	t1,t3
   154cc:	00000013          	nop

00000000000154d0 <_ZSt29_Rb_tree_insert_and_rebalancebPSt18_Rb_tree_node_baseS0_RS_@plt>:
   154d0:	00035e17          	auipc	t3,0x35
   154d4:	ca8e3e03          	ld	t3,-856(t3) # 4a178 <_ZSt29_Rb_tree_insert_and_rebalancebPSt18_Rb_tree_node_baseS0_RS_@Base>
   154d8:	000e0367          	jalr	t1,t3
   154dc:	00000013          	nop

00000000000154e0 <puts@plt>:
   154e0:	00035e17          	auipc	t3,0x35
   154e4:	ca0e3e03          	ld	t3,-864(t3) # 4a180 <puts@GLIBC_2.27>
   154e8:	000e0367          	jalr	t1,t3
   154ec:	00000013          	nop

00000000000154f0 <__cxa_begin_catch@plt>:
   154f0:	00035e17          	auipc	t3,0x35
   154f4:	c98e3e03          	ld	t3,-872(t3) # 4a188 <__cxa_begin_catch@Base>
   154f8:	000e0367          	jalr	t1,t3
   154fc:	00000013          	nop

0000000000015500 <wcscasecmp@plt>:
   15500:	00035e17          	auipc	t3,0x35
   15504:	c90e3e03          	ld	t3,-880(t3) # 4a190 <wcscasecmp@GLIBC_2.27>
   15508:	000e0367          	jalr	t1,t3
   1550c:	00000013          	nop

0000000000015510 <_ZNSt8ios_baseD2Ev@plt>:
   15510:	00035e17          	auipc	t3,0x35
   15514:	c88e3e03          	ld	t3,-888(t3) # 4a198 <_ZNSt8ios_baseD2Ev@Base>
   15518:	000e0367          	jalr	t1,t3
   1551c:	00000013          	nop

0000000000015520 <pthread_setspecific@plt>:
   15520:	00035e17          	auipc	t3,0x35
   15524:	c80e3e03          	ld	t3,-896(t3) # 4a1a0 <pthread_setspecific@GLIBC_2.34>
   15528:	000e0367          	jalr	t1,t3
   1552c:	00000013          	nop

0000000000015530 <_ZNSt7__cxx1112basic_stringIcSt11char_traitsIcESaIcEEC1EOS4_@plt>:
   15530:	00035e17          	auipc	t3,0x35
   15534:	c78e3e03          	ld	t3,-904(t3) # 4a1a8 <_ZNSt7__cxx1112basic_stringIcSt11char_traitsIcESaIcEEC1EOS4_@Base>
   15538:	000e0367          	jalr	t1,t3
   1553c:	00000013          	nop

0000000000015540 <_ZNKSt5ctypeIcE13_M_widen_initEv@plt>:
   15540:	00035e17          	auipc	t3,0x35
   15544:	c70e3e03          	ld	t3,-912(t3) # 4a1b0 <_ZNKSt5ctypeIcE13_M_widen_initEv@Base>
   15548:	000e0367          	jalr	t1,t3
   1554c:	00000013          	nop

0000000000015550 <pthread_mutex_destroy@plt>:
   15550:	00035e17          	auipc	t3,0x35
   15554:	c68e3e03          	ld	t3,-920(t3) # 4a1b8 <pthread_mutex_destroy@GLIBC_2.27>
   15558:	000e0367          	jalr	t1,t3
   1555c:	00000013          	nop

0000000000015560 <_ZStlsISt11char_traitsIcEERSt13basic_ostreamIcT_ES5_PKc@plt>:
   15560:	00035e17          	auipc	t3,0x35
   15564:	c60e3e03          	ld	t3,-928(t3) # 4a1c0 <_ZStlsISt11char_traitsIcEERSt13basic_ostreamIcT_ES5_PKc@Base>
   15568:	000e0367          	jalr	t1,t3
   1556c:	00000013          	nop

0000000000015570 <_ZStlsISt11char_traitsIcEERSt13basic_ostreamIcT_ES5_c@plt>:
   15570:	00035e17          	auipc	t3,0x35
   15574:	c58e3e03          	ld	t3,-936(t3) # 4a1c8 <_ZStlsISt11char_traitsIcEERSt13basic_ostreamIcT_ES5_c@Base>
   15578:	000e0367          	jalr	t1,t3
   1557c:	00000013          	nop

0000000000015580 <__cxa_atexit@plt>:
   15580:	00035e17          	auipc	t3,0x35
   15584:	c50e3e03          	ld	t3,-944(t3) # 4a1d0 <__cxa_atexit@GLIBC_2.27>
   15588:	000e0367          	jalr	t1,t3
   1558c:	00000013          	nop

0000000000015590 <gai_strerror@plt>:
   15590:	00035e17          	auipc	t3,0x35
   15594:	c48e3e03          	ld	t3,-952(t3) # 4a1d8 <gai_strerror@GLIBC_2.27>
   15598:	000e0367          	jalr	t1,t3
   1559c:	00000013          	nop

00000000000155a0 <dup@plt>:
   155a0:	00035e17          	auipc	t3,0x35
   155a4:	c40e3e03          	ld	t3,-960(t3) # 4a1e0 <dup@GLIBC_2.27>
   155a8:	000e0367          	jalr	t1,t3
   155ac:	00000013          	nop

00000000000155b0 <strstr@plt>:
   155b0:	00035e17          	auipc	t3,0x35
   155b4:	c38e3e03          	ld	t3,-968(t3) # 4a1e8 <strstr@GLIBC_2.27>
   155b8:	000e0367          	jalr	t1,t3
   155bc:	00000013          	nop

00000000000155c0 <freeaddrinfo@plt>:
   155c0:	00035e17          	auipc	t3,0x35
   155c4:	c30e3e03          	ld	t3,-976(t3) # 4a1f0 <freeaddrinfo@GLIBC_2.27>
   155c8:	000e0367          	jalr	t1,t3
   155cc:	00000013          	nop

00000000000155d0 <_exit@plt>:
   155d0:	00035e17          	auipc	t3,0x35
   155d4:	c28e3e03          	ld	t3,-984(t3) # 4a1f8 <_exit@GLIBC_2.27>
   155d8:	000e0367          	jalr	t1,t3
   155dc:	00000013          	nop

00000000000155e0 <_ZNSt7__cxx1112basic_stringIcSt11char_traitsIcESaIcEE9_M_createERmm@plt>:
   155e0:	00035e17          	auipc	t3,0x35
   155e4:	c20e3e03          	ld	t3,-992(t3) # 4a200 <_ZNSt7__cxx1112basic_stringIcSt11char_traitsIcESaIcEE9_M_createERmm@Base>
   155e8:	000e0367          	jalr	t1,t3
   155ec:	00000013          	nop

00000000000155f0 <_ZNSt8__detail15_List_node_base7_M_hookEPS0_@plt>:
   155f0:	00035e17          	auipc	t3,0x35
   155f4:	c18e3e03          	ld	t3,-1000(t3) # 4a208 <_ZNSt8__detail15_List_node_base7_M_hookEPS0_@Base>
   155f8:	000e0367          	jalr	t1,t3
   155fc:	00000013          	nop

0000000000015600 <fileno@plt>:
   15600:	00035e17          	auipc	t3,0x35
   15604:	c10e3e03          	ld	t3,-1008(t3) # 4a210 <fileno@GLIBC_2.27>
   15608:	000e0367          	jalr	t1,t3
   1560c:	00000013          	nop

0000000000015610 <printf@plt>:
   15610:	00035e17          	auipc	t3,0x35
   15614:	c08e3e03          	ld	t3,-1016(t3) # 4a218 <printf@GLIBC_2.27>
   15618:	000e0367          	jalr	t1,t3
   1561c:	00000013          	nop

0000000000015620 <_ZSt18_Rb_tree_incrementPSt18_Rb_tree_node_base@plt>:
   15620:	00035e17          	auipc	t3,0x35
   15624:	c00e3e03          	ld	t3,-1024(t3) # 4a220 <_ZSt18_Rb_tree_incrementPSt18_Rb_tree_node_base@Base>
   15628:	000e0367          	jalr	t1,t3
   1562c:	00000013          	nop

0000000000015630 <_ZSt16__ostream_insertIcSt11char_traitsIcEERSt13basic_ostreamIT_T0_ES6_PKS3_l@plt>:
   15630:	00035e17          	auipc	t3,0x35
   15634:	bf8e3e03          	ld	t3,-1032(t3) # 4a228 <_ZSt16__ostream_insertIcSt11char_traitsIcEERSt13basic_ostreamIT_T0_ES6_PKS3_l@Base>
   15638:	000e0367          	jalr	t1,t3
   1563c:	00000013          	nop

0000000000015640 <waitpid@plt>:
   15640:	00035e17          	auipc	t3,0x35
   15644:	bf0e3e03          	ld	t3,-1040(t3) # 4a230 <waitpid@GLIBC_2.27>
   15648:	000e0367          	jalr	t1,t3
   1564c:	00000013          	nop

0000000000015650 <socket@plt>:
   15650:	00035e17          	auipc	t3,0x35
   15654:	be8e3e03          	ld	t3,-1048(t3) # 4a238 <socket@GLIBC_2.27>
   15658:	000e0367          	jalr	t1,t3
   1565c:	00000013          	nop

0000000000015660 <pthread_mutex_lock@plt>:
   15660:	00035e17          	auipc	t3,0x35
   15664:	be0e3e03          	ld	t3,-1056(t3) # 4a240 <pthread_mutex_lock@GLIBC_2.27>
   15668:	000e0367          	jalr	t1,t3
   1566c:	00000013          	nop

0000000000015670 <_ZdlPvm@plt>:
   15670:	00035e17          	auipc	t3,0x35
   15674:	bd8e3e03          	ld	t3,-1064(t3) # 4a248 <_ZdlPvm@Base>
   15678:	000e0367          	jalr	t1,t3
   1567c:	00000013          	nop

0000000000015680 <_ZNSt14basic_ifstreamIcSt11char_traitsIcEED1Ev@plt>:
   15680:	00035e17          	auipc	t3,0x35
   15684:	bd0e3e03          	ld	t3,-1072(t3) # 4a250 <_ZNSt14basic_ifstreamIcSt11char_traitsIcEED1Ev@Base>
   15688:	000e0367          	jalr	t1,t3
   1568c:	00000013          	nop

0000000000015690 <_ZNKSt13runtime_error4whatEv@plt>:
   15690:	00035e17          	auipc	t3,0x35
   15694:	bc8e3e03          	ld	t3,-1080(t3) # 4a258 <_ZNKSt13runtime_error4whatEv@Base>
   15698:	000e0367          	jalr	t1,t3
   1569c:	00000013          	nop

00000000000156a0 <_ZNSt7__cxx1112basic_stringIcSt11char_traitsIcESaIcEE10_M_replaceEmmPKcm@plt>:
   156a0:	00035e17          	auipc	t3,0x35
   156a4:	bc0e3e03          	ld	t3,-1088(t3) # 4a260 <_ZNSt7__cxx1112basic_stringIcSt11char_traitsIcESaIcEE10_M_replaceEmmPKcm@Base>
   156a8:	000e0367          	jalr	t1,t3
   156ac:	00000013          	nop

00000000000156b0 <__cxa_call_terminate@plt>:
   156b0:	00035e17          	auipc	t3,0x35
   156b4:	bb8e3e03          	ld	t3,-1096(t3) # 4a268 <__cxa_call_terminate@Base>
   156b8:	000e0367          	jalr	t1,t3
   156bc:	00000013          	nop

00000000000156c0 <_ZNSt13runtime_errorD2Ev@plt>:
   156c0:	00035e17          	auipc	t3,0x35
   156c4:	bb0e3e03          	ld	t3,-1104(t3) # 4a270 <_ZNSt13runtime_errorD2Ev@Base>
   156c8:	000e0367          	jalr	t1,t3
   156cc:	00000013          	nop

00000000000156d0 <_ZSt16__throw_bad_castv@plt>:
   156d0:	00035e17          	auipc	t3,0x35
   156d4:	ba8e3e03          	ld	t3,-1112(t3) # 4a278 <_ZSt16__throw_bad_castv@Base>
   156d8:	000e0367          	jalr	t1,t3
   156dc:	00000013          	nop

00000000000156e0 <snprintf@plt>:
   156e0:	00035e17          	auipc	t3,0x35
   156e4:	ba0e3e03          	ld	t3,-1120(t3) # 4a280 <snprintf@GLIBC_2.27>
   156e8:	000e0367          	jalr	t1,t3
   156ec:	00000013          	nop

00000000000156f0 <read@plt>:
   156f0:	00035e17          	auipc	t3,0x35
   156f4:	b98e3e03          	ld	t3,-1128(t3) # 4a288 <read@GLIBC_2.27>
   156f8:	000e0367          	jalr	t1,t3
   156fc:	00000013          	nop

0000000000015700 <mmap@plt>:
   15700:	00035e17          	auipc	t3,0x35
   15704:	b90e3e03          	ld	t3,-1136(t3) # 4a290 <mmap@GLIBC_2.27>
   15708:	000e0367          	jalr	t1,t3
   1570c:	00000013          	nop

0000000000015710 <isxdigit@plt>:
   15710:	00035e17          	auipc	t3,0x35
   15714:	b88e3e03          	ld	t3,-1144(t3) # 4a298 <isxdigit@GLIBC_2.27>
   15718:	000e0367          	jalr	t1,t3
   1571c:	00000013          	nop

0000000000015720 <_Unwind_Resume@plt>:
   15720:	00035e17          	auipc	t3,0x35
   15724:	b80e3e03          	ld	t3,-1152(t3) # 4a2a0 <_Unwind_Resume@GCC_3.0>
   15728:	000e0367          	jalr	t1,t3
   1572c:	00000013          	nop

0000000000015730 <vfprintf@plt>:
   15730:	00035e17          	auipc	t3,0x35
   15734:	b78e3e03          	ld	t3,-1160(t3) # 4a2a8 <vfprintf@GLIBC_2.27>
   15738:	000e0367          	jalr	t1,t3
   1573c:	00000013          	nop

0000000000015740 <munmap@plt>:
   15740:	00035e17          	auipc	t3,0x35
   15744:	b70e3e03          	ld	t3,-1168(t3) # 4a2b0 <munmap@GLIBC_2.27>
   15748:	000e0367          	jalr	t1,t3
   1574c:	00000013          	nop

0000000000015750 <_ZNSt7__cxx1112basic_stringIcSt11char_traitsIcESaIcEE9_M_mutateEmmPKcm@plt>:
   15750:	00035e17          	auipc	t3,0x35
   15754:	b68e3e03          	ld	t3,-1176(t3) # 4a2b8 <_ZNSt7__cxx1112basic_stringIcSt11char_traitsIcESaIcEE9_M_mutateEmmPKcm@Base>
   15758:	000e0367          	jalr	t1,t3
   1575c:	00000013          	nop

0000000000015760 <dup2@plt>:
   15760:	00035e17          	auipc	t3,0x35
   15764:	b60e3e03          	ld	t3,-1184(t3) # 4a2c0 <dup2@GLIBC_2.27>
   15768:	000e0367          	jalr	t1,t3
   1576c:	00000013          	nop

0000000000015770 <_ZNSt7__cxx1112basic_stringIcSt11char_traitsIcESaIcEE4swapERS4_@plt>:
   15770:	00035e17          	auipc	t3,0x35
   15774:	b58e3e03          	ld	t3,-1192(t3) # 4a2c8 <_ZNSt7__cxx1112basic_stringIcSt11char_traitsIcESaIcEE4swapERS4_@Base>
   15778:	000e0367          	jalr	t1,t3
   1577c:	00000013          	nop

0000000000015780 <_ZNSo9_M_insertImEERSoT_@plt>:
   15780:	00035e17          	auipc	t3,0x35
   15784:	b50e3e03          	ld	t3,-1200(t3) # 4a2d0 <_ZNSo9_M_insertImEERSoT_@Base>
   15788:	000e0367          	jalr	t1,t3
   1578c:	00000013          	nop

0000000000015790 <toupper@plt>:
   15790:	00035e17          	auipc	t3,0x35
   15794:	b48e3e03          	ld	t3,-1208(t3) # 4a2d8 <toupper@GLIBC_2.27>
   15798:	000e0367          	jalr	t1,t3
   1579c:	00000013          	nop

00000000000157a0 <__cxa_rethrow@plt>:
   157a0:	00035e17          	auipc	t3,0x35
   157a4:	b40e3e03          	ld	t3,-1216(t3) # 4a2e0 <__cxa_rethrow@Base>
   157a8:	000e0367          	jalr	t1,t3
   157ac:	00000013          	nop

00000000000157b0 <pthread_mutex_unlock@plt>:
   157b0:	00035e17          	auipc	t3,0x35
   157b4:	b38e3e03          	ld	t3,-1224(t3) # 4a2e8 <pthread_mutex_unlock@GLIBC_2.27>
   157b8:	000e0367          	jalr	t1,t3
   157bc:	00000013          	nop

00000000000157c0 <_ZSt19__throw_logic_errorPKc@plt>:
   157c0:	00035e17          	auipc	t3,0x35
   157c4:	b30e3e03          	ld	t3,-1232(t3) # 4a2f0 <_ZSt19__throw_logic_errorPKc@Base>
   157c8:	000e0367          	jalr	t1,t3
   157cc:	00000013          	nop

00000000000157d0 <_Znwm@plt>:
   157d0:	00035e17          	auipc	t3,0x35
   157d4:	b28e3e03          	ld	t3,-1240(t3) # 4a2f8 <_Znwm@Base>
   157d8:	000e0367          	jalr	t1,t3
   157dc:	00000013          	nop

00000000000157e0 <_ZNSt7__cxx1119basic_ostringstreamIcSt11char_traitsIcESaIcEED1Ev@plt>:
   157e0:	00035e17          	auipc	t3,0x35
   157e4:	b20e3e03          	ld	t3,-1248(t3) # 4a300 <_ZNSt7__cxx1119basic_ostringstreamIcSt11char_traitsIcESaIcEED1Ev@Base>
   157e8:	000e0367          	jalr	t1,t3
   157ec:	00000013          	nop

00000000000157f0 <fputs@plt>:
   157f0:	00035e17          	auipc	t3,0x35
   157f4:	b18e3e03          	ld	t3,-1256(t3) # 4a308 <fputs@GLIBC_2.27>
   157f8:	000e0367          	jalr	t1,t3
   157fc:	00000013          	nop

0000000000015800 <fread@plt>:
   15800:	00035e17          	auipc	t3,0x35
   15804:	b10e3e03          	ld	t3,-1264(t3) # 4a310 <fread@GLIBC_2.27>
   15808:	000e0367          	jalr	t1,t3
   1580c:	00000013          	nop

0000000000015810 <strrchr@plt>:
   15810:	00035e17          	auipc	t3,0x35
   15814:	b08e3e03          	ld	t3,-1272(t3) # 4a318 <strrchr@GLIBC_2.27>
   15818:	000e0367          	jalr	t1,t3
   1581c:	00000013          	nop

0000000000015820 <_ZSt20__throw_length_errorPKc@plt>:
   15820:	00035e17          	auipc	t3,0x35
   15824:	b00e3e03          	ld	t3,-1280(t3) # 4a320 <_ZSt20__throw_length_errorPKc@Base>
   15828:	000e0367          	jalr	t1,t3
   1582c:	00000013          	nop

0000000000015830 <_ZdlPv@plt>:
   15830:	00035e17          	auipc	t3,0x35
   15834:	af8e3e03          	ld	t3,-1288(t3) # 4a328 <_ZdlPv@Base>
   15838:	000e0367          	jalr	t1,t3
   1583c:	00000013          	nop

0000000000015840 <_ZNSo9_M_insertIPKvEERSoT_@plt>:
   15840:	00035e17          	auipc	t3,0x35
   15844:	af0e3e03          	ld	t3,-1296(t3) # 4a330 <_ZNSo9_M_insertIPKvEERSoT_@Base>
   15848:	000e0367          	jalr	t1,t3
   1584c:	00000013          	nop

0000000000015850 <_ZNSo3putEc@plt>:
   15850:	00035e17          	auipc	t3,0x35
   15854:	ae8e3e03          	ld	t3,-1304(t3) # 4a338 <_ZNSo3putEc@Base>
   15858:	000e0367          	jalr	t1,t3
   1585c:	00000013          	nop

0000000000015860 <_ZNSt7__cxx1112basic_stringIwSt11char_traitsIwESaIwEE10_M_disposeEv@plt>:
   15860:	00035e17          	auipc	t3,0x35
   15864:	ae0e3e03          	ld	t3,-1312(t3) # 4a340 <_ZNSt7__cxx1112basic_stringIwSt11char_traitsIwESaIwEE10_M_disposeEv@Base>
   15868:	000e0367          	jalr	t1,t3
   1586c:	00000013          	nop

0000000000015870 <__cxa_guard_acquire@plt>:
   15870:	00035e17          	auipc	t3,0x35
   15874:	ad8e3e03          	ld	t3,-1320(t3) # 4a348 <__cxa_guard_acquire@Base>
   15878:	000e0367          	jalr	t1,t3
   1587c:	00000013          	nop

0000000000015880 <_ZSt24__throw_out_of_range_fmtPKcz@plt>:
   15880:	00035e17          	auipc	t3,0x35
   15884:	ad0e3e03          	ld	t3,-1328(t3) # 4a350 <_ZSt24__throw_out_of_range_fmtPKcz@Base>
   15888:	000e0367          	jalr	t1,t3
   1588c:	00000013          	nop

0000000000015890 <free@plt>:
   15890:	00035e17          	auipc	t3,0x35
   15894:	ac8e3e03          	ld	t3,-1336(t3) # 4a358 <free@GLIBC_2.27>
   15898:	000e0367          	jalr	t1,t3
   1589c:	00000013          	nop

00000000000158a0 <_ZNSt7__cxx1118basic_stringstreamIcSt11char_traitsIcESaIcEEC1Ev@plt>:
   158a0:	00035e17          	auipc	t3,0x35
   158a4:	ac0e3e03          	ld	t3,-1344(t3) # 4a360 <_ZNSt7__cxx1118basic_stringstreamIcSt11char_traitsIcESaIcEEC1Ev@Base>
   158a8:	000e0367          	jalr	t1,t3
   158ac:	00000013          	nop

00000000000158b0 <mkstemp@plt>:
   158b0:	00035e17          	auipc	t3,0x35
   158b4:	ab8e3e03          	ld	t3,-1352(t3) # 4a368 <mkstemp@GLIBC_2.27>
   158b8:	000e0367          	jalr	t1,t3
   158bc:	00000013          	nop

00000000000158c0 <_ZSt18_Rb_tree_decrementPSt18_Rb_tree_node_base@plt>:
   158c0:	00035e17          	auipc	t3,0x35
   158c4:	ab0e3e03          	ld	t3,-1360(t3) # 4a370 <_ZSt18_Rb_tree_decrementPSt18_Rb_tree_node_base@Base>
   158c8:	000e0367          	jalr	t1,t3
   158cc:	00000013          	nop

00000000000158d0 <_ZNSt7__cxx1112basic_stringIcSt11char_traitsIcESaIcEE9_M_appendEPKcm@plt>:
   158d0:	00035e17          	auipc	t3,0x35
   158d4:	aa8e3e03          	ld	t3,-1368(t3) # 4a378 <_ZNSt7__cxx1112basic_stringIcSt11char_traitsIcESaIcEE9_M_appendEPKcm@Base>
   158d8:	000e0367          	jalr	t1,t3
   158dc:	00000013          	nop

00000000000158e0 <_ZNSo9_M_insertIxEERSoT_@plt>:
   158e0:	00035e17          	auipc	t3,0x35
   158e4:	aa0e3e03          	ld	t3,-1376(t3) # 4a380 <_ZNSo9_M_insertIxEERSoT_@Base>
   158e8:	000e0367          	jalr	t1,t3
   158ec:	00000013          	nop

00000000000158f0 <memcmp@plt>:
   158f0:	00035e17          	auipc	t3,0x35
   158f4:	a98e3e03          	ld	t3,-1384(t3) # 4a388 <memcmp@GLIBC_2.27>
   158f8:	000e0367          	jalr	t1,t3
   158fc:	00000013          	nop

0000000000015900 <_ZNSt7__cxx1112basic_stringIwSt11char_traitsIwESaIwEE9_M_createERmm@plt>:
   15900:	00035e17          	auipc	t3,0x35
   15904:	a90e3e03          	ld	t3,-1392(t3) # 4a390 <_ZNSt7__cxx1112basic_stringIwSt11char_traitsIwESaIwEE9_M_createERmm@Base>
   15908:	000e0367          	jalr	t1,t3
   1590c:	00000013          	nop

0000000000015910 <pthread_mutex_init@plt>:
   15910:	00035e17          	auipc	t3,0x35
   15914:	a88e3e03          	ld	t3,-1400(t3) # 4a398 <pthread_mutex_init@GLIBC_2.27>
   15918:	000e0367          	jalr	t1,t3
   1591c:	00000013          	nop

0000000000015920 <_ZNSt7__cxx1112basic_stringIcSt11char_traitsIcESaIcEE7reserveEm@plt>:
   15920:	00035e17          	auipc	t3,0x35
   15924:	a80e3e03          	ld	t3,-1408(t3) # 4a3a0 <_ZNSt7__cxx1112basic_stringIcSt11char_traitsIcESaIcEE7reserveEm@Base>
   15928:	000e0367          	jalr	t1,t3
   1592c:	00000013          	nop

0000000000015930 <mkdir@plt>:
   15930:	00035e17          	auipc	t3,0x35
   15934:	a78e3e03          	ld	t3,-1416(t3) # 4a3a8 <mkdir@GLIBC_2.27>
   15938:	000e0367          	jalr	t1,t3
   1593c:	00000013          	nop

0000000000015940 <wcscmp@plt>:
   15940:	00035e17          	auipc	t3,0x35
   15944:	a70e3e03          	ld	t3,-1424(t3) # 4a3b0 <wcscmp@GLIBC_2.27>
   15948:	000e0367          	jalr	t1,t3
   1594c:	00000013          	nop

0000000000015950 <__cxa_bad_typeid@plt>:
   15950:	00035e17          	auipc	t3,0x35
   15954:	a68e3e03          	ld	t3,-1432(t3) # 4a3b8 <__cxa_bad_typeid@Base>
   15958:	000e0367          	jalr	t1,t3
   1595c:	00000013          	nop

0000000000015960 <pipe@plt>:
   15960:	00035e17          	auipc	t3,0x35
   15964:	a60e3e03          	ld	t3,-1440(t3) # 4a3c0 <pipe@GLIBC_2.27>
   15968:	000e0367          	jalr	t1,t3
   1596c:	00000013          	nop

0000000000015970 <pthread_key_create@plt>:
   15970:	00035e17          	auipc	t3,0x35
   15974:	a58e3e03          	ld	t3,-1448(t3) # 4a3c8 <pthread_key_create@GLIBC_2.34>
   15978:	000e0367          	jalr	t1,t3
   1597c:	00000013          	nop

0000000000015980 <_ZNSt9basic_iosIcSt11char_traitsIcEE5clearESt12_Ios_Iostate@plt>:
   15980:	00035e17          	auipc	t3,0x35
   15984:	a50e3e03          	ld	t3,-1456(t3) # 4a3d0 <_ZNSt9basic_iosIcSt11char_traitsIcEE5clearESt12_Ios_Iostate@Base>
   15988:	000e0367          	jalr	t1,t3
   1598c:	00000013          	nop

0000000000015990 <iscntrl@plt>:
   15990:	00035e17          	auipc	t3,0x35
   15994:	a48e3e03          	ld	t3,-1464(t3) # 4a3d8 <iscntrl@GLIBC_2.27>
   15998:	000e0367          	jalr	t1,t3
   1599c:	00000013          	nop

00000000000159a0 <fclose@plt>:
   159a0:	00035e17          	auipc	t3,0x35
   159a4:	a40e3e03          	ld	t3,-1472(t3) # 4a3e0 <fclose@GLIBC_2.27>
   159a8:	000e0367          	jalr	t1,t3
   159ac:	00000013          	nop

00000000000159b0 <_ZNSo5writeEPKcl@plt>:
   159b0:	00035e17          	auipc	t3,0x35
   159b4:	a38e3e03          	ld	t3,-1480(t3) # 4a3e8 <_ZNSo5writeEPKcl@Base>
   159b8:	000e0367          	jalr	t1,t3
   159bc:	00000013          	nop

00000000000159c0 <memmove@plt>:
   159c0:	00035e17          	auipc	t3,0x35
   159c4:	a30e3e03          	ld	t3,-1488(t3) # 4a3f0 <memmove@GLIBC_2.27>
   159c8:	000e0367          	jalr	t1,t3
   159cc:	00000013          	nop

00000000000159d0 <__isoc23_strtol@plt>:
   159d0:	00035e17          	auipc	t3,0x35
   159d4:	a28e3e03          	ld	t3,-1496(t3) # 4a3f8 <__isoc23_strtol@GLIBC_2.38>
   159d8:	000e0367          	jalr	t1,t3
   159dc:	00000013          	nop

00000000000159e0 <__cxa_free_exception@plt>:
   159e0:	00035e17          	auipc	t3,0x35
   159e4:	a20e3e03          	ld	t3,-1504(t3) # 4a400 <__cxa_free_exception@Base>
   159e8:	000e0367          	jalr	t1,t3
   159ec:	00000013          	nop

00000000000159f0 <pthread_key_delete@plt>:
   159f0:	00035e17          	auipc	t3,0x35
   159f4:	a18e3e03          	ld	t3,-1512(t3) # 4a408 <pthread_key_delete@GLIBC_2.34>
   159f8:	000e0367          	jalr	t1,t3
   159fc:	00000013          	nop

0000000000015a00 <getenv@plt>:
   15a00:	00035e17          	auipc	t3,0x35
   15a04:	a10e3e03          	ld	t3,-1520(t3) # 4a410 <getenv@GLIBC_2.27>
   15a08:	000e0367          	jalr	t1,t3
   15a0c:	00000013          	nop

0000000000015a10 <putchar@plt>:
   15a10:	00035e17          	auipc	t3,0x35
   15a14:	a08e3e03          	ld	t3,-1528(t3) # 4a418 <putchar@GLIBC_2.27>
   15a18:	000e0367          	jalr	t1,t3
   15a1c:	00000013          	nop

0000000000015a20 <__cxa_pure_virtual@plt>:
   15a20:	00035e17          	auipc	t3,0x35
   15a24:	a00e3e03          	ld	t3,-1536(t3) # 4a420 <__cxa_pure_virtual@CXXABI_1.3>
   15a28:	000e0367          	jalr	t1,t3
   15a2c:	00000013          	nop

0000000000015a30 <_ZNSt13random_device9_M_getvalEv@plt>:
   15a30:	00035e17          	auipc	t3,0x35
   15a34:	9f8e3e03          	ld	t3,-1544(t3) # 4a428 <_ZNSt13random_device9_M_getvalEv@Base>
   15a38:	000e0367          	jalr	t1,t3
   15a3c:	00000013          	nop

0000000000015a40 <close@plt>:
   15a40:	00035e17          	auipc	t3,0x35
   15a44:	9f0e3e03          	ld	t3,-1552(t3) # 4a430 <close@GLIBC_2.27>
   15a48:	000e0367          	jalr	t1,t3
   15a4c:	00000013          	nop

0000000000015a50 <_ZdaPvSt11align_val_t@plt>:
   15a50:	00035e17          	auipc	t3,0x35
   15a54:	9e8e3e03          	ld	t3,-1560(t3) # 4a438 <_ZdaPvSt11align_val_t@CXXABI_1.3.11>
   15a58:	000e0367          	jalr	t1,t3
   15a5c:	00000013          	nop

0000000000015a60 <clone@plt>:
   15a60:	00035e17          	auipc	t3,0x35
   15a64:	9e0e3e03          	ld	t3,-1568(t3) # 4a440 <clone@GLIBC_2.27>
   15a68:	000e0367          	jalr	t1,t3
   15a6c:	00000013          	nop

0000000000015a70 <_ZNKSt7__cxx1112basic_stringIcSt11char_traitsIcESaIcEE4findEcm@plt>:
   15a70:	00035e17          	auipc	t3,0x35
   15a74:	9d8e3e03          	ld	t3,-1576(t3) # 4a448 <_ZNKSt7__cxx1112basic_stringIcSt11char_traitsIcESaIcEE4findEcm@Base>
   15a78:	000e0367          	jalr	t1,t3
   15a7c:	00000013          	nop

0000000000015a80 <__cxa_allocate_exception@plt>:
   15a80:	00035e17          	auipc	t3,0x35
   15a84:	9d0e3e03          	ld	t3,-1584(t3) # 4a450 <__cxa_allocate_exception@Base>
   15a88:	000e0367          	jalr	t1,t3
   15a8c:	00000013          	nop

0000000000015a90 <isspace@plt>:
   15a90:	00035e17          	auipc	t3,0x35
   15a94:	9c8e3e03          	ld	t3,-1592(t3) # 4a458 <isspace@GLIBC_2.27>
   15a98:	000e0367          	jalr	t1,t3
   15a9c:	00000013          	nop

0000000000015aa0 <_ZNSt7__cxx1112basic_stringIcSt11char_traitsIcESaIcEE9_M_assignERKS4_@plt>:
   15aa0:	00035e17          	auipc	t3,0x35
   15aa4:	9c0e3e03          	ld	t3,-1600(t3) # 4a460 <_ZNSt7__cxx1112basic_stringIcSt11char_traitsIcESaIcEE9_M_assignERKS4_@Base>
   15aa8:	000e0367          	jalr	t1,t3
   15aac:	00000013          	nop

0000000000015ab0 <_ZNSt13basic_filebufIcSt11char_traitsIcEE4openEPKcSt13_Ios_Openmode@plt>:
   15ab0:	00035e17          	auipc	t3,0x35
   15ab4:	9b8e3e03          	ld	t3,-1608(t3) # 4a468 <_ZNSt13basic_filebufIcSt11char_traitsIcEE4openEPKcSt13_Ios_Openmode@Base>
   15ab8:	000e0367          	jalr	t1,t3
   15abc:	00000013          	nop

0000000000015ac0 <_Znam@plt>:
   15ac0:	00035e17          	auipc	t3,0x35
   15ac4:	9b0e3e03          	ld	t3,-1616(t3) # 4a470 <_Znam@Base>
   15ac8:	000e0367          	jalr	t1,t3
   15acc:	00000013          	nop

0000000000015ad0 <_ZNSi10_M_extractImEERSiRT_@plt>:
   15ad0:	00035e17          	auipc	t3,0x35
   15ad4:	9a8e3e03          	ld	t3,-1624(t3) # 4a478 <_ZNSi10_M_extractImEERSiRT_@Base>
   15ad8:	000e0367          	jalr	t1,t3
   15adc:	00000013          	nop

0000000000015ae0 <_ZNSt8__detail15_List_node_base11_M_transferEPS0_S1_@plt>:
   15ae0:	00035e17          	auipc	t3,0x35
   15ae4:	9a0e3e03          	ld	t3,-1632(t3) # 4a480 <_ZNSt8__detail15_List_node_base11_M_transferEPS0_S1_@Base>
   15ae8:	000e0367          	jalr	t1,t3
   15aec:	00000013          	nop

0000000000015af0 <strcmp@plt>:
   15af0:	00035e17          	auipc	t3,0x35
   15af4:	998e3e03          	ld	t3,-1640(t3) # 4a488 <strcmp@GLIBC_2.27>
   15af8:	000e0367          	jalr	t1,t3
   15afc:	00000013          	nop

0000000000015b00 <strlen@plt>:
   15b00:	00035e17          	auipc	t3,0x35
   15b04:	990e3e03          	ld	t3,-1648(t3) # 4a490 <strlen@GLIBC_2.27>
   15b08:	000e0367          	jalr	t1,t3
   15b0c:	00000013          	nop

0000000000015b10 <wcslen@plt>:
   15b10:	00035e17          	auipc	t3,0x35
   15b14:	988e3e03          	ld	t3,-1656(t3) # 4a498 <wcslen@GLIBC_2.27>
   15b18:	000e0367          	jalr	t1,t3
   15b1c:	00000013          	nop

0000000000015b20 <__cxa_throw@plt>:
   15b20:	00035e17          	auipc	t3,0x35
   15b24:	980e3e03          	ld	t3,-1664(t3) # 4a4a0 <__cxa_throw@Base>
   15b28:	000e0367          	jalr	t1,t3
   15b2c:	00000013          	nop

0000000000015b30 <write@plt>:
   15b30:	00035e17          	auipc	t3,0x35
   15b34:	978e3e03          	ld	t3,-1672(t3) # 4a4a8 <write@GLIBC_2.27>
   15b38:	000e0367          	jalr	t1,t3
   15b3c:	00000013          	nop

0000000000015b40 <_ZNSt7__cxx1112basic_stringIcSt11char_traitsIcESaIcEE12_M_constructEmc@plt>:
   15b40:	00035e17          	auipc	t3,0x35
   15b44:	970e3e03          	ld	t3,-1680(t3) # 4a4b0 <_ZNSt7__cxx1112basic_stringIcSt11char_traitsIcESaIcEE12_M_constructEmc@Base>
   15b48:	000e0367          	jalr	t1,t3
   15b4c:	00000013          	nop

0000000000015b50 <pthread_getspecific@plt>:
   15b50:	00035e17          	auipc	t3,0x35
   15b54:	968e3e03          	ld	t3,-1688(t3) # 4a4b8 <pthread_getspecific@GLIBC_2.34>
   15b58:	000e0367          	jalr	t1,t3
   15b5c:	00000013          	nop

0000000000015b60 <gettimeofday@plt>:
   15b60:	00035e17          	auipc	t3,0x35
   15b64:	960e3e03          	ld	t3,-1696(t3) # 4a4c0 <gettimeofday@GLIBC_2.27>
   15b68:	000e0367          	jalr	t1,t3
   15b6c:	00000013          	nop

0000000000015b70 <fdopen@plt>:
   15b70:	00035e17          	auipc	t3,0x35
   15b74:	958e3e03          	ld	t3,-1704(t3) # 4a4c8 <fdopen@GLIBC_2.27>
   15b78:	000e0367          	jalr	t1,t3
   15b7c:	00000013          	nop

0000000000015b80 <isatty@plt>:
   15b80:	00035e17          	auipc	t3,0x35
   15b84:	950e3e03          	ld	t3,-1712(t3) # 4a4d0 <isatty@GLIBC_2.27>
   15b88:	000e0367          	jalr	t1,t3
   15b8c:	00000013          	nop

0000000000015b90 <__cxa_end_catch@plt>:
   15b90:	00035e17          	auipc	t3,0x35
   15b94:	948e3e03          	ld	t3,-1720(t3) # 4a4d8 <__cxa_end_catch@Base>
   15b98:	000e0367          	jalr	t1,t3
   15b9c:	00000013          	nop

0000000000015ba0 <getaddrinfo@plt>:
   15ba0:	00035e17          	auipc	t3,0x35
   15ba4:	940e3e03          	ld	t3,-1728(t3) # 4a4e0 <getaddrinfo@GLIBC_2.27>
   15ba8:	000e0367          	jalr	t1,t3
   15bac:	00000013          	nop

0000000000015bb0 <_ZNSo5flushEv@plt>:
   15bb0:	00035e17          	auipc	t3,0x35
   15bb4:	938e3e03          	ld	t3,-1736(t3) # 4a4e8 <_ZNSo5flushEv@Base>
   15bb8:	000e0367          	jalr	t1,t3
   15bbc:	00000013          	nop

0000000000015bc0 <fflush@plt>:
   15bc0:	00035e17          	auipc	t3,0x35
   15bc4:	930e3e03          	ld	t3,-1744(t3) # 4a4f0 <fflush@GLIBC_2.27>
   15bc8:	000e0367          	jalr	t1,t3
   15bcc:	00000013          	nop

0000000000015bd0 <_ZSt28__throw_bad_array_new_lengthv@plt>:
   15bd0:	00035e17          	auipc	t3,0x35
   15bd4:	928e3e03          	ld	t3,-1752(t3) # 4a4f8 <_ZSt28__throw_bad_array_new_lengthv@Base>
   15bd8:	000e0367          	jalr	t1,t3
   15bdc:	00000013          	nop

0000000000015be0 <regexec@plt>:
   15be0:	00035e17          	auipc	t3,0x35
   15be4:	920e3e03          	ld	t3,-1760(t3) # 4a500 <regexec@GLIBC_2.27>
   15be8:	000e0367          	jalr	t1,t3
   15bec:	00000013          	nop

0000000000015bf0 <_ZNSt13basic_filebufIcSt11char_traitsIcEED1Ev@plt>:
   15bf0:	00035e17          	auipc	t3,0x35
   15bf4:	918e3e03          	ld	t3,-1768(t3) # 4a508 <_ZNSt13basic_filebufIcSt11char_traitsIcEED1Ev@Base>
   15bf8:	000e0367          	jalr	t1,t3
   15bfc:	00000013          	nop

0000000000015c00 <__dynamic_cast@plt>:
   15c00:	00035e17          	auipc	t3,0x35
   15c04:	910e3e03          	ld	t3,-1776(t3) # 4a510 <__dynamic_cast@Base>
   15c08:	000e0367          	jalr	t1,t3
   15c0c:	00000013          	nop

0000000000015c10 <memset@plt>:
   15c10:	00035e17          	auipc	t3,0x35
   15c14:	908e3e03          	ld	t3,-1784(t3) # 4a518 <memset@GLIBC_2.27>
   15c18:	000e0367          	jalr	t1,t3
   15c1c:	00000013          	nop

0000000000015c20 <sigaction@plt>:
   15c20:	00035e17          	auipc	t3,0x35
   15c24:	900e3e03          	ld	t3,-1792(t3) # 4a520 <sigaction@GLIBC_2.27>
   15c28:	000e0367          	jalr	t1,t3
   15c2c:	00000013          	nop

0000000000015c30 <_ZnamSt11align_val_t@plt>:
   15c30:	00035e17          	auipc	t3,0x35
   15c34:	8f8e3e03          	ld	t3,-1800(t3) # 4a528 <_ZnamSt11align_val_t@CXXABI_1.3.11>
   15c38:	000e0367          	jalr	t1,t3
   15c3c:	00000013          	nop

0000000000015c40 <__cxa_guard_release@plt>:
   15c40:	00035e17          	auipc	t3,0x35
   15c44:	8f0e3e03          	ld	t3,-1808(t3) # 4a530 <__cxa_guard_release@Base>
   15c48:	000e0367          	jalr	t1,t3
   15c4c:	00000013          	nop

0000000000015c50 <__gxx_personality_v0@plt>:
   15c50:	00035e17          	auipc	t3,0x35
   15c54:	8e8e3e03          	ld	t3,-1816(t3) # 4a538 <__gxx_personality_v0@Base>
   15c58:	000e0367          	jalr	t1,t3
   15c5c:	00000013          	nop

0000000000015c60 <regcomp@plt>:
   15c60:	00035e17          	auipc	t3,0x35
   15c64:	8e0e3e03          	ld	t3,-1824(t3) # 4a540 <regcomp@GLIBC_2.27>
   15c68:	000e0367          	jalr	t1,t3
   15c6c:	00000013          	nop

0000000000015c70 <_ZNSt7__cxx1112basic_stringIcSt11char_traitsIcESaIcEE6appendEPKcm@plt>:
   15c70:	00035e17          	auipc	t3,0x35
   15c74:	8d8e3e03          	ld	t3,-1832(t3) # 4a548 <_ZNSt7__cxx1112basic_stringIcSt11char_traitsIcESaIcEE6appendEPKcm@Base>
   15c78:	000e0367          	jalr	t1,t3
   15c7c:	00000013          	nop

0000000000015c80 <_ZNSt12__basic_fileIcED1Ev@plt>:
   15c80:	00035e17          	auipc	t3,0x35
   15c84:	8d0e3e03          	ld	t3,-1840(t3) # 4a550 <_ZNSt12__basic_fileIcED1Ev@Base>
   15c88:	000e0367          	jalr	t1,t3
   15c8c:	00000013          	nop

0000000000015c90 <_ZNSt13runtime_errorC2EPKc@plt>:
   15c90:	00035e17          	auipc	t3,0x35
   15c94:	8c8e3e03          	ld	t3,-1848(t3) # 4a558 <_ZNSt13runtime_errorC2EPKc@Base>
   15c98:	000e0367          	jalr	t1,t3
   15c9c:	00000013          	nop

0000000000015ca0 <__isoc23_strtoull@plt>:
   15ca0:	00035e17          	auipc	t3,0x35
   15ca4:	8c0e3e03          	ld	t3,-1856(t3) # 4a560 <__isoc23_strtoull@GLIBC_2.38>
   15ca8:	000e0367          	jalr	t1,t3
   15cac:	00000013          	nop

0000000000015cb0 <__libc_start_main@plt>:
   15cb0:	00035e17          	auipc	t3,0x35
   15cb4:	8b8e3e03          	ld	t3,-1864(t3) # 4a568 <__libc_start_main@GLIBC_2.34>
   15cb8:	000e0367          	jalr	t1,t3
   15cbc:	00000013          	nop

0000000000015cc0 <ftell@plt>:
   15cc0:	00035e17          	auipc	t3,0x35
   15cc4:	8b0e3e03          	ld	t3,-1872(t3) # 4a570 <ftell@GLIBC_2.27>
   15cc8:	000e0367          	jalr	t1,t3
   15ccc:	00000013          	nop

0000000000015cd0 <_ZNKSt7__cxx1112basic_stringIwSt11char_traitsIwESaIwEE4findEPKwmm@plt>:
   15cd0:	00035e17          	auipc	t3,0x35
   15cd4:	8a8e3e03          	ld	t3,-1880(t3) # 4a578 <_ZNKSt7__cxx1112basic_stringIwSt11char_traitsIwESaIwEE4findEPKwmm@Base>
   15cd8:	000e0367          	jalr	t1,t3
   15cdc:	00000013          	nop

0000000000015ce0 <_ZdaPv@plt>:
   15ce0:	00035e17          	auipc	t3,0x35
   15ce4:	8a0e3e03          	ld	t3,-1888(t3) # 4a580 <_ZdaPv@Base>
   15ce8:	000e0367          	jalr	t1,t3
   15cec:	00000013          	nop

0000000000015cf0 <_ZSt17__throw_bad_allocv@plt>:
   15cf0:	00035e17          	auipc	t3,0x35
   15cf4:	898e3e03          	ld	t3,-1896(t3) # 4a588 <_ZSt17__throw_bad_allocv@Base>
   15cf8:	000e0367          	jalr	t1,t3
   15cfc:	00000013          	nop

Disassembly of section .text:

0000000000015d00 <_ZNSt7__cxx1112basic_stringIcSt11char_traitsIcESaIcEEC2EPKcRKS3_.part.0>:
   15d00:	1141                	addi	sp,sp,-16
   15d02:	00022517          	auipc	a0,0x22
   15d06:	00e50513          	addi	a0,a0,14 # 37d10 <_IO_stdin_used+0x268>
   15d0a:	e406                	sd	ra,8(sp)
   15d0c:	ab5ff0ef          	jal	157c0 <_ZSt19__throw_logic_errorPKc@plt>

0000000000015d10 <_ZN7testing7MessagelsIKcEERS0_RKPT_.isra.0>:
   15d10:	1101                	addi	sp,sp,-32
   15d12:	e04a                	sd	s2,0(sp)
   15d14:	00053903          	ld	s2,0(a0)
   15d18:	e426                	sd	s1,8(sp)
   15d1a:	ec06                	sd	ra,24(sp)
   15d1c:	e822                	sd	s0,16(sp)
   15d1e:	84aa                	mv	s1,a0
   15d20:	0941                	addi	s2,s2,16
   15d22:	e991                	bnez	a1,15d36 <_ZN7testing7MessagelsIKcEERS0_RKPT_.isra.0+0x26>
   15d24:	854a                	mv	a0,s2
   15d26:	4619                	li	a2,6
   15d28:	00022597          	auipc	a1,0x22
   15d2c:	0c058593          	addi	a1,a1,192 # 37de8 <_IO_stdin_used+0x340>
   15d30:	901ff0ef          	jal	15630 <_ZSt16__ostream_insertIcSt11char_traitsIcEERSt13basic_ostreamIT_T0_ES6_PKS3_l@plt>
   15d34:	a811                	j	15d48 <_ZN7testing7MessagelsIKcEERS0_RKPT_.isra.0+0x38>
   15d36:	852e                	mv	a0,a1
   15d38:	842e                	mv	s0,a1
   15d3a:	dc7ff0ef          	jal	15b00 <strlen@plt>
   15d3e:	862a                	mv	a2,a0
   15d40:	85a2                	mv	a1,s0
   15d42:	854a                	mv	a0,s2
   15d44:	8edff0ef          	jal	15630 <_ZSt16__ostream_insertIcSt11char_traitsIcEERSt13basic_ostreamIT_T0_ES6_PKS3_l@plt>
   15d48:	60e2                	ld	ra,24(sp)
   15d4a:	6442                	ld	s0,16(sp)
   15d4c:	6902                	ld	s2,0(sp)
   15d4e:	8526                	mv	a0,s1
   15d50:	64a2                	ld	s1,8(sp)
   15d52:	6105                	addi	sp,sp,32
   15d54:	8082                	ret

0000000000015d56 <_ZN7testing8internalL25FormatCxxExceptionMessageEPKcS2_>:
   15d56:	7139                	addi	sp,sp,-64
   15d58:	f426                	sd	s1,40(sp)
   15d5a:	0024                	addi	s1,sp,8
   15d5c:	f822                	sd	s0,48(sp)
   15d5e:	842a                	mv	s0,a0
   15d60:	8526                	mv	a0,s1
   15d62:	f04a                	sd	s2,32(sp)
   15d64:	ec4e                	sd	s3,24(sp)
   15d66:	fc06                	sd	ra,56(sp)
   15d68:	892e                	mv	s2,a1
   15d6a:	89b2                	mv	s3,a2
   15d6c:	480030ef          	jal	191ec <_ZN7testing7MessageC1Ev>
   15d70:	6522                	ld	a0,8(sp)
   15d72:	0541                	addi	a0,a0,16
   15d74:	02090563          	beqz	s2,15d9e <_ZN7testing8internalL25FormatCxxExceptionMessageEPKcS2_+0x48>
   15d78:	00022597          	auipc	a1,0x22
   15d7c:	12858593          	addi	a1,a1,296 # 37ea0 <_IO_stdin_used+0x3f8>
   15d80:	fe0ff0ef          	jal	15560 <_ZStlsISt11char_traitsIcEERSt13basic_ostreamIcT_ES5_PKc@plt>
   15d84:	85ca                	mv	a1,s2
   15d86:	8526                	mv	a0,s1
   15d88:	f89ff0ef          	jal	15d10 <_ZN7testing7MessagelsIKcEERS0_RKPT_.isra.0>
   15d8c:	6108                	ld	a0,0(a0)
   15d8e:	00022597          	auipc	a1,0x22
   15d92:	03258593          	addi	a1,a1,50 # 37dc0 <_IO_stdin_used+0x318>
   15d96:	0541                	addi	a0,a0,16
   15d98:	fc8ff0ef          	jal	15560 <_ZStlsISt11char_traitsIcEERSt13basic_ostreamIcT_ES5_PKc@plt>
   15d9c:	a039                	j	15daa <_ZN7testing8internalL25FormatCxxExceptionMessageEPKcS2_+0x54>
   15d9e:	00022597          	auipc	a1,0x22
   15da2:	12a58593          	addi	a1,a1,298 # 37ec8 <_IO_stdin_used+0x420>
   15da6:	fbaff0ef          	jal	15560 <_ZStlsISt11char_traitsIcEERSt13basic_ostreamIcT_ES5_PKc@plt>
   15daa:	6522                	ld	a0,8(sp)
   15dac:	00022597          	auipc	a1,0x22
   15db0:	13458593          	addi	a1,a1,308 # 37ee0 <_IO_stdin_used+0x438>
   15db4:	0541                	addi	a0,a0,16
   15db6:	faaff0ef          	jal	15560 <_ZStlsISt11char_traitsIcEERSt13basic_ostreamIcT_ES5_PKc@plt>
   15dba:	85ce                	mv	a1,s3
   15dbc:	8526                	mv	a0,s1
   15dbe:	f53ff0ef          	jal	15d10 <_ZN7testing7MessagelsIKcEERS0_RKPT_.isra.0>
   15dc2:	6108                	ld	a0,0(a0)
   15dc4:	00024597          	auipc	a1,0x24
   15dc8:	d7458593          	addi	a1,a1,-652 # 39b38 <_IO_stdin_used+0x2090>
   15dcc:	0541                	addi	a0,a0,16
   15dce:	f92ff0ef          	jal	15560 <_ZStlsISt11char_traitsIcEERSt13basic_ostreamIcT_ES5_PKc@plt>
   15dd2:	85a6                	mv	a1,s1
   15dd4:	8522                	mv	a0,s0
   15dd6:	041030ef          	jal	19616 <_ZNK7testing7Message9GetStringB5cxx11Ev>
   15dda:	6522                	ld	a0,8(sp)
   15ddc:	cd19                	beqz	a0,15dfa <_ZN7testing8internalL25FormatCxxExceptionMessageEPKcS2_+0xa4>
   15dde:	611c                	ld	a5,0(a0)
   15de0:	679c                	ld	a5,8(a5)
   15de2:	9782                	jalr	a5
   15de4:	a819                	j	15dfa <_ZN7testing8internalL25FormatCxxExceptionMessageEPKcS2_+0xa4>
   15de6:	67a2                	ld	a5,8(sp)
   15de8:	842a                	mv	s0,a0
   15dea:	c789                	beqz	a5,15df4 <_ZN7testing8internalL25FormatCxxExceptionMessageEPKcS2_+0x9e>
   15dec:	6398                	ld	a4,0(a5)
   15dee:	853e                	mv	a0,a5
   15df0:	671c                	ld	a5,8(a4)
   15df2:	9782                	jalr	a5
   15df4:	8522                	mv	a0,s0
   15df6:	92bff0ef          	jal	15720 <_Unwind_Resume@plt>
   15dfa:	70e2                	ld	ra,56(sp)
   15dfc:	8522                	mv	a0,s0
   15dfe:	7442                	ld	s0,48(sp)
   15e00:	74a2                	ld	s1,40(sp)
   15e02:	7902                	ld	s2,32(sp)
   15e04:	69e2                	ld	s3,24(sp)
   15e06:	6121                	addi	sp,sp,64
   15e08:	8082                	ret
	...

0000000000015e0c <_GLOBAL__sub_I__ZN19UnaryTestAbs_v_Test10test_info_E>:
   15e0c:	8401c783          	lbu	a5,-1984(gp) # 4a5d0 <_ZGVN6nncase3ntt11distributed21topology_synchronizerILNS1_8topologyE2EE9barriers_E>
   15e10:	f7010113          	addi	sp,sp,-144
   15e14:	08113423          	sd	ra,136(sp)
   15e18:	08813023          	sd	s0,128(sp)
   15e1c:	06913c23          	sd	s1,120(sp)
   15e20:	07213823          	sd	s2,112(sp)
   15e24:	02079863          	bnez	a5,15e54 <_GLOBAL__sub_I__ZN19UnaryTestAbs_v_Test10test_info_E+0x48>
   15e28:	00100593          	li	a1,1
   15e2c:	84018713          	addi	a4,gp,-1984 # 4a5d0 <_ZGVN6nncase3ntt11distributed21topology_synchronizerILNS1_8topologyE2EE9barriers_E>
   15e30:	00000613          	li	a2,0
   15e34:	89018513          	addi	a0,gp,-1904 # 4a620 <_ZN6nncase3ntt11distributed21topology_synchronizerILNS1_8topologyE2EE9barriers_E>
   15e38:	00b70023          	sb	a1,0(a4)
   15e3c:	0e1000ef          	jal	1671c <_ZNSt14__tree_barrierISt18__empty_completionEC1ElS0_>
   15e40:	82018613          	addi	a2,gp,-2016 # 4a5b0 <__TMC_END__>
   15e44:	00000593          	li	a1,0
   15e48:	00000517          	auipc	a0,0x0
   15e4c:	74450513          	addi	a0,a0,1860 # 1658c <__tcf_0>
   15e50:	f30ff0ef          	jal	15580 <__cxa_atexit@plt>
   15e54:	8381c783          	lbu	a5,-1992(gp) # 4a5c8 <_ZGVN6nncase3ntt11distributed21topology_synchronizerILNS1_8topologyE1EE9barriers_E>
   15e58:	83818713          	addi	a4,gp,-1992 # 4a5c8 <_ZGVN6nncase3ntt11distributed21topology_synchronizerILNS1_8topologyE1EE9barriers_E>
   15e5c:	02079663          	bnez	a5,15e88 <_GLOBAL__sub_I__ZN19UnaryTestAbs_v_Test10test_info_E+0x7c>
   15e60:	00100593          	li	a1,1
   15e64:	00000613          	li	a2,0
   15e68:	87018513          	addi	a0,gp,-1936 # 4a600 <_ZN6nncase3ntt11distributed21topology_synchronizerILNS1_8topologyE1EE9barriers_E>
   15e6c:	00b70023          	sb	a1,0(a4)
   15e70:	0ad000ef          	jal	1671c <_ZNSt14__tree_barrierISt18__empty_completionEC1ElS0_>
   15e74:	82018613          	addi	a2,gp,-2016 # 4a5b0 <__TMC_END__>
   15e78:	00000593          	li	a1,0
   15e7c:	00000517          	auipc	a0,0x0
   15e80:	72450513          	addi	a0,a0,1828 # 165a0 <__tcf_1>
   15e84:	efcff0ef          	jal	15580 <__cxa_atexit@plt>
   15e88:	8301c783          	lbu	a5,-2000(gp) # 4a5c0 <_ZGVN6nncase3ntt11distributed21topology_synchronizerILNS1_8topologyE0EE8barrier_E>
   15e8c:	83018713          	addi	a4,gp,-2000 # 4a5c0 <_ZGVN6nncase3ntt11distributed21topology_synchronizerILNS1_8topologyE0EE8barrier_E>
   15e90:	10078863          	beqz	a5,15fa0 <_GLOBAL__sub_I__ZN19UnaryTestAbs_v_Test10test_info_E+0x194>
   15e94:	02810793          	addi	a5,sp,40
   15e98:	04200513          	li	a0,66
   15e9c:	04100413          	li	s0,65
   15ea0:	00f13c23          	sd	a5,24(sp)
   15ea4:	92dff0ef          	jal	157d0 <_Znwm@plt>
   15ea8:	0c347057          	vsetvli	zero,s0,e8,m8,ta,ma
   15eac:	00022917          	auipc	s2,0x22
   15eb0:	c3490913          	addi	s2,s2,-972 # 37ae0 <_IO_stdin_used+0x38>
   15eb4:	02090407          	vle8.v	v8,(s2)
   15eb8:	00050493          	mv	s1,a0
   15ebc:	00913c23          	sd	s1,24(sp)
   15ec0:	02813423          	sd	s0,40(sp)
   15ec4:	04810793          	addi	a5,sp,72
   15ec8:	04200513          	li	a0,66
   15ecc:	02048427          	vse8.v	v8,(s1)
   15ed0:	040480a3          	sb	zero,65(s1)
   15ed4:	02813023          	sd	s0,32(sp)
   15ed8:	02f13c23          	sd	a5,56(sp)
   15edc:	8f5ff0ef          	jal	157d0 <_Znwm@plt>
   15ee0:	0c347057          	vsetvli	zero,s0,e8,m8,ta,ma
   15ee4:	02048407          	vle8.v	v8,(s1)
   15ee8:	04813423          	sd	s0,72(sp)
   15eec:	04813023          	sd	s0,64(sp)
   15ef0:	02a13c23          	sd	a0,56(sp)
   15ef4:	01300493          	li	s1,19
   15ef8:	02050427          	vse8.v	v8,(a0)
   15efc:	040500a3          	sb	zero,65(a0)
   15f00:	04912c23          	sw	s1,88(sp)
   15f04:	088030ef          	jal	18f8c <_ZN7testing8internal13GetTestTypeIdEv>
   15f08:	00050413          	mv	s0,a0
   15f0c:	00100513          	li	a0,1
   15f10:	4b2050ef          	jal	1b3c2 <_ZN7testing8internal6IsTrueEb>
   15f14:	14050263          	beqz	a0,16058 <_GLOBAL__sub_I__ZN19UnaryTestAbs_v_Test10test_info_E+0x24c>
   15f18:	00100513          	li	a0,1
   15f1c:	4a6050ef          	jal	1b3c2 <_ZN7testing8internal6IsTrueEb>
   15f20:	0a050663          	beqz	a0,15fcc <_GLOBAL__sub_I__ZN19UnaryTestAbs_v_Test10test_info_E+0x1c0>
   15f24:	00800513          	li	a0,8
   15f28:	8a9ff0ef          	jal	157d0 <_Znwm@plt>
   15f2c:	00040793          	mv	a5,s0
   15f30:	03810413          	addi	s0,sp,56
   15f34:	00050313          	mv	t1,a0
   15f38:	00040713          	mv	a4,s0
   15f3c:	00033e17          	auipc	t3,0x33
   15f40:	ca4e0e13          	addi	t3,t3,-860 # 48be0 <_ZTVN7testing8internal15TestFactoryImplI19UnaryTestAbs_v_TestEE+0x10>
   15f44:	00a13023          	sd	a0,0(sp)
   15f48:	00000893          	li	a7,0
   15f4c:	00000813          	li	a6,0
   15f50:	00000693          	li	a3,0
   15f54:	00000613          	li	a2,0
   15f58:	00022597          	auipc	a1,0x22
   15f5c:	d4058593          	addi	a1,a1,-704 # 37c98 <_IO_stdin_used+0x1f0>
   15f60:	00022517          	auipc	a0,0x22
   15f64:	d4050513          	addi	a0,a0,-704 # 37ca0 <_IO_stdin_used+0x1f8>
   15f68:	01c33023          	sd	t3,0(t1)
   15f6c:	116180ef          	jal	2e082 <_ZN7testing8internal23MakeAndRegisterTestInfoEPKcS2_S2_S2_NS0_12CodeLocationEPKvPFvvES7_PNS0_15TestFactoryBaseE>
   15f70:	00050793          	mv	a5,a0
   15f74:	00040513          	mv	a0,s0
   15f78:	84f1b423          	sd	a5,-1976(gp) # 4a5d8 <_ZN19UnaryTestAbs_v_Test10test_info_E>
   15f7c:	780000ef          	jal	166fc <_ZNSt7__cxx1112basic_stringIcSt11char_traitsIcESaIcEE10_M_disposeEv>
   15f80:	01810513          	addi	a0,sp,24
   15f84:	778000ef          	jal	166fc <_ZNSt7__cxx1112basic_stringIcSt11char_traitsIcESaIcEE10_M_disposeEv>
   15f88:	08813083          	ld	ra,136(sp)
   15f8c:	08013403          	ld	s0,128(sp)
   15f90:	07813483          	ld	s1,120(sp)
   15f94:	07013903          	ld	s2,112(sp)
   15f98:	09010113          	addi	sp,sp,144
   15f9c:	00008067          	ret
   15fa0:	00100593          	li	a1,1
   15fa4:	00000613          	li	a2,0
   15fa8:	85018513          	addi	a0,gp,-1968 # 4a5e0 <_ZN6nncase3ntt11distributed21topology_synchronizerILNS1_8topologyE0EE8barrier_E>
   15fac:	00b70023          	sb	a1,0(a4)
   15fb0:	76c000ef          	jal	1671c <_ZNSt14__tree_barrierISt18__empty_completionEC1ElS0_>
   15fb4:	82018613          	addi	a2,gp,-2016 # 4a5b0 <__TMC_END__>
   15fb8:	85018593          	addi	a1,gp,-1968 # 4a5e0 <_ZN6nncase3ntt11distributed21topology_synchronizerILNS1_8topologyE0EE8barrier_E>
   15fbc:	00000517          	auipc	a0,0x0
   15fc0:	5bc50513          	addi	a0,a0,1468 # 16578 <_ZN6nncase3ntt11distributed6detail12chip_barrierD1Ev>
   15fc4:	dbcff0ef          	jal	15580 <__cxa_atexit@plt>
   15fc8:	ecdff06f          	j	15e94 <_GLOBAL__sub_I__ZN19UnaryTestAbs_v_Test10test_info_E+0x88>
   15fcc:	01010913          	addi	s2,sp,16
   15fd0:	21300693          	li	a3,531
   15fd4:	00090513          	mv	a0,s2
   15fd8:	00022617          	auipc	a2,0x22
   15fdc:	b5060613          	addi	a2,a2,-1200 # 37b28 <_IO_stdin_used+0x80>
   15fe0:	00300593          	li	a1,3
   15fe4:	406090ef          	jal	1f3ea <_ZN7testing8internal8GTestLogC1ENS0_16GTestLogSeverityEPKci>
   15fe8:	03200613          	li	a2,50
   15fec:	00022597          	auipc	a1,0x22
   15ff0:	b8c58593          	addi	a1,a1,-1140 # 37b78 <_IO_stdin_used+0xd0>
   15ff4:	00034517          	auipc	a0,0x34
   15ff8:	fa453503          	ld	a0,-92(a0) # 49f98 <_ZSt4cerr@Base>
   15ffc:	e34ff0ef          	jal	15630 <_ZSt16__ostream_insertIcSt11char_traitsIcEERSt13basic_ostreamIT_T0_ES6_PKS3_l@plt>
   16000:	06f00613          	li	a2,111
   16004:	00022597          	auipc	a1,0x22
   16008:	c2458593          	addi	a1,a1,-988 # 37c28 <_IO_stdin_used+0x180>
   1600c:	00034517          	auipc	a0,0x34
   16010:	f8c53503          	ld	a0,-116(a0) # 49f98 <_ZSt4cerr@Base>
   16014:	e1cff0ef          	jal	15630 <_ZSt16__ostream_insertIcSt11char_traitsIcEERSt13basic_ostreamIT_T0_ES6_PKS3_l@plt>
   16018:	00022597          	auipc	a1,0x22
   1601c:	ac858593          	addi	a1,a1,-1336 # 37ae0 <_IO_stdin_used+0x38>
   16020:	00034517          	auipc	a0,0x34
   16024:	f7853503          	ld	a0,-136(a0) # 49f98 <_ZSt4cerr@Base>
   16028:	d38ff0ef          	jal	15560 <_ZStlsISt11char_traitsIcEERSt13basic_ostreamIcT_ES5_PKc@plt>
   1602c:	00100613          	li	a2,1
   16030:	00022597          	auipc	a1,0x22
   16034:	bf058593          	addi	a1,a1,-1040 # 37c20 <_IO_stdin_used+0x178>
   16038:	00050493          	mv	s1,a0
   1603c:	df4ff0ef          	jal	15630 <_ZSt16__ostream_insertIcSt11char_traitsIcEERSt13basic_ostreamIT_T0_ES6_PKS3_l@plt>
   16040:	00048513          	mv	a0,s1
   16044:	01300593          	li	a1,19
   16048:	bf8ff0ef          	jal	15440 <_ZNSolsEi@plt>
   1604c:	00090513          	mv	a0,s2
   16050:	72a060ef          	jal	1c77a <_ZN7testing8internal8GTestLogD1Ev>
   16054:	ed1ff06f          	j	15f24 <_GLOBAL__sub_I__ZN19UnaryTestAbs_v_Test10test_info_E+0x118>
   16058:	07313423          	sd	s3,104(sp)
   1605c:	01010993          	addi	s3,sp,16
   16060:	20400693          	li	a3,516
   16064:	00098513          	mv	a0,s3
   16068:	00022617          	auipc	a2,0x22
   1606c:	ac060613          	addi	a2,a2,-1344 # 37b28 <_IO_stdin_used+0x80>
   16070:	00300593          	li	a1,3
   16074:	376090ef          	jal	1f3ea <_ZN7testing8internal8GTestLogC1ENS0_16GTestLogSeverityEPKci>
   16078:	03200613          	li	a2,50
   1607c:	00022597          	auipc	a1,0x22
   16080:	afc58593          	addi	a1,a1,-1284 # 37b78 <_IO_stdin_used+0xd0>
   16084:	00034517          	auipc	a0,0x34
   16088:	f1453503          	ld	a0,-236(a0) # 49f98 <_ZSt4cerr@Base>
   1608c:	da4ff0ef          	jal	15630 <_ZSt16__ostream_insertIcSt11char_traitsIcEERSt13basic_ostreamIT_T0_ES6_PKS3_l@plt>
   16090:	06a00613          	li	a2,106
   16094:	00022597          	auipc	a1,0x22
   16098:	b1c58593          	addi	a1,a1,-1252 # 37bb0 <_IO_stdin_used+0x108>
   1609c:	00034517          	auipc	a0,0x34
   160a0:	efc53503          	ld	a0,-260(a0) # 49f98 <_ZSt4cerr@Base>
   160a4:	d8cff0ef          	jal	15630 <_ZSt16__ostream_insertIcSt11char_traitsIcEERSt13basic_ostreamIT_T0_ES6_PKS3_l@plt>
   160a8:	00090593          	mv	a1,s2
   160ac:	00034517          	auipc	a0,0x34
   160b0:	eec53503          	ld	a0,-276(a0) # 49f98 <_ZSt4cerr@Base>
   160b4:	cacff0ef          	jal	15560 <_ZStlsISt11char_traitsIcEERSt13basic_ostreamIcT_ES5_PKc@plt>
   160b8:	00100613          	li	a2,1
   160bc:	00022597          	auipc	a1,0x22
   160c0:	b6458593          	addi	a1,a1,-1180 # 37c20 <_IO_stdin_used+0x178>
   160c4:	00050913          	mv	s2,a0
   160c8:	d68ff0ef          	jal	15630 <_ZSt16__ostream_insertIcSt11char_traitsIcEERSt13basic_ostreamIT_T0_ES6_PKS3_l@plt>
   160cc:	00048593          	mv	a1,s1
   160d0:	00090513          	mv	a0,s2
   160d4:	b6cff0ef          	jal	15440 <_ZNSolsEi@plt>
   160d8:	00098513          	mv	a0,s3
   160dc:	69e060ef          	jal	1c77a <_ZN7testing8internal8GTestLogD1Ev>
   160e0:	06813983          	ld	s3,104(sp)
   160e4:	e35ff06f          	j	15f18 <_GLOBAL__sub_I__ZN19UnaryTestAbs_v_Test10test_info_E+0x10c>

00000000000160e8 <main>:
   160e8:	1101                	addi	sp,sp,-32
   160ea:	e822                	sd	s0,16(sp)
   160ec:	87aa                	mv	a5,a0
   160ee:	842e                	mv	s0,a1
   160f0:	00022517          	auipc	a0,0x22
   160f4:	c0850513          	addi	a0,a0,-1016 # 37cf8 <_IO_stdin_used+0x250>
   160f8:	00022597          	auipc	a1,0x22
   160fc:	bb858593          	addi	a1,a1,-1096 # 37cb0 <_IO_stdin_used+0x208>
   16100:	ec06                	sd	ra,24(sp)
   16102:	c63e                	sw	a5,12(sp)
   16104:	d0cff0ef          	jal	15610 <printf@plt>
   16108:	85a2                	mv	a1,s0
   1610a:	0068                	addi	a0,sp,12
   1610c:	349160ef          	jal	2cc54 <_ZN7testing14InitGoogleTestEPiPPc>
   16110:	0ee130ef          	jal	291fe <_ZN7testing8UnitTest11GetInstanceEv>
   16114:	6751a0ef          	jal	30f88 <_ZN7testing8UnitTest3RunEv>
   16118:	60e2                	ld	ra,24(sp)
   1611a:	6442                	ld	s0,16(sp)
   1611c:	6105                	addi	sp,sp,32
   1611e:	8082                	ret

0000000000016120 <_GLOBAL__sub_I_gtest_all.cc>:
   16120:	7179                	addi	sp,sp,-48
   16122:	4581                	li	a1,0
   16124:	00024517          	auipc	a0,0x24
   16128:	17450513          	addi	a0,a0,372 # 3a298 <_IO_stdin_used+0x27f0>
   1612c:	f406                	sd	ra,40(sp)
   1612e:	f022                	sd	s0,32(sp)
   16130:	7f0070ef          	jal	1d920 <_ZN7testing8internal16BoolFromGTestEnvEPKcb>
   16134:	872a                	mv	a4,a0
   16136:	00034797          	auipc	a5,0x34
   1613a:	b927b783          	ld	a5,-1134(a5) # 49cc8 <_GLOBAL_OFFSET_TABLE_+0x178>
   1613e:	4581                	li	a1,0
   16140:	00024517          	auipc	a0,0x24
   16144:	17050513          	addi	a0,a0,368 # 3a2b0 <_IO_stdin_used+0x2808>
   16148:	00e78023          	sb	a4,0(a5)
   1614c:	7d4070ef          	jal	1d920 <_ZN7testing8internal16BoolFromGTestEnvEPKcb>
   16150:	872a                	mv	a4,a0
   16152:	00034797          	auipc	a5,0x34
   16156:	afe7b783          	ld	a5,-1282(a5) # 49c50 <_GLOBAL_OFFSET_TABLE_+0x100>
   1615a:	4585                	li	a1,1
   1615c:	00024517          	auipc	a0,0x24
   16160:	16c50513          	addi	a0,a0,364 # 3a2c8 <_IO_stdin_used+0x2820>
   16164:	00e78023          	sb	a4,0(a5)
   16168:	7b8070ef          	jal	1d920 <_ZN7testing8internal16BoolFromGTestEnvEPKcb>
   1616c:	872a                	mv	a4,a0
   1616e:	00034797          	auipc	a5,0x34
   16172:	c327b783          	ld	a5,-974(a5) # 49da0 <_GLOBAL_OFFSET_TABLE_+0x250>
   16176:	00022597          	auipc	a1,0x22
   1617a:	dca58593          	addi	a1,a1,-566 # 37f40 <_IO_stdin_used+0x498>
   1617e:	00022517          	auipc	a0,0x22
   16182:	e4a50513          	addi	a0,a0,-438 # 37fc8 <_IO_stdin_used+0x520>
   16186:	00e78023          	sb	a4,0(a5)
   1618a:	253070ef          	jal	1dbdc <_ZN7testing8internal18StringFromGTestEnvEPKcS2_>
   1618e:	85aa                	mv	a1,a0
   16190:	00034517          	auipc	a0,0x34
   16194:	c5053503          	ld	a0,-944(a0) # 49de0 <_GLOBAL_OFFSET_TABLE_+0x290>
   16198:	4c5010ef          	jal	17e5c <_ZNSt7__cxx1112basic_stringIcSt11char_traitsIcESaIcEEC2EPKcRKS3_.isra.0>
   1619c:	00034597          	auipc	a1,0x34
   161a0:	c445b583          	ld	a1,-956(a1) # 49de0 <_GLOBAL_OFFSET_TABLE_+0x290>
   161a4:	82018613          	addi	a2,gp,-2016 # 4a5b0 <__TMC_END__>
   161a8:	00034517          	auipc	a0,0x34
   161ac:	bb053503          	ld	a0,-1104(a0) # 49d58 <_ZNSt7__cxx1112basic_stringIcSt11char_traitsIcESaIcEED1Ev@Base>
   161b0:	bd0ff0ef          	jal	15580 <__cxa_atexit@plt>
   161b4:	00024517          	auipc	a0,0x24
   161b8:	12c50513          	addi	a0,a0,300 # 3a2e0 <_IO_stdin_used+0x2838>
   161bc:	845ff0ef          	jal	15a00 <getenv@plt>
   161c0:	00025597          	auipc	a1,0x25
   161c4:	a6858593          	addi	a1,a1,-1432 # 3ac28 <_ZN7testingL16kUniversalFilterE>
   161c8:	c111                	beqz	a0,161cc <_GLOBAL__sub_I_gtest_all.cc+0xac>
   161ca:	85aa                	mv	a1,a0
   161cc:	00024517          	auipc	a0,0x24
   161d0:	12c50513          	addi	a0,a0,300 # 3a2f8 <_IO_stdin_used+0x2850>
   161d4:	209070ef          	jal	1dbdc <_ZN7testing8internal18StringFromGTestEnvEPKcS2_>
   161d8:	85aa                	mv	a1,a0
   161da:	00034517          	auipc	a0,0x34
   161de:	d8e53503          	ld	a0,-626(a0) # 49f68 <_GLOBAL_OFFSET_TABLE_+0x418>
   161e2:	47b010ef          	jal	17e5c <_ZNSt7__cxx1112basic_stringIcSt11char_traitsIcESaIcEEC2EPKcRKS3_.isra.0>
   161e6:	82018613          	addi	a2,gp,-2016 # 4a5b0 <__TMC_END__>
   161ea:	00034597          	auipc	a1,0x34
   161ee:	d7e5b583          	ld	a1,-642(a1) # 49f68 <_GLOBAL_OFFSET_TABLE_+0x418>
   161f2:	00034517          	auipc	a0,0x34
   161f6:	b6653503          	ld	a0,-1178(a0) # 49d58 <_ZNSt7__cxx1112basic_stringIcSt11char_traitsIcESaIcEED1Ev@Base>
   161fa:	b86ff0ef          	jal	15580 <__cxa_atexit@plt>
   161fe:	4581                	li	a1,0
   16200:	00024517          	auipc	a0,0x24
   16204:	10050513          	addi	a0,a0,256 # 3a300 <_IO_stdin_used+0x2858>
   16208:	718070ef          	jal	1d920 <_ZN7testing8internal16BoolFromGTestEnvEPKcb>
   1620c:	872a                	mv	a4,a0
   1620e:	00034797          	auipc	a5,0x34
   16212:	cea7b783          	ld	a5,-790(a5) # 49ef8 <_GLOBAL_OFFSET_TABLE_+0x3a8>
   16216:	850a                	mv	a0,sp
   16218:	00e78023          	sb	a4,0(a5)
   1621c:	051070ef          	jal	1da6c <_ZN7testing8internal25OutputFlagAlsoCheckEnvVarB5cxx11Ev>
   16220:	6582                	ld	a1,0(sp)
   16222:	00024517          	auipc	a0,0x24
   16226:	0fe50513          	addi	a0,a0,254 # 3a320 <_IO_stdin_used+0x2878>
   1622a:	840a                	mv	s0,sp
   1622c:	1b1070ef          	jal	1dbdc <_ZN7testing8internal18StringFromGTestEnvEPKcS2_>
   16230:	85aa                	mv	a1,a0
   16232:	00034517          	auipc	a0,0x34
   16236:	97653503          	ld	a0,-1674(a0) # 49ba8 <_GLOBAL_OFFSET_TABLE_+0x58>
   1623a:	423010ef          	jal	17e5c <_ZNSt7__cxx1112basic_stringIcSt11char_traitsIcESaIcEEC2EPKcRKS3_.isra.0>
   1623e:	850a                	mv	a0,sp
   16240:	4bc000ef          	jal	166fc <_ZNSt7__cxx1112basic_stringIcSt11char_traitsIcESaIcEE10_M_disposeEv>
   16244:	82018613          	addi	a2,gp,-2016 # 4a5b0 <__TMC_END__>
   16248:	00034597          	auipc	a1,0x34
   1624c:	9605b583          	ld	a1,-1696(a1) # 49ba8 <_GLOBAL_OFFSET_TABLE_+0x58>
   16250:	00034517          	auipc	a0,0x34
   16254:	b0853503          	ld	a0,-1272(a0) # 49d58 <_ZNSt7__cxx1112basic_stringIcSt11char_traitsIcESaIcEED1Ev@Base>
   16258:	b28ff0ef          	jal	15580 <__cxa_atexit@plt>
   1625c:	4585                	li	a1,1
   1625e:	00024517          	auipc	a0,0x24
   16262:	0ca50513          	addi	a0,a0,202 # 3a328 <_IO_stdin_used+0x2880>
   16266:	6ba070ef          	jal	1d920 <_ZN7testing8internal16BoolFromGTestEnvEPKcb>
   1626a:	872a                	mv	a4,a0
   1626c:	00034797          	auipc	a5,0x34
   16270:	bb47b783          	ld	a5,-1100(a5) # 49e20 <_GLOBAL_OFFSET_TABLE_+0x2d0>
   16274:	4585                	li	a1,1
   16276:	00024517          	auipc	a0,0x24
   1627a:	0c250513          	addi	a0,a0,194 # 3a338 <_IO_stdin_used+0x2890>
   1627e:	00e78023          	sb	a4,0(a5)
   16282:	69e070ef          	jal	1d920 <_ZN7testing8internal16BoolFromGTestEnvEPKcb>
   16286:	872a                	mv	a4,a0
   16288:	00034797          	auipc	a5,0x34
   1628c:	ae07b783          	ld	a5,-1312(a5) # 49d68 <_GLOBAL_OFFSET_TABLE_+0x218>
   16290:	4581                	li	a1,0
   16292:	00023517          	auipc	a0,0x23
   16296:	f2e50513          	addi	a0,a0,-210 # 391c0 <_IO_stdin_used+0x1718>
   1629a:	00e78023          	sb	a4,0(a5)
   1629e:	6ca070ef          	jal	1d968 <_ZN7testing8internal17Int32FromGTestEnvEPKci>
   162a2:	872a                	mv	a4,a0
   162a4:	00034797          	auipc	a5,0x34
   162a8:	9f47b783          	ld	a5,-1548(a5) # 49c98 <_GLOBAL_OFFSET_TABLE_+0x148>
   162ac:	4585                	li	a1,1
   162ae:	00024517          	auipc	a0,0x24
   162b2:	09a50513          	addi	a0,a0,154 # 3a348 <_IO_stdin_used+0x28a0>
   162b6:	c398                	sw	a4,0(a5)
   162b8:	6b0070ef          	jal	1d968 <_ZN7testing8internal17Int32FromGTestEnvEPKci>
   162bc:	872a                	mv	a4,a0
   162be:	00034797          	auipc	a5,0x34
   162c2:	c627b783          	ld	a5,-926(a5) # 49f20 <_GLOBAL_OFFSET_TABLE_+0x3d0>
   162c6:	4581                	li	a1,0
   162c8:	00024517          	auipc	a0,0x24
   162cc:	08850513          	addi	a0,a0,136 # 3a350 <_IO_stdin_used+0x28a8>
   162d0:	c398                	sw	a4,0(a5)
   162d2:	64e070ef          	jal	1d920 <_ZN7testing8internal16BoolFromGTestEnvEPKcb>
   162d6:	872a                	mv	a4,a0
   162d8:	00034797          	auipc	a5,0x34
   162dc:	c287b783          	ld	a5,-984(a5) # 49f00 <_GLOBAL_OFFSET_TABLE_+0x3b0>
   162e0:	06400593          	li	a1,100
   162e4:	00024517          	auipc	a0,0x24
   162e8:	07450513          	addi	a0,a0,116 # 3a358 <_IO_stdin_used+0x28b0>
   162ec:	00e78023          	sb	a4,0(a5)
   162f0:	678070ef          	jal	1d968 <_ZN7testing8internal17Int32FromGTestEnvEPKci>
   162f4:	872a                	mv	a4,a0
   162f6:	00034797          	auipc	a5,0x34
   162fa:	ad27b783          	ld	a5,-1326(a5) # 49dc8 <_GLOBAL_OFFSET_TABLE_+0x278>
   162fe:	00023597          	auipc	a1,0x23
   16302:	4f258593          	addi	a1,a1,1266 # 397f0 <_IO_stdin_used+0x1d48>
   16306:	00024517          	auipc	a0,0x24
   1630a:	06a50513          	addi	a0,a0,106 # 3a370 <_IO_stdin_used+0x28c8>
   1630e:	c398                	sw	a4,0(a5)
   16310:	0cd070ef          	jal	1dbdc <_ZN7testing8internal18StringFromGTestEnvEPKcS2_>
   16314:	85aa                	mv	a1,a0
   16316:	00034517          	auipc	a0,0x34
   1631a:	aaa53503          	ld	a0,-1366(a0) # 49dc0 <_GLOBAL_OFFSET_TABLE_+0x270>
   1631e:	33f010ef          	jal	17e5c <_ZNSt7__cxx1112basic_stringIcSt11char_traitsIcESaIcEEC2EPKcRKS3_.isra.0>
   16322:	82018613          	addi	a2,gp,-2016 # 4a5b0 <__TMC_END__>
   16326:	00034597          	auipc	a1,0x34
   1632a:	a9a5b583          	ld	a1,-1382(a1) # 49dc0 <_GLOBAL_OFFSET_TABLE_+0x270>
   1632e:	00034517          	auipc	a0,0x34
   16332:	a2a53503          	ld	a0,-1494(a0) # 49d58 <_ZNSt7__cxx1112basic_stringIcSt11char_traitsIcESaIcEED1Ev@Base>
   16336:	a4aff0ef          	jal	15580 <__cxa_atexit@plt>
   1633a:	4581                	li	a1,0
   1633c:	00024517          	auipc	a0,0x24
   16340:	04c50513          	addi	a0,a0,76 # 3a388 <_IO_stdin_used+0x28e0>
   16344:	5dc070ef          	jal	1d920 <_ZN7testing8internal16BoolFromGTestEnvEPKcb>
   16348:	872a                	mv	a4,a0
   1634a:	00034797          	auipc	a5,0x34
   1634e:	a8e7b783          	ld	a5,-1394(a5) # 49dd8 <_GLOBAL_OFFSET_TABLE_+0x288>
   16352:	00023597          	auipc	a1,0x23
   16356:	49e58593          	addi	a1,a1,1182 # 397f0 <_IO_stdin_used+0x1d48>
   1635a:	00024517          	auipc	a0,0x24
   1635e:	04650513          	addi	a0,a0,70 # 3a3a0 <_IO_stdin_used+0x28f8>
   16362:	00e78023          	sb	a4,0(a5)
   16366:	077070ef          	jal	1dbdc <_ZN7testing8internal18StringFromGTestEnvEPKcS2_>
   1636a:	85aa                	mv	a1,a0
   1636c:	00034517          	auipc	a0,0x34
   16370:	b5c53503          	ld	a0,-1188(a0) # 49ec8 <_GLOBAL_OFFSET_TABLE_+0x378>
   16374:	2e9010ef          	jal	17e5c <_ZNSt7__cxx1112basic_stringIcSt11char_traitsIcESaIcEEC2EPKcRKS3_.isra.0>
   16378:	82018613          	addi	a2,gp,-2016 # 4a5b0 <__TMC_END__>
   1637c:	00034597          	auipc	a1,0x34
   16380:	b4c5b583          	ld	a1,-1204(a1) # 49ec8 <_GLOBAL_OFFSET_TABLE_+0x378>
   16384:	00034517          	auipc	a0,0x34
   16388:	9d453503          	ld	a0,-1580(a0) # 49d58 <_ZNSt7__cxx1112basic_stringIcSt11char_traitsIcESaIcEED1Ev@Base>
   1638c:	9f4ff0ef          	jal	15580 <__cxa_atexit@plt>
   16390:	cd817057          	vsetivli	zero,2,e64,m1,ta,ma
   16394:	5e0030d7          	vmv.v.i	v1,0
   16398:	82018613          	addi	a2,gp,-2016 # 4a5b0 <__TMC_END__>
   1639c:	8b018593          	addi	a1,gp,-1872 # 4a640 <_ZN7testing8internalL7g_argvsE>
   163a0:	00034517          	auipc	a0,0x34
   163a4:	84053503          	ld	a0,-1984(a0) # 49be0 <_GLOBAL_OFFSET_TABLE_+0x90>
   163a8:	0205f0a7          	vse64.v	v1,(a1)
   163ac:	8c01b023          	sd	zero,-1856(gp) # 4a650 <_ZN7testing8internalL7g_argvsE+0x10>
   163b0:	9d0ff0ef          	jal	15580 <__cxa_atexit@plt>
   163b4:	3d9020ef          	jal	18f8c <_ZN7testing8internal13GetTestTypeIdEv>
   163b8:	872a                	mv	a4,a0
   163ba:	00034797          	auipc	a5,0x34
   163be:	ae67b783          	ld	a5,-1306(a5) # 49ea0 <_GLOBAL_OFFSET_TABLE_+0x350>
   163c2:	00025597          	auipc	a1,0x25
   163c6:	a8658593          	addi	a1,a1,-1402 # 3ae48 <_ZN7testingL22kDefaultDeathTestStyleE>
   163ca:	00024517          	auipc	a0,0x24
   163ce:	fe650513          	addi	a0,a0,-26 # 3a3b0 <_IO_stdin_used+0x2908>
   163d2:	e398                	sd	a4,0(a5)
   163d4:	009070ef          	jal	1dbdc <_ZN7testing8internal18StringFromGTestEnvEPKcS2_>
   163d8:	85aa                	mv	a1,a0
   163da:	00033517          	auipc	a0,0x33
   163de:	7f653503          	ld	a0,2038(a0) # 49bd0 <_GLOBAL_OFFSET_TABLE_+0x80>
   163e2:	27b010ef          	jal	17e5c <_ZNSt7__cxx1112basic_stringIcSt11char_traitsIcESaIcEEC2EPKcRKS3_.isra.0>
   163e6:	82018613          	addi	a2,gp,-2016 # 4a5b0 <__TMC_END__>
   163ea:	00033597          	auipc	a1,0x33
   163ee:	7e65b583          	ld	a1,2022(a1) # 49bd0 <_GLOBAL_OFFSET_TABLE_+0x80>
   163f2:	00034517          	auipc	a0,0x34
   163f6:	96653503          	ld	a0,-1690(a0) # 49d58 <_ZNSt7__cxx1112basic_stringIcSt11char_traitsIcESaIcEED1Ev@Base>
   163fa:	986ff0ef          	jal	15580 <__cxa_atexit@plt>
   163fe:	4581                	li	a1,0
   16400:	00024517          	auipc	a0,0x24
   16404:	fc850513          	addi	a0,a0,-56 # 3a3c8 <_IO_stdin_used+0x2920>
   16408:	518070ef          	jal	1d920 <_ZN7testing8internal16BoolFromGTestEnvEPKcb>
   1640c:	872a                	mv	a4,a0
   1640e:	00034797          	auipc	a5,0x34
   16412:	bba7b783          	ld	a5,-1094(a5) # 49fc8 <_GLOBAL_OFFSET_TABLE_+0x478>
   16416:	00023597          	auipc	a1,0x23
   1641a:	3da58593          	addi	a1,a1,986 # 397f0 <_IO_stdin_used+0x1d48>
   1641e:	00034517          	auipc	a0,0x34
   16422:	9ca53503          	ld	a0,-1590(a0) # 49de8 <_GLOBAL_OFFSET_TABLE_+0x298>
   16426:	00e78023          	sb	a4,0(a5)
   1642a:	233010ef          	jal	17e5c <_ZNSt7__cxx1112basic_stringIcSt11char_traitsIcESaIcEEC2EPKcRKS3_.isra.0>
   1642e:	82018613          	addi	a2,gp,-2016 # 4a5b0 <__TMC_END__>
   16432:	00034597          	auipc	a1,0x34
   16436:	9b65b583          	ld	a1,-1610(a1) # 49de8 <_GLOBAL_OFFSET_TABLE_+0x298>
   1643a:	00034517          	auipc	a0,0x34
   1643e:	91e53503          	ld	a0,-1762(a0) # 49d58 <_ZNSt7__cxx1112basic_stringIcSt11char_traitsIcESaIcEED1Ev@Base>
   16442:	93eff0ef          	jal	15580 <__cxa_atexit@plt>
   16446:	00034597          	auipc	a1,0x34
   1644a:	b725b583          	ld	a1,-1166(a1) # 49fb8 <_GLOBAL_OFFSET_TABLE_+0x468>
   1644e:	00058823          	sb	zero,16(a1)
   16452:	7402                	ld	s0,32(sp)
   16454:	70a2                	ld	ra,40(sp)
   16456:	01058793          	addi	a5,a1,16
   1645a:	0005b423          	sd	zero,8(a1)
   1645e:	e19c                	sd	a5,0(a1)
   16460:	82018613          	addi	a2,gp,-2016 # 4a5b0 <__TMC_END__>
   16464:	00034517          	auipc	a0,0x34
   16468:	8f453503          	ld	a0,-1804(a0) # 49d58 <_ZNSt7__cxx1112basic_stringIcSt11char_traitsIcESaIcEED1Ev@Base>
   1646c:	6145                	addi	sp,sp,48
   1646e:	912ff06f          	j	15580 <__cxa_atexit@plt>
   16472:	87aa                	mv	a5,a0
   16474:	8522                	mv	a0,s0
   16476:	843e                	mv	s0,a5
   16478:	284000ef          	jal	166fc <_ZNSt7__cxx1112basic_stringIcSt11char_traitsIcESaIcEE10_M_disposeEv>
   1647c:	8522                	mv	a0,s0
   1647e:	aa2ff0ef          	jal	15720 <_Unwind_Resume@plt>
	...

0000000000016484 <_start>:
   16484:	024000ef          	jal	164a8 <load_gp>
   16488:	87aa                	mv	a5,a0
   1648a:	00000517          	auipc	a0,0x0
   1648e:	01c50513          	addi	a0,a0,28 # 164a6 <__wrap_main>
   16492:	6582                	ld	a1,0(sp)
   16494:	0030                	addi	a2,sp,8
   16496:	ff017113          	andi	sp,sp,-16
   1649a:	4681                	li	a3,0
   1649c:	4701                	li	a4,0
   1649e:	880a                	mv	a6,sp
   164a0:	811ff0ef          	jal	15cb0 <__libc_start_main@plt>
   164a4:	9002                	ebreak

00000000000164a6 <__wrap_main>:
   164a6:	b189                	j	160e8 <main>

00000000000164a8 <load_gp>:
   164a8:	00035197          	auipc	gp,0x35
   164ac:	8e818193          	addi	gp,gp,-1816 # 4ad90 <__global_pointer$>
   164b0:	8082                	ret
	...

00000000000164b4 <_dl_relocate_static_pie>:
   164b4:	8082                	ret

00000000000164b6 <deregister_tm_clones>:
   164b6:	82018513          	addi	a0,gp,-2016 # 4a5b0 <__TMC_END__>
   164ba:	82018793          	addi	a5,gp,-2016 # 4a5b0 <__TMC_END__>
   164be:	00a78663          	beq	a5,a0,164ca <deregister_tm_clones+0x14>
   164c2:	00000793          	li	a5,0
   164c6:	c391                	beqz	a5,164ca <deregister_tm_clones+0x14>
   164c8:	8782                	jr	a5
   164ca:	8082                	ret

00000000000164cc <register_tm_clones>:
   164cc:	82018513          	addi	a0,gp,-2016 # 4a5b0 <__TMC_END__>
   164d0:	82018593          	addi	a1,gp,-2016 # 4a5b0 <__TMC_END__>
   164d4:	8d89                	sub	a1,a1,a0
   164d6:	4035d793          	srai	a5,a1,0x3
   164da:	91fd                	srli	a1,a1,0x3f
   164dc:	95be                	add	a1,a1,a5
   164de:	8585                	srai	a1,a1,0x1
   164e0:	c589                	beqz	a1,164ea <register_tm_clones+0x1e>
   164e2:	00000793          	li	a5,0
   164e6:	c391                	beqz	a5,164ea <register_tm_clones+0x1e>
   164e8:	8782                	jr	a5
   164ea:	8082                	ret

00000000000164ec <__do_global_dtors_aux>:
   164ec:	8281c783          	lbu	a5,-2008(gp) # 4a5b8 <completed.0>
   164f0:	ef99                	bnez	a5,1650e <__do_global_dtors_aux+0x22>
   164f2:	1141                	addi	sp,sp,-16
   164f4:	e022                	sd	s0,0(sp)
   164f6:	e406                	sd	ra,8(sp)
   164f8:	fbfff0ef          	jal	164b6 <deregister_tm_clones>
   164fc:	82818413          	addi	s0,gp,-2008 # 4a5b8 <completed.0>
   16500:	4785                	li	a5,1
   16502:	60a2                	ld	ra,8(sp)
   16504:	00f40023          	sb	a5,0(s0)
   16508:	6402                	ld	s0,0(sp)
   1650a:	0141                	addi	sp,sp,16
   1650c:	8082                	ret
   1650e:	8082                	ret

0000000000016510 <frame_dummy>:
   16510:	bf75                	j	164cc <register_tm_clones>
	...

0000000000016514 <_ZNKSt5ctypeIcE8do_widenEc>:
   16514:	00058513          	mv	a0,a1
   16518:	00008067          	ret

000000000001651c <_ZN7testing4Test5SetupEv>:
   1651c:	00000513          	li	a0,0
   16520:	00008067          	ret

0000000000016524 <_ZN7testing8internal15TestFactoryImplI19UnaryTestAbs_v_TestED1Ev>:
   16524:	00008067          	ret

0000000000016528 <_ZN7testing8internal15TestFactoryImplI19UnaryTestAbs_v_TestED0Ev>:
   16528:	00800593          	li	a1,8
   1652c:	944ff06f          	j	15670 <_ZdlPvm@plt>

0000000000016530 <_ZN19UnaryTestAbs_v_TestD1Ev>:
   16530:	00032797          	auipc	a5,0x32
   16534:	7b078793          	addi	a5,a5,1968 # 48ce0 <_ZTV19UnaryTestAbs_v_Test+0x10>
   16538:	00f53023          	sd	a5,0(a0)
   1653c:	5af0306f          	j	1a2ea <_ZN7testing4TestD1Ev>

0000000000016540 <_ZN19UnaryTestAbs_v_TestD0Ev>:
   16540:	ff010113          	addi	sp,sp,-16
   16544:	00813023          	sd	s0,0(sp)
   16548:	00113423          	sd	ra,8(sp)
   1654c:	00032797          	auipc	a5,0x32
   16550:	79478793          	addi	a5,a5,1940 # 48ce0 <_ZTV19UnaryTestAbs_v_Test+0x10>
   16554:	00f53023          	sd	a5,0(a0)
   16558:	00050413          	mv	s0,a0
   1655c:	58f030ef          	jal	1a2ea <_ZN7testing4TestD1Ev>
   16560:	00040513          	mv	a0,s0
   16564:	00013403          	ld	s0,0(sp)
   16568:	00813083          	ld	ra,8(sp)
   1656c:	01000593          	li	a1,16
   16570:	01010113          	addi	sp,sp,16
   16574:	8fcff06f          	j	15670 <_ZdlPvm@plt>

0000000000016578 <_ZN6nncase3ntt11distributed6detail12chip_barrierD1Ev>:
   16578:	00853503          	ld	a0,8(a0)
   1657c:	00050663          	beqz	a0,16588 <_ZN6nncase3ntt11distributed6detail12chip_barrierD1Ev+0x10>
   16580:	04000593          	li	a1,64
   16584:	cccff06f          	j	15a50 <_ZdaPvSt11align_val_t@plt>
   16588:	00008067          	ret

000000000001658c <__tcf_0>:
   1658c:	8981b503          	ld	a0,-1896(gp) # 4a628 <_ZN6nncase3ntt11distributed21topology_synchronizerILNS1_8topologyE2EE9barriers_E+0x8>
   16590:	00050663          	beqz	a0,1659c <__tcf_0+0x10>
   16594:	04000593          	li	a1,64
   16598:	cb8ff06f          	j	15a50 <_ZdaPvSt11align_val_t@plt>
   1659c:	00008067          	ret

00000000000165a0 <__tcf_1>:
   165a0:	8781b503          	ld	a0,-1928(gp) # 4a608 <_ZN6nncase3ntt11distributed21topology_synchronizerILNS1_8topologyE1EE9barriers_E+0x8>
   165a4:	00050663          	beqz	a0,165b0 <__tcf_1+0x10>
   165a8:	04000593          	li	a1,64
   165ac:	ca4ff06f          	j	15a50 <_ZdaPvSt11align_val_t@plt>
   165b0:	00008067          	ret

00000000000165b4 <_ZN7testing8internal15TestFactoryImplI19UnaryTestAbs_v_TestE10CreateTestEv>:
   165b4:	ff010113          	addi	sp,sp,-16
   165b8:	01000513          	li	a0,16
   165bc:	00113423          	sd	ra,8(sp)
   165c0:	00813023          	sd	s0,0(sp)
   165c4:	a0cff0ef          	jal	157d0 <_Znwm@plt>
   165c8:	00050413          	mv	s0,a0
   165cc:	321030ef          	jal	1a0ec <_ZN7testing4TestC1Ev>
   165d0:	00032797          	auipc	a5,0x32
   165d4:	71078793          	addi	a5,a5,1808 # 48ce0 <_ZTV19UnaryTestAbs_v_Test+0x10>
   165d8:	00813083          	ld	ra,8(sp)
   165dc:	00f43023          	sd	a5,0(s0)
   165e0:	00040513          	mv	a0,s0
   165e4:	00013403          	ld	s0,0(sp)
   165e8:	01010113          	addi	sp,sp,16
   165ec:	00008067          	ret

00000000000165f0 <_ZN9__gnu_cxx12__to_xstringINSt7__cxx1112basic_stringIcSt11char_traitsIcESaIcEEEcEET_PFiPT0_mPKS8_PvEmSB_z>:
   165f0:	fa010113          	addi	sp,sp,-96
   165f4:	00060313          	mv	t1,a2
   165f8:	00f60613          	addi	a2,a2,15
   165fc:	02813823          	sd	s0,48(sp)
   16600:	02913423          	sd	s1,40(sp)
   16604:	03213023          	sd	s2,32(sp)
   16608:	01313c23          	sd	s3,24(sp)
   1660c:	04010413          	addi	s0,sp,64
   16610:	02113c23          	sd	ra,56(sp)
   16614:	ff067613          	andi	a2,a2,-16
   16618:	40c10133          	sub	sp,sp,a2
   1661c:	00050493          	mv	s1,a0
   16620:	00068613          	mv	a2,a3
   16624:	00058e93          	mv	t4,a1
   16628:	00e43023          	sd	a4,0(s0)
   1662c:	00f43423          	sd	a5,8(s0)
   16630:	00010513          	mv	a0,sp
   16634:	00030593          	mv	a1,t1
   16638:	00040693          	mv	a3,s0
   1663c:	01043823          	sd	a6,16(s0)
   16640:	01143c23          	sd	a7,24(s0)
   16644:	fc843423          	sd	s0,-56(s0)
   16648:	000e80e7          	jalr	t4
   1664c:	01048793          	addi	a5,s1,16
   16650:	0004b423          	sd	zero,8(s1)
   16654:	00f4b023          	sd	a5,0(s1)
   16658:	00f00713          	li	a4,15
   1665c:	00010993          	mv	s3,sp
   16660:	00050913          	mv	s2,a0
   16664:	04a76663          	bltu	a4,a0,166b0 <_ZN9__gnu_cxx12__to_xstringINSt7__cxx1112basic_stringIcSt11char_traitsIcESaIcEEEcEET_PFiPT0_mPKS8_PvEmSB_z+0xc0>
   16668:	00100713          	li	a4,1
   1666c:	02e50c63          	beq	a0,a4,166a4 <_ZN9__gnu_cxx12__to_xstringINSt7__cxx1112basic_stringIcSt11char_traitsIcESaIcEEEcEET_PFiPT0_mPKS8_PvEmSB_z+0xb4>
   16670:	04051c63          	bnez	a0,166c8 <_ZN9__gnu_cxx12__to_xstringINSt7__cxx1112basic_stringIcSt11char_traitsIcESaIcEEEcEET_PFiPT0_mPKS8_PvEmSB_z+0xd8>
   16674:	0124b423          	sd	s2,8(s1)
   16678:	012787b3          	add	a5,a5,s2
   1667c:	00078023          	sb	zero,0(a5)
   16680:	fc040113          	addi	sp,s0,-64
   16684:	03813083          	ld	ra,56(sp)
   16688:	00048513          	mv	a0,s1
   1668c:	03013403          	ld	s0,48(sp)
   16690:	02813483          	ld	s1,40(sp)
   16694:	02013903          	ld	s2,32(sp)
   16698:	01813983          	ld	s3,24(sp)
   1669c:	06010113          	addi	sp,sp,96
   166a0:	00008067          	ret
   166a4:	00014703          	lbu	a4,0(sp)
   166a8:	00e48823          	sb	a4,16(s1)
   166ac:	fc9ff06f          	j	16674 <_ZN9__gnu_cxx12__to_xstringINSt7__cxx1112basic_stringIcSt11char_traitsIcESaIcEEEcEET_PFiPT0_mPKS8_PvEmSB_z+0x84>
   166b0:	04054063          	bltz	a0,166f0 <_ZN9__gnu_cxx12__to_xstringINSt7__cxx1112basic_stringIcSt11char_traitsIcESaIcEEEcEET_PFiPT0_mPKS8_PvEmSB_z+0x100>
   166b4:	00150513          	addi	a0,a0,1
   166b8:	918ff0ef          	jal	157d0 <_Znwm@plt>
   166bc:	00050793          	mv	a5,a0
   166c0:	0124b823          	sd	s2,16(s1)
   166c4:	00a4b023          	sd	a0,0(s1)
   166c8:	00090693          	mv	a3,s2
   166cc:	0c36f757          	vsetvli	a4,a3,e8,m8,ta,ma
   166d0:	02098407          	vle8.v	v8,(s3)
   166d4:	40e686b3          	sub	a3,a3,a4
   166d8:	00e989b3          	add	s3,s3,a4
   166dc:	02078427          	vse8.v	v8,(a5)
   166e0:	00e787b3          	add	a5,a5,a4
   166e4:	fe0694e3          	bnez	a3,166cc <_ZN9__gnu_cxx12__to_xstringINSt7__cxx1112basic_stringIcSt11char_traitsIcESaIcEEEcEET_PFiPT0_mPKS8_PvEmSB_z+0xdc>
   166e8:	0004b783          	ld	a5,0(s1)
   166ec:	f89ff06f          	j	16674 <_ZN9__gnu_cxx12__to_xstringINSt7__cxx1112basic_stringIcSt11char_traitsIcESaIcEEEcEET_PFiPT0_mPKS8_PvEmSB_z+0x84>
   166f0:	00021517          	auipc	a0,0x21
   166f4:	3d050513          	addi	a0,a0,976 # 37ac0 <_IO_stdin_used+0x18>
   166f8:	928ff0ef          	jal	15820 <_ZSt20__throw_length_errorPKc@plt>

00000000000166fc <_ZNSt7__cxx1112basic_stringIcSt11char_traitsIcESaIcEE10_M_disposeEv>:
   166fc:	00050793          	mv	a5,a0
   16700:	00053503          	ld	a0,0(a0)
   16704:	01078713          	addi	a4,a5,16
   16708:	00e50863          	beq	a0,a4,16718 <_ZNSt7__cxx1112basic_stringIcSt11char_traitsIcESaIcEE10_M_disposeEv+0x1c>
   1670c:	0107b583          	ld	a1,16(a5)
   16710:	00158593          	addi	a1,a1,1
   16714:	f5dfe06f          	j	15670 <_ZdlPvm@plt>
   16718:	00008067          	ret

000000000001671c <_ZNSt14__tree_barrierISt18__empty_completionEC1ElS0_>:
   1671c:	fe010113          	addi	sp,sp,-32
   16720:	00813823          	sd	s0,16(sp)
   16724:	00913423          	sd	s1,8(sp)
   16728:	00050413          	mv	s0,a0
   1672c:	00113c23          	sd	ra,24(sp)
   16730:	01213023          	sd	s2,0(sp)
   16734:	00158493          	addi	s1,a1,1
   16738:	fff00513          	li	a0,-1
   1673c:	00b43023          	sd	a1,0(s0)
   16740:	4014d493          	srai	s1,s1,0x1
   16744:	00043423          	sd	zero,8(s0)
   16748:	00043823          	sd	zero,16(s0)
   1674c:	00040ca3          	sb	zero,25(s0)
   16750:	00755793          	srli	a5,a0,0x7
   16754:	0097e463          	bltu	a5,s1,1675c <_ZNSt14__tree_barrierISt18__empty_completionEC1ElS0_+0x40>
   16758:	00649513          	slli	a0,s1,0x6
   1675c:	04000593          	li	a1,64
   16760:	cd0ff0ef          	jal	15c30 <_ZnamSt11align_val_t@plt>
   16764:	fff48793          	addi	a5,s1,-1
   16768:	00050913          	mv	s2,a0
   1676c:	0007c863          	bltz	a5,1677c <_ZNSt14__tree_barrierISt18__empty_completionEC1ElS0_+0x60>
   16770:	00649613          	slli	a2,s1,0x6
   16774:	00000593          	li	a1,0
   16778:	c98ff0ef          	jal	15c10 <memset@plt>
   1677c:	00843503          	ld	a0,8(s0)
   16780:	01243423          	sd	s2,8(s0)
   16784:	02050063          	beqz	a0,167a4 <_ZNSt14__tree_barrierISt18__empty_completionEC1ElS0_+0x88>
   16788:	01013403          	ld	s0,16(sp)
   1678c:	01813083          	ld	ra,24(sp)
   16790:	00813483          	ld	s1,8(sp)
   16794:	00013903          	ld	s2,0(sp)
   16798:	04000593          	li	a1,64
   1679c:	02010113          	addi	sp,sp,32
   167a0:	ab0ff06f          	j	15a50 <_ZdaPvSt11align_val_t@plt>
   167a4:	01813083          	ld	ra,24(sp)
   167a8:	01013403          	ld	s0,16(sp)
   167ac:	00813483          	ld	s1,8(sp)
   167b0:	00013903          	ld	s2,0(sp)
   167b4:	02010113          	addi	sp,sp,32
   167b8:	00008067          	ret

00000000000167bc <_ZNSt23mersenne_twister_engineImLm32ELm624ELm397ELm31ELm2567483615ELm11ELm4294967295ELm7ELm2636928640ELm15ELm4022730752ELm18ELm1812433253EE11_M_gen_randEv>:
   167bc:	000997b7          	lui	a5,0x99
   167c0:	08b78793          	addi	a5,a5,139 # 9908b <__global_pointer$+0x4e2fb>
   167c4:	00c79793          	slli	a5,a5,0xc
   167c8:	cd817057          	vsetivli	zero,2,e64,m1,ta,ma
   167cc:	0df78793          	addi	a5,a5,223
   167d0:	5e07c357          	vmv.v.x	v6,a5
   167d4:	80000737          	lui	a4,0x80000
   167d8:	000017b7          	lui	a5,0x1
   167dc:	fff74713          	not	a4,a4
   167e0:	800006b7          	lui	a3,0x80000
   167e4:	c6878793          	addi	a5,a5,-920 # c68 <__abi_tag-0xf62c>
   167e8:	5e0741d7          	vmv.v.x	v3,a4
   167ec:	5e06c257          	vmv.v.x	v4,a3
   167f0:	00850593          	addi	a1,a0,8
   167f4:	00f50633          	add	a2,a0,a5
   167f8:	00050693          	mv	a3,a0
   167fc:	0e300713          	li	a4,227
   16800:	00200893          	li	a7,2
   16804:	fff00813          	li	a6,-1
   16808:	00070793          	mv	a5,a4
   1680c:	00e8f463          	bgeu	a7,a4,16814 <_ZNSt23mersenne_twister_engineImLm32ELm624ELm397ELm31ELm2567483615ELm11ELm4294967295ELm7ELm2636928640ELm15ELm4022730752ELm18ELm1812433253EE11_M_gen_randEv+0x58>
   16810:	00200793          	li	a5,2
   16814:	0d87f057          	vsetvli	zero,a5,e64,m1,ta,ma
   16818:	0206f087          	vle64.v	v1,(a3)
   1681c:	0205f107          	vle64.v	v2,(a1)
   16820:	02067287          	vle64.v	v5,(a2)
   16824:	cd817057          	vsetivli	zero,2,e64,m1,ta,ma
   16828:	ffe70713          	addi	a4,a4,-2 # ffffffff7ffffffe <__global_pointer$+0xffffffff7ffb526e>
   1682c:	01058593          	addi	a1,a1,16
   16830:	261200d7          	vand.vv	v1,v1,v4
   16834:	26218157          	vand.vv	v2,v2,v3
   16838:	01060613          	addi	a2,a2,16
   1683c:	2a1100d7          	vor.vv	v1,v1,v2
   16840:	2610b157          	vand.vi	v2,v1,1
   16844:	a210b0d7          	vsrl.vi	v1,v1,1
   16848:	96232157          	vmul.vv	v2,v2,v6
   1684c:	2e1280d7          	vxor.vv	v1,v1,v5
   16850:	2e1100d7          	vxor.vv	v1,v1,v2
   16854:	0d87f057          	vsetvli	zero,a5,e64,m1,ta,ma
   16858:	0206f0a7          	vse64.v	v1,(a3)
   1685c:	01068693          	addi	a3,a3,16 # ffffffff80000010 <__global_pointer$+0xffffffff7ffb5280>
   16860:	fb0714e3          	bne	a4,a6,16808 <_ZNSt23mersenne_twister_engineImLm32ELm624ELm397ELm31ELm2567483615ELm11ELm4294967295ELm7ELm2636928640ELm15ELm4022730752ELm18ELm1812433253EE11_M_gen_randEv+0x4c>
   16864:	000995b7          	lui	a1,0x99
   16868:	08b58593          	addi	a1,a1,139 # 9908b <__global_pointer$+0x4e2fb>
   1686c:	00c59593          	slli	a1,a1,0xc
   16870:	0df58593          	addi	a1,a1,223
   16874:	cd817057          	vsetivli	zero,2,e64,m1,ta,ma
   16878:	00001637          	lui	a2,0x1
   1687c:	5e05c357          	vmv.v.x	v6,a1
   16880:	37860613          	addi	a2,a2,888 # 1378 <__abi_tag-0xef1c>
   16884:	00c50633          	add	a2,a0,a2
   16888:	71850793          	addi	a5,a0,1816
   1688c:	72050693          	addi	a3,a0,1824
   16890:	00050713          	mv	a4,a0
   16894:	0287f087          	vl1re64.v	v1,(a5)
   16898:	0286f107          	vl1re64.v	v2,(a3)
   1689c:	02877287          	vl1re64.v	v5,(a4)
   168a0:	01068693          	addi	a3,a3,16
   168a4:	01070713          	addi	a4,a4,16
   168a8:	261200d7          	vand.vv	v1,v1,v4
   168ac:	26218157          	vand.vv	v2,v2,v3
   168b0:	2a1100d7          	vor.vv	v1,v1,v2
   168b4:	2610b157          	vand.vi	v2,v1,1
   168b8:	a210b0d7          	vsrl.vi	v1,v1,1
   168bc:	96232157          	vmul.vv	v2,v2,v6
   168c0:	2e1280d7          	vxor.vv	v1,v1,v5
   168c4:	2e1100d7          	vxor.vv	v1,v1,v2
   168c8:	028780a7          	vs1r.v	v1,(a5)
   168cc:	01078793          	addi	a5,a5,16
   168d0:	fcf612e3          	bne	a2,a5,16894 <_ZNSt23mersenne_twister_engineImLm32ELm624ELm397ELm31ELm2567483615ELm11ELm4294967295ELm7ELm2636928640ELm15ELm4022730752ELm18ELm1812433253EE11_M_gen_randEv+0xd8>
   168d4:	00001737          	lui	a4,0x1
   168d8:	00e50733          	add	a4,a0,a4
   168dc:	00053683          	ld	a3,0(a0)
   168e0:	37873783          	ld	a5,888(a4) # 1378 <__abi_tag-0xef1c>
   168e4:	80000637          	lui	a2,0x80000
   168e8:	fff64513          	not	a0,a2
   168ec:	00a6f6b3          	and	a3,a3,a0
   168f0:	00c7f7b3          	and	a5,a5,a2
   168f4:	00d7e7b3          	or	a5,a5,a3
   168f8:	c6073603          	ld	a2,-928(a4)
   168fc:	0017f693          	andi	a3,a5,1
   16900:	40d006b3          	neg	a3,a3
   16904:	0017d793          	srli	a5,a5,0x1
   16908:	00b6f6b3          	and	a3,a3,a1
   1690c:	00c7c7b3          	xor	a5,a5,a2
   16910:	00d7c7b3          	xor	a5,a5,a3
   16914:	38073023          	sd	zero,896(a4)
   16918:	36f73c23          	sd	a5,888(a4)
   1691c:	00008067          	ret

0000000000016920 <_ZN6nncase7NttTest11init_tensorINS_4halfENS_3ntt12basic_vectorIS2_JLm8EEEEEEvRT0_T_S8_>:
   16920:	88010113          	addi	sp,sp,-1920
   16924:	00001837          	lui	a6,0x1
   16928:	ffffe2b7          	lui	t0,0xffffe
   1692c:	76813823          	sd	s0,1904(sp)
   16930:	76913423          	sd	s1,1896(sp)
   16934:	77213023          	sd	s2,1888(sp)
   16938:	75313c23          	sd	s3,1880(sp)
   1693c:	75413823          	sd	s4,1872(sp)
   16940:	76113c23          	sd	ra,1912(sp)
   16944:	75513423          	sd	s5,1864(sp)
   16948:	75613023          	sd	s6,1856(sp)
   1694c:	72813c27          	fsd	fs0,1848(sp)
   16950:	72913827          	fsd	fs1,1840(sp)
   16954:	73213427          	fsd	fs2,1832(sp)
   16958:	73313027          	fsd	fs3,1824(sp)
   1695c:	71413c27          	fsd	fs4,1816(sp)
   16960:	71513827          	fsd	fs5,1808(sp)
   16964:	38880793          	addi	a5,a6,904 # 1388 <__abi_tag-0xef0c>
   16968:	00510133          	add	sp,sp,t0
   1696c:	616666b7          	lui	a3,0x61666
   16970:	00007737          	lui	a4,0x7
   16974:	00f107b3          	add	a5,sp,a5
   16978:	56468693          	addi	a3,a3,1380 # 61666564 <__global_pointer$+0x6161b7d4>
   1697c:	c7570713          	addi	a4,a4,-907 # 6c75 <__abi_tag-0x961f>
   16980:	07400313          	li	t1,116
   16984:	00050413          	mv	s0,a0
   16988:	71080513          	addi	a0,a6,1808
   1698c:	00a109b3          	add	s3,sp,a0
   16990:	00d7a823          	sw	a3,16(a5)
   16994:	00e79a23          	sh	a4,20(a5)
   16998:	00678b23          	sb	t1,22(a5)
   1699c:	01078a13          	addi	s4,a5,16
   169a0:	00700893          	li	a7,7
   169a4:	00010513          	mv	a0,sp
   169a8:	00058913          	mv	s2,a1
   169ac:	c749bc23          	sd	s4,-904(s3)
   169b0:	00078593          	mv	a1,a5
   169b4:	c80987a3          	sb	zero,-881(s3)
   169b8:	c919b023          	sd	a7,-896(s3)
   169bc:	00060493          	mv	s1,a2
   169c0:	8a1fe0ef          	jal	15260 <_ZNSt13random_device7_M_initERKNSt7__cxx1112basic_stringIcSt11char_traitsIcESaIcEEE@plt>
   169c4:	c789b503          	ld	a0,-904(s3)
   169c8:	01450863          	beq	a0,s4,169d8 <_ZN6nncase7NttTest11init_tensorINS_4halfENS_3ntt12basic_vectorIS2_JLm8EEEEEEvRT0_T_S8_+0xb8>
   169cc:	c889b583          	ld	a1,-888(s3)
   169d0:	00158593          	addi	a1,a1,1
   169d4:	c9dfe0ef          	jal	15670 <_ZdlPvm@plt>
   169d8:	00010513          	mv	a0,sp
   169dc:	854ff0ef          	jal	15a30 <_ZNSt13random_device9_M_getvalEv@plt>
   169e0:	00001737          	lui	a4,0x1
   169e4:	02051693          	slli	a3,a0,0x20
   169e8:	00e107b3          	add	a5,sp,a4
   169ec:	0206d693          	srli	a3,a3,0x20
   169f0:	6c079637          	lui	a2,0x6c079
   169f4:	38d7b423          	sd	a3,904(a5)
   169f8:	39070793          	addi	a5,a4,912 # 1390 <__abi_tag-0xef04>
   169fc:	00f10833          	add	a6,sp,a5
   16a00:	96560613          	addi	a2,a2,-1691 # 6c078965 <__global_pointer$+0x6c02dbd5>
   16a04:	00100713          	li	a4,1
   16a08:	27000593          	li	a1,624
   16a0c:	01e6d793          	srli	a5,a3,0x1e
   16a10:	00d7c7b3          	xor	a5,a5,a3
   16a14:	02c787b3          	mul	a5,a5,a2
   16a18:	00880813          	addi	a6,a6,8
   16a1c:	00f707b3          	add	a5,a4,a5
   16a20:	02079693          	slli	a3,a5,0x20
   16a24:	0206d693          	srli	a3,a3,0x20
   16a28:	fed83c23          	sd	a3,-8(a6)
   16a2c:	00170713          	addi	a4,a4,1
   16a30:	fcb71ee3          	bne	a4,a1,16a0c <_ZN6nncase7NttTest11init_tensorINS_4halfENS_3ntt12basic_vectorIS2_JLm8EEEEEEvRT0_T_S8_+0xec>
   16a34:	000027b7          	lui	a5,0x2
   16a38:	0109191b          	slliw	s2,s2,0x10
   16a3c:	70878793          	addi	a5,a5,1800 # 2708 <__abi_tag-0xdb8c>
   16a40:	002787b3          	add	a5,a5,sp
   16a44:	0109591b          	srliw	s2,s2,0x10
   16a48:	0f800637          	lui	a2,0xf800
   16a4c:	00e7b023          	sd	a4,0(a5)
   16a50:	00d9179b          	slliw	a5,s2,0xd
   16a54:	0fffe6b7          	lui	a3,0xfffe
   16a58:	00c7f5b3          	and	a1,a5,a2
   16a5c:	00d7f6b3          	and	a3,a5,a3
   16a60:	2ec58863          	beq	a1,a2,16d50 <_ZN6nncase7NttTest11init_tensorINS_4halfENS_3ntt12basic_vectorIS2_JLm8EEEEEEvRT0_T_S8_+0x430>
   16a64:	1c058e63          	beqz	a1,16c40 <_ZN6nncase7NttTest11init_tensorINS_4halfENS_3ntt12basic_vectorIS2_JLm8EEEEEEvRT0_T_S8_+0x320>
   16a68:	380007b7          	lui	a5,0x38000
   16a6c:	00f686bb          	addw	a3,a3,a5
   16a70:	80000637          	lui	a2,0x80000
   16a74:	0109179b          	slliw	a5,s2,0x10
   16a78:	00c7f7b3          	and	a5,a5,a2
   16a7c:	00d7e7b3          	or	a5,a5,a3
   16a80:	f00787d3          	fmv.w.x	fa5,a5
   16a84:	0104949b          	slliw	s1,s1,0x10
   16a88:	0104d49b          	srliw	s1,s1,0x10
   16a8c:	4407f4d3          	fcvt.h.s	fs1,fa5
   16a90:	00d4979b          	slliw	a5,s1,0xd
   16a94:	0f800637          	lui	a2,0xf800
   16a98:	0fffe6b7          	lui	a3,0xfffe
   16a9c:	00c7f5b3          	and	a1,a5,a2
   16aa0:	402484d3          	fcvt.s.h	fs1,fs1
   16aa4:	00d7f6b3          	and	a3,a5,a3
   16aa8:	2ac58a63          	beq	a1,a2,16d5c <_ZN6nncase7NttTest11init_tensorINS_4halfENS_3ntt12basic_vectorIS2_JLm8EEEEEEvRT0_T_S8_+0x43c>
   16aac:	2a058e63          	beqz	a1,16d68 <_ZN6nncase7NttTest11init_tensorINS_4halfENS_3ntt12basic_vectorIS2_JLm8EEEEEEvRT0_T_S8_+0x448>
   16ab0:	380007b7          	lui	a5,0x38000
   16ab4:	00f686bb          	addw	a3,a3,a5
   16ab8:	0104979b          	slliw	a5,s1,0x10
   16abc:	80000937          	lui	s2,0x80000
   16ac0:	0127f7b3          	and	a5,a5,s2
   16ac4:	00d7e7b3          	or	a5,a5,a3
   16ac8:	f00787d3          	fmv.w.x	fa5,a5
   16acc:	000017b7          	lui	a5,0x1
   16ad0:	38878693          	addi	a3,a5,904 # 1388 <__abi_tag-0xef0c>
   16ad4:	4407f453          	fcvt.h.s	fs0,fa5
   16ad8:	71078793          	addi	a5,a5,1808
   16adc:	00f104b3          	add	s1,sp,a5
   16ae0:	40240453          	fcvt.s.h	fs0,fs0
   16ae4:	00021797          	auipc	a5,0x21
   16ae8:	fd07a987          	flw	fs3,-48(a5) # 37ab4 <_IO_stdin_used+0xc>
   16aec:	00021797          	auipc	a5,0x21
   16af0:	fcc7a907          	flw	fs2,-52(a5) # 37ab8 <_IO_stdin_used+0x10>
   16af4:	08947453          	fsub.s	fs0,fs0,fs1
   16af8:	00021797          	auipc	a5,0x21
   16afc:	fc47aa87          	flw	fs5,-60(a5) # 37abc <_IO_stdin_used+0x14>
   16b00:	00021797          	auipc	a5,0x21
   16b04:	fb07aa07          	flw	fs4,-80(a5) # 37ab0 <_IO_stdin_used+0x8>
   16b08:	00d10b33          	add	s6,sp,a3
   16b0c:	01040a93          	addi	s5,s0,16
   16b10:	fff94a13          	not	s4,s2
   16b14:	26f00993          	li	s3,623
   16b18:	1ae9e063          	bltu	s3,a4,16cb8 <_ZN6nncase7NttTest11init_tensorINS_4halfENS_3ntt12basic_vectorIS2_JLm8EEEEEEvRT0_T_S8_+0x398>
   16b1c:	00371793          	slli	a5,a4,0x3
   16b20:	00f487b3          	add	a5,s1,a5
   16b24:	c787b783          	ld	a5,-904(a5)
   16b28:	013a66b7          	lui	a3,0x13a6
   16b2c:	8ad68693          	addi	a3,a3,-1875 # 13a58ad <__global_pointer$+0x135ab1d>
   16b30:	00b7d593          	srli	a1,a5,0xb
   16b34:	02059593          	slli	a1,a1,0x20
   16b38:	0205d593          	srli	a1,a1,0x20
   16b3c:	00b7c7b3          	xor	a5,a5,a1
   16b40:	00779593          	slli	a1,a5,0x7
   16b44:	00769693          	slli	a3,a3,0x7
   16b48:	00d5f6b3          	and	a3,a1,a3
   16b4c:	00d7c7b3          	xor	a5,a5,a3
   16b50:	077e3637          	lui	a2,0x77e3
   16b54:	00f79693          	slli	a3,a5,0xf
   16b58:	00561613          	slli	a2,a2,0x5
   16b5c:	00c6f6b3          	and	a3,a3,a2
   16b60:	00d7c7b3          	xor	a5,a5,a3
   16b64:	0127d693          	srli	a3,a5,0x12
   16b68:	00d7c7b3          	xor	a5,a5,a3
   16b6c:	d037f7d3          	fcvt.s.lu	fa5,a5
   16b70:	f0000753          	fmv.w.x	fa4,zero
   16b74:	000027b7          	lui	a5,0x2
   16b78:	70878793          	addi	a5,a5,1800 # 2708 <__abi_tag-0xdb8c>
   16b7c:	00e7f7d3          	fadd.s	fa5,fa5,fa4
   16b80:	002787b3          	add	a5,a5,sp
   16b84:	00170713          	addi	a4,a4,1
   16b88:	00e7b023          	sd	a4,0(a5)
   16b8c:	1137f7d3          	fmul.s	fa5,fa5,fs3
   16b90:	a0f907d3          	fle.s	a5,fs2,fa5
   16b94:	1a079263          	bnez	a5,16d38 <_ZN6nncase7NttTest11init_tensorINS_4halfENS_3ntt12basic_vectorIS2_JLm8EEEEEEvRT0_T_S8_+0x418>
   16b98:	48f477c3          	fmadd.s	fa5,fs0,fa5,fs1
   16b9c:	000085b7          	lui	a1,0x8
   16ba0:	47800637          	lui	a2,0x47800
   16ba4:	e00787d3          	fmv.x.w	a5,fa5
   16ba8:	0007879b          	sext.w	a5,a5
   16bac:	0107d69b          	srliw	a3,a5,0x10
   16bb0:	0147f7b3          	and	a5,a5,s4
   16bb4:	00b6f6b3          	and	a3,a3,a1
   16bb8:	0ac7e663          	bltu	a5,a2,16c64 <_ZN6nncase7NttTest11init_tensorINS_4halfENS_3ntt12basic_vectorIS2_JLm8EEEEEEvRT0_T_S8_+0x344>
   16bbc:	7f800637          	lui	a2,0x7f800
   16bc0:	10f67a63          	bgeu	a2,a5,16cd4 <_ZN6nncase7NttTest11init_tensorINS_4halfENS_3ntt12basic_vectorIS2_JLm8EEEEEEvRT0_T_S8_+0x3b4>
   16bc4:	e0058793          	addi	a5,a1,-512 # 7e00 <__abi_tag-0x8494>
   16bc8:	00f6e7b3          	or	a5,a3,a5
   16bcc:	7fc00637          	lui	a2,0x7fc00
   16bd0:	0107979b          	slliw	a5,a5,0x10
   16bd4:	0127f7b3          	and	a5,a5,s2
   16bd8:	00c7e7b3          	or	a5,a5,a2
   16bdc:	f00787d3          	fmv.w.x	fa5,a5
   16be0:	00240413          	addi	s0,s0,2
   16be4:	4407f7d3          	fcvt.h.s	fa5,fa5
   16be8:	fef41f27          	fsh	fa5,-2(s0)
   16bec:	f35416e3          	bne	s0,s5,16b18 <_ZN6nncase7NttTest11init_tensorINS_4halfENS_3ntt12basic_vectorIS2_JLm8EEEEEEvRT0_T_S8_+0x1f8>
   16bf0:	00010513          	mv	a0,sp
   16bf4:	8cdfe0ef          	jal	154c0 <_ZNSt13random_device7_M_finiEv@plt>
   16bf8:	000022b7          	lui	t0,0x2
   16bfc:	00510133          	add	sp,sp,t0
   16c00:	77813083          	ld	ra,1912(sp)
   16c04:	77013403          	ld	s0,1904(sp)
   16c08:	76813483          	ld	s1,1896(sp)
   16c0c:	76013903          	ld	s2,1888(sp)
   16c10:	75813983          	ld	s3,1880(sp)
   16c14:	75013a03          	ld	s4,1872(sp)
   16c18:	74813a83          	ld	s5,1864(sp)
   16c1c:	74013b03          	ld	s6,1856(sp)
   16c20:	73813407          	fld	fs0,1848(sp)
   16c24:	73013487          	fld	fs1,1840(sp)
   16c28:	72813907          	fld	fs2,1832(sp)
   16c2c:	72013987          	fld	fs3,1824(sp)
   16c30:	71813a07          	fld	fs4,1816(sp)
   16c34:	71013a87          	fld	fs5,1808(sp)
   16c38:	78010113          	addi	sp,sp,1920
   16c3c:	00008067          	ret
   16c40:	00021797          	auipc	a5,0x21
   16c44:	e707a787          	flw	fa5,-400(a5) # 37ab0 <_IO_stdin_used+0x8>
   16c48:	388007b7          	lui	a5,0x38800
   16c4c:	00f686b3          	add	a3,a3,a5
   16c50:	f0068753          	fmv.w.x	fa4,a3
   16c54:	08f777d3          	fsub.s	fa5,fa4,fa5
   16c58:	e00786d3          	fmv.x.w	a3,fa5
   16c5c:	0006869b          	sext.w	a3,a3
   16c60:	e11ff06f          	j	16a70 <_ZN6nncase7NttTest11init_tensorINS_4halfENS_3ntt12basic_vectorIS2_JLm8EEEEEEvRT0_T_S8_+0x150>
   16c64:	388005b7          	lui	a1,0x38800
   16c68:	06b7fe63          	bgeu	a5,a1,16ce4 <_ZN6nncase7NttTest11init_tensorINS_4halfENS_3ntt12basic_vectorIS2_JLm8EEEEEEvRT0_T_S8_+0x3c4>
   16c6c:	f00787d3          	fmv.w.x	fa5,a5
   16c70:	0f800537          	lui	a0,0xf800
   16c74:	0fffe837          	lui	a6,0xfffe
   16c78:	0157f7d3          	fadd.s	fa5,fa5,fs5
   16c7c:	e00787d3          	fmv.x.w	a5,fa5
   16c80:	00f6e7b3          	or	a5,a3,a5
   16c84:	0107979b          	slliw	a5,a5,0x10
   16c88:	0107d79b          	srliw	a5,a5,0x10
   16c8c:	00d7961b          	slliw	a2,a5,0xd
   16c90:	00a676b3          	and	a3,a2,a0
   16c94:	01067633          	and	a2,a2,a6
   16c98:	0ea68a63          	beq	a3,a0,16d8c <_ZN6nncase7NttTest11init_tensorINS_4halfENS_3ntt12basic_vectorIS2_JLm8EEEEEEvRT0_T_S8_+0x46c>
   16c9c:	0a069463          	bnez	a3,16d44 <_ZN6nncase7NttTest11init_tensorINS_4halfENS_3ntt12basic_vectorIS2_JLm8EEEEEEvRT0_T_S8_+0x424>
   16ca0:	00b6063b          	addw	a2,a2,a1
   16ca4:	f00607d3          	fmv.w.x	fa5,a2
   16ca8:	0947f7d3          	fsub.s	fa5,fa5,fs4
   16cac:	e0078653          	fmv.x.w	a2,fa5
   16cb0:	0006061b          	sext.w	a2,a2
   16cb4:	f1dff06f          	j	16bd0 <_ZN6nncase7NttTest11init_tensorINS_4halfENS_3ntt12basic_vectorIS2_JLm8EEEEEEvRT0_T_S8_+0x2b0>
   16cb8:	000b0513          	mv	a0,s6
   16cbc:	b01ff0ef          	jal	167bc <_ZNSt23mersenne_twister_engineImLm32ELm624ELm397ELm31ELm2567483615ELm11ELm4294967295ELm7ELm2636928640ELm15ELm4022730752ELm18ELm1812433253EE11_M_gen_randEv>
   16cc0:	000027b7          	lui	a5,0x2
   16cc4:	70878793          	addi	a5,a5,1800 # 2708 <__abi_tag-0xdb8c>
   16cc8:	002787b3          	add	a5,a5,sp
   16ccc:	0007b703          	ld	a4,0(a5)
   16cd0:	e4dff06f          	j	16b1c <_ZN6nncase7NttTest11init_tensorINS_4halfENS_3ntt12basic_vectorIS2_JLm8EEEEEEvRT0_T_S8_+0x1fc>
   16cd4:	000087b7          	lui	a5,0x8
   16cd8:	c0078793          	addi	a5,a5,-1024 # 7c00 <__abi_tag-0x8694>
   16cdc:	00f6e7b3          	or	a5,a3,a5
   16ce0:	ef1ff06f          	j	16bd0 <_ZN6nncase7NttTest11init_tensorINS_4halfENS_3ntt12basic_vectorIS2_JLm8EEEEEEvRT0_T_S8_+0x2b0>
   16ce4:	c80015b7          	lui	a1,0xc8001
   16ce8:	fff5859b          	addiw	a1,a1,-1 # ffffffffc8000fff <__global_pointer$+0xffffffffc7fb626f>
   16cec:	00d7d61b          	srliw	a2,a5,0xd
   16cf0:	00167613          	andi	a2,a2,1
   16cf4:	00b787bb          	addw	a5,a5,a1
   16cf8:	00c787bb          	addw	a5,a5,a2
   16cfc:	00d7d79b          	srliw	a5,a5,0xd
   16d00:	00f6e7b3          	or	a5,a3,a5
   16d04:	0107979b          	slliw	a5,a5,0x10
   16d08:	0107d79b          	srliw	a5,a5,0x10
   16d0c:	00d7969b          	slliw	a3,a5,0xd
   16d10:	0fffe5b7          	lui	a1,0xfffe
   16d14:	0f800537          	lui	a0,0xf800
   16d18:	00b6f5b3          	and	a1,a3,a1
   16d1c:	38000637          	lui	a2,0x38000
   16d20:	00a6f6b3          	and	a3,a3,a0
   16d24:	00c5863b          	addw	a2,a1,a2
   16d28:	eaa694e3          	bne	a3,a0,16bd0 <_ZN6nncase7NttTest11init_tensorINS_4halfENS_3ntt12basic_vectorIS2_JLm8EEEEEEvRT0_T_S8_+0x2b0>
   16d2c:	70000637          	lui	a2,0x70000
   16d30:	00c5863b          	addw	a2,a1,a2
   16d34:	e9dff06f          	j	16bd0 <_ZN6nncase7NttTest11init_tensorINS_4halfENS_3ntt12basic_vectorIS2_JLm8EEEEEEvRT0_T_S8_+0x2b0>
   16d38:	00021797          	auipc	a5,0x21
   16d3c:	d747a787          	flw	fa5,-652(a5) # 37aac <_IO_stdin_used+0x4>
   16d40:	e59ff06f          	j	16b98 <_ZN6nncase7NttTest11init_tensorINS_4halfENS_3ntt12basic_vectorIS2_JLm8EEEEEEvRT0_T_S8_+0x278>
   16d44:	380006b7          	lui	a3,0x38000
   16d48:	00d6063b          	addw	a2,a2,a3
   16d4c:	e85ff06f          	j	16bd0 <_ZN6nncase7NttTest11init_tensorINS_4halfENS_3ntt12basic_vectorIS2_JLm8EEEEEEvRT0_T_S8_+0x2b0>
   16d50:	700007b7          	lui	a5,0x70000
   16d54:	00f686bb          	addw	a3,a3,a5
   16d58:	d19ff06f          	j	16a70 <_ZN6nncase7NttTest11init_tensorINS_4halfENS_3ntt12basic_vectorIS2_JLm8EEEEEEvRT0_T_S8_+0x150>
   16d5c:	700007b7          	lui	a5,0x70000
   16d60:	00f686bb          	addw	a3,a3,a5
   16d64:	d55ff06f          	j	16ab8 <_ZN6nncase7NttTest11init_tensorINS_4halfENS_3ntt12basic_vectorIS2_JLm8EEEEEEvRT0_T_S8_+0x198>
   16d68:	00021797          	auipc	a5,0x21
   16d6c:	d487a787          	flw	fa5,-696(a5) # 37ab0 <_IO_stdin_used+0x8>
   16d70:	388007b7          	lui	a5,0x38800
   16d74:	00f686b3          	add	a3,a3,a5
   16d78:	f0068753          	fmv.w.x	fa4,a3
   16d7c:	08f777d3          	fsub.s	fa5,fa4,fa5
   16d80:	e00786d3          	fmv.x.w	a3,fa5
   16d84:	0006869b          	sext.w	a3,a3
   16d88:	d31ff06f          	j	16ab8 <_ZN6nncase7NttTest11init_tensorINS_4halfENS_3ntt12basic_vectorIS2_JLm8EEEEEEvRT0_T_S8_+0x198>
   16d8c:	700006b7          	lui	a3,0x70000
   16d90:	00d6063b          	addw	a2,a2,a3
   16d94:	e3dff06f          	j	16bd0 <_ZN6nncase7NttTest11init_tensorINS_4halfENS_3ntt12basic_vectorIS2_JLm8EEEEEEvRT0_T_S8_+0x2b0>

0000000000016d98 <_ZN19UnaryTestAbs_v_Test8TestBodyEv>:
   16d98:	fa010113          	addi	sp,sp,-96
   16d9c:	ffffd5b7          	lui	a1,0xffffd
   16da0:	00005637          	lui	a2,0x5
   16da4:	9005859b          	addiw	a1,a1,-1792 # ffffffffffffc900 <__global_pointer$+0xfffffffffffb1b70>
   16da8:	9006061b          	addiw	a2,a2,-1792 # 4900 <__abi_tag-0xb994>
   16dac:	00010513          	mv	a0,sp
   16db0:	04113c23          	sd	ra,88(sp)
   16db4:	04813823          	sd	s0,80(sp)
   16db8:	04913423          	sd	s1,72(sp)
   16dbc:	05213023          	sd	s2,64(sp)
   16dc0:	03313c23          	sd	s3,56(sp)
   16dc4:	b5dff0ef          	jal	16920 <_ZN6nncase7NttTest11init_tensorINS_4halfENS_3ntt12basic_vectorIS2_JLm8EEEEEEvRT0_T_S8_>
   16dc8:	02815087          	vl1re16.v	v1,(sp)
   16dcc:	cc847057          	vsetivli	zero,8,e16,m1,ta,ma
   16dd0:	000085b7          	lui	a1,0x8
   16dd4:	47800637          	lui	a2,0x47800
   16dd8:	2a1090d7          	vfabs.v	v1,v1
   16ddc:	421017d7          	vfmv.f.s	fa5,v1
   16de0:	402787d3          	fcvt.s.h	fa5,fa5
   16de4:	c00797d3          	fcvt.w.s	a5,fa5,rtz
   16de8:	d007f7d3          	fcvt.s.w	fa5,a5
   16dec:	e0078753          	fmv.x.w	a4,fa5
   16df0:	02171693          	slli	a3,a4,0x21
   16df4:	0216d693          	srli	a3,a3,0x21
   16df8:	0107571b          	srliw	a4,a4,0x10
   16dfc:	00b77733          	and	a4,a4,a1
   16e00:	00c6ee63          	bltu	a3,a2,16e1c <_ZN19UnaryTestAbs_v_Test8TestBodyEv+0x84>
   16e04:	7f8007b7          	lui	a5,0x7f800
   16e08:	24d7f663          	bgeu	a5,a3,17054 <_ZN19UnaryTestAbs_v_Test8TestBodyEv+0x2bc>
   16e0c:	e0058793          	addi	a5,a1,-512 # 7e00 <__abi_tag-0x8494>
   16e10:	00f76733          	or	a4,a4,a5
   16e14:	7fc007b7          	lui	a5,0x7fc00
   16e18:	0540006f          	j	16e6c <_ZN19UnaryTestAbs_v_Test8TestBodyEv+0xd4>
   16e1c:	38800637          	lui	a2,0x38800
   16e20:	1cc6ec63          	bltu	a3,a2,16ff8 <_ZN19UnaryTestAbs_v_Test8TestBodyEv+0x260>
   16e24:	c8001637          	lui	a2,0xc8001
   16e28:	fff6061b          	addiw	a2,a2,-1 # ffffffffc8000fff <__global_pointer$+0xffffffffc7fb626f>
   16e2c:	00d6d79b          	srliw	a5,a3,0xd
   16e30:	0017f793          	andi	a5,a5,1
   16e34:	00c686bb          	addw	a3,a3,a2
   16e38:	00f686bb          	addw	a3,a3,a5
   16e3c:	00d6d69b          	srliw	a3,a3,0xd
   16e40:	00d76733          	or	a4,a4,a3
   16e44:	0107171b          	slliw	a4,a4,0x10
   16e48:	0107571b          	srliw	a4,a4,0x10
   16e4c:	00d7169b          	slliw	a3,a4,0xd
   16e50:	0fffe637          	lui	a2,0xfffe
   16e54:	0f8005b7          	lui	a1,0xf800
   16e58:	00c6f633          	and	a2,a3,a2
   16e5c:	380007b7          	lui	a5,0x38000
   16e60:	00b6f6b3          	and	a3,a3,a1
   16e64:	00f607bb          	addw	a5,a2,a5
   16e68:	34b68463          	beq	a3,a1,171b0 <_ZN19UnaryTestAbs_v_Test8TestBodyEv+0x418>
   16e6c:	800006b7          	lui	a3,0x80000
   16e70:	0107171b          	slliw	a4,a4,0x10
   16e74:	00d77733          	and	a4,a4,a3
   16e78:	00f76733          	or	a4,a4,a5
   16e7c:	f00707d3          	fmv.w.x	fa5,a4
   16e80:	01010493          	addi	s1,sp,16
   16e84:	00048513          	mv	a0,s1
   16e88:	420787d3          	fcvt.d.s	fa5,fa5
   16e8c:	00021697          	auipc	a3,0x21
   16e90:	c4c68693          	addi	a3,a3,-948 # 37ad8 <_IO_stdin_used+0x30>
   16e94:	03a00613          	li	a2,58
   16e98:	e2078753          	fmv.x.d	a4,fa5
   16e9c:	00033597          	auipc	a1,0x33
   16ea0:	e545b583          	ld	a1,-428(a1) # 49cf0 <vsnprintf@GLIBC_2.27>
   16ea4:	02010413          	addi	s0,sp,32
   16ea8:	f48ff0ef          	jal	165f0 <_ZN9__gnu_cxx12__to_xstringINSt7__cxx1112basic_stringIcSt11char_traitsIcESaIcEEEcEET_PFiPT0_mPKS8_PvEmSB_z>
   16eac:	01813603          	ld	a2,24(sp)
   16eb0:	01013583          	ld	a1,16(sp)
   16eb4:	00033517          	auipc	a0,0x33
   16eb8:	d1453503          	ld	a0,-748(a0) # 49bc8 <_ZSt4cout@Base>
   16ebc:	f74fe0ef          	jal	15630 <_ZSt16__ostream_insertIcSt11char_traitsIcEERSt13basic_ostreamIT_T0_ES6_PKS3_l@plt>
   16ec0:	01013503          	ld	a0,16(sp)
   16ec4:	00850863          	beq	a0,s0,16ed4 <_ZN19UnaryTestAbs_v_Test8TestBodyEv+0x13c>
   16ec8:	02013583          	ld	a1,32(sp)
   16ecc:	00158593          	addi	a1,a1,1
   16ed0:	fa0fe0ef          	jal	15670 <_ZdlPvm@plt>
   16ed4:	00033917          	auipc	s2,0x33
   16ed8:	cf493903          	ld	s2,-780(s2) # 49bc8 <_ZSt4cout@Base>
   16edc:	00093783          	ld	a5,0(s2)
   16ee0:	fe87b783          	ld	a5,-24(a5) # 37ffffe8 <__global_pointer$+0x37fb5258>
   16ee4:	00f907b3          	add	a5,s2,a5
   16ee8:	0f07b983          	ld	s3,240(a5)
   16eec:	2c098e63          	beqz	s3,171c8 <_ZN19UnaryTestAbs_v_Test8TestBodyEv+0x430>
   16ef0:	0389c783          	lbu	a5,56(s3)
   16ef4:	1c078a63          	beqz	a5,170c8 <_ZN19UnaryTestAbs_v_Test8TestBodyEv+0x330>
   16ef8:	0439c583          	lbu	a1,67(s3)
   16efc:	00033517          	auipc	a0,0x33
   16f00:	ccc53503          	ld	a0,-820(a0) # 49bc8 <_ZSt4cout@Base>
   16f04:	94dfe0ef          	jal	15850 <_ZNSo3putEc@plt>
   16f08:	ca9fe0ef          	jal	15bb0 <_ZNSo5flushEv@plt>
   16f0c:	00011787          	flh	fa5,0(sp)
   16f10:	000085b7          	lui	a1,0x8
   16f14:	47800637          	lui	a2,0x47800
   16f18:	402787d3          	fcvt.s.h	fa5,fa5
   16f1c:	c00797d3          	fcvt.w.s	a5,fa5,rtz
   16f20:	d007f7d3          	fcvt.s.w	fa5,a5
   16f24:	e0078753          	fmv.x.w	a4,fa5
   16f28:	02171693          	slli	a3,a4,0x21
   16f2c:	0216d693          	srli	a3,a3,0x21
   16f30:	0107571b          	srliw	a4,a4,0x10
   16f34:	00b77733          	and	a4,a4,a1
   16f38:	12c6e663          	bltu	a3,a2,17064 <_ZN19UnaryTestAbs_v_Test8TestBodyEv+0x2cc>
   16f3c:	7f8007b7          	lui	a5,0x7f800
   16f40:	1ed7f463          	bgeu	a5,a3,17128 <_ZN19UnaryTestAbs_v_Test8TestBodyEv+0x390>
   16f44:	e0058793          	addi	a5,a1,-512 # 7e00 <__abi_tag-0x8494>
   16f48:	00f76733          	or	a4,a4,a5
   16f4c:	7fc007b7          	lui	a5,0x7fc00
   16f50:	800006b7          	lui	a3,0x80000
   16f54:	0107171b          	slliw	a4,a4,0x10
   16f58:	00d77733          	and	a4,a4,a3
   16f5c:	00f76733          	or	a4,a4,a5
   16f60:	f00707d3          	fmv.w.x	fa5,a4
   16f64:	00048513          	mv	a0,s1
   16f68:	00021697          	auipc	a3,0x21
   16f6c:	b7068693          	addi	a3,a3,-1168 # 37ad8 <_IO_stdin_used+0x30>
   16f70:	420787d3          	fcvt.d.s	fa5,fa5
   16f74:	03a00613          	li	a2,58
   16f78:	00033597          	auipc	a1,0x33
   16f7c:	d785b583          	ld	a1,-648(a1) # 49cf0 <vsnprintf@GLIBC_2.27>
   16f80:	e2078753          	fmv.x.d	a4,fa5
   16f84:	e6cff0ef          	jal	165f0 <_ZN9__gnu_cxx12__to_xstringINSt7__cxx1112basic_stringIcSt11char_traitsIcESaIcEEEcEET_PFiPT0_mPKS8_PvEmSB_z>
   16f88:	01813603          	ld	a2,24(sp)
   16f8c:	01013583          	ld	a1,16(sp)
   16f90:	00033517          	auipc	a0,0x33
   16f94:	c3853503          	ld	a0,-968(a0) # 49bc8 <_ZSt4cout@Base>
   16f98:	e98fe0ef          	jal	15630 <_ZSt16__ostream_insertIcSt11char_traitsIcEERSt13basic_ostreamIT_T0_ES6_PKS3_l@plt>
   16f9c:	01013503          	ld	a0,16(sp)
   16fa0:	00850863          	beq	a0,s0,16fb0 <_ZN19UnaryTestAbs_v_Test8TestBodyEv+0x218>
   16fa4:	02013583          	ld	a1,32(sp)
   16fa8:	00158593          	addi	a1,a1,1
   16fac:	ec4fe0ef          	jal	15670 <_ZdlPvm@plt>
   16fb0:	00093783          	ld	a5,0(s2)
   16fb4:	fe87b783          	ld	a5,-24(a5) # 7fbfffe8 <__global_pointer$+0x7fbb5258>
   16fb8:	00f90933          	add	s2,s2,a5
   16fbc:	0f093403          	ld	s0,240(s2)
   16fc0:	20040463          	beqz	s0,171c8 <_ZN19UnaryTestAbs_v_Test8TestBodyEv+0x430>
   16fc4:	03844783          	lbu	a5,56(s0)
   16fc8:	12078863          	beqz	a5,170f8 <_ZN19UnaryTestAbs_v_Test8TestBodyEv+0x360>
   16fcc:	04344583          	lbu	a1,67(s0)
   16fd0:	00033517          	auipc	a0,0x33
   16fd4:	bf853503          	ld	a0,-1032(a0) # 49bc8 <_ZSt4cout@Base>
   16fd8:	879fe0ef          	jal	15850 <_ZNSo3putEc@plt>
   16fdc:	05013403          	ld	s0,80(sp)
   16fe0:	05813083          	ld	ra,88(sp)
   16fe4:	04813483          	ld	s1,72(sp)
   16fe8:	04013903          	ld	s2,64(sp)
   16fec:	03813983          	ld	s3,56(sp)
   16ff0:	06010113          	addi	sp,sp,96
   16ff4:	bbdfe06f          	j	15bb0 <_ZNSo5flushEv@plt>
   16ff8:	00021797          	auipc	a5,0x21
   16ffc:	ac47a787          	flw	fa5,-1340(a5) # 37abc <_IO_stdin_used+0x14>
   17000:	f0068753          	fmv.w.x	fa4,a3
   17004:	0f8005b7          	lui	a1,0xf800
   17008:	0fffe537          	lui	a0,0xfffe
   1700c:	00f777d3          	fadd.s	fa5,fa4,fa5
   17010:	e00786d3          	fmv.x.w	a3,fa5
   17014:	00d76733          	or	a4,a4,a3
   17018:	0107171b          	slliw	a4,a4,0x10
   1701c:	0107571b          	srliw	a4,a4,0x10
   17020:	00d7179b          	slliw	a5,a4,0xd
   17024:	00b7f6b3          	and	a3,a5,a1
   17028:	00a7f7b3          	and	a5,a5,a0
   1702c:	16b68c63          	beq	a3,a1,171a4 <_ZN19UnaryTestAbs_v_Test8TestBodyEv+0x40c>
   17030:	14069e63          	bnez	a3,1718c <_ZN19UnaryTestAbs_v_Test8TestBodyEv+0x3f4>
   17034:	00c787bb          	addw	a5,a5,a2
   17038:	f0078753          	fmv.w.x	fa4,a5
   1703c:	00021697          	auipc	a3,0x21
   17040:	a746a787          	flw	fa5,-1420(a3) # 37ab0 <_IO_stdin_used+0x8>
   17044:	08f777d3          	fsub.s	fa5,fa4,fa5
   17048:	e00787d3          	fmv.x.w	a5,fa5
   1704c:	0007879b          	sext.w	a5,a5
   17050:	e1dff06f          	j	16e6c <_ZN19UnaryTestAbs_v_Test8TestBodyEv+0xd4>
   17054:	000086b7          	lui	a3,0x8
   17058:	c0068693          	addi	a3,a3,-1024 # 7c00 <__abi_tag-0x8694>
   1705c:	00d76733          	or	a4,a4,a3
   17060:	e0dff06f          	j	16e6c <_ZN19UnaryTestAbs_v_Test8TestBodyEv+0xd4>
   17064:	38800637          	lui	a2,0x38800
   17068:	0cc6f863          	bgeu	a3,a2,17138 <_ZN19UnaryTestAbs_v_Test8TestBodyEv+0x3a0>
   1706c:	00021797          	auipc	a5,0x21
   17070:	a507a787          	flw	fa5,-1456(a5) # 37abc <_IO_stdin_used+0x14>
   17074:	f0068753          	fmv.w.x	fa4,a3
   17078:	0f8005b7          	lui	a1,0xf800
   1707c:	0fffe537          	lui	a0,0xfffe
   17080:	00f777d3          	fadd.s	fa5,fa4,fa5
   17084:	e00786d3          	fmv.x.w	a3,fa5
   17088:	00d76733          	or	a4,a4,a3
   1708c:	0107171b          	slliw	a4,a4,0x10
   17090:	0107571b          	srliw	a4,a4,0x10
   17094:	00d7179b          	slliw	a5,a4,0xd
   17098:	00b7f6b3          	and	a3,a5,a1
   1709c:	00a7f7b3          	and	a5,a5,a0
   170a0:	10b68e63          	beq	a3,a1,171bc <_ZN19UnaryTestAbs_v_Test8TestBodyEv+0x424>
   170a4:	0e069a63          	bnez	a3,17198 <_ZN19UnaryTestAbs_v_Test8TestBodyEv+0x400>
   170a8:	00c787bb          	addw	a5,a5,a2
   170ac:	f0078753          	fmv.w.x	fa4,a5
   170b0:	00021697          	auipc	a3,0x21
   170b4:	a006a787          	flw	fa5,-1536(a3) # 37ab0 <_IO_stdin_used+0x8>
   170b8:	08f777d3          	fsub.s	fa5,fa4,fa5
   170bc:	e00787d3          	fmv.x.w	a5,fa5
   170c0:	0007879b          	sext.w	a5,a5
   170c4:	e8dff06f          	j	16f50 <_ZN19UnaryTestAbs_v_Test8TestBodyEv+0x1b8>
   170c8:	00098513          	mv	a0,s3
   170cc:	c74fe0ef          	jal	15540 <_ZNKSt5ctypeIcE13_M_widen_initEv@plt>
   170d0:	0009b783          	ld	a5,0(s3)
   170d4:	fffff717          	auipc	a4,0xfffff
   170d8:	44070713          	addi	a4,a4,1088 # 16514 <_ZNKSt5ctypeIcE8do_widenEc>
   170dc:	00a00593          	li	a1,10
   170e0:	0307b783          	ld	a5,48(a5)
   170e4:	e0e78ce3          	beq	a5,a4,16efc <_ZN19UnaryTestAbs_v_Test8TestBodyEv+0x164>
   170e8:	00098513          	mv	a0,s3
   170ec:	000780e7          	jalr	a5
   170f0:	00050593          	mv	a1,a0
   170f4:	e09ff06f          	j	16efc <_ZN19UnaryTestAbs_v_Test8TestBodyEv+0x164>
   170f8:	00040513          	mv	a0,s0
   170fc:	c44fe0ef          	jal	15540 <_ZNKSt5ctypeIcE13_M_widen_initEv@plt>
   17100:	00043783          	ld	a5,0(s0)
   17104:	fffff717          	auipc	a4,0xfffff
   17108:	41070713          	addi	a4,a4,1040 # 16514 <_ZNKSt5ctypeIcE8do_widenEc>
   1710c:	00a00593          	li	a1,10
   17110:	0307b783          	ld	a5,48(a5)
   17114:	eae78ee3          	beq	a5,a4,16fd0 <_ZN19UnaryTestAbs_v_Test8TestBodyEv+0x238>
   17118:	00040513          	mv	a0,s0
   1711c:	000780e7          	jalr	a5
   17120:	00050593          	mv	a1,a0
   17124:	eadff06f          	j	16fd0 <_ZN19UnaryTestAbs_v_Test8TestBodyEv+0x238>
   17128:	000086b7          	lui	a3,0x8
   1712c:	c0068693          	addi	a3,a3,-1024 # 7c00 <__abi_tag-0x8694>
   17130:	00d76733          	or	a4,a4,a3
   17134:	e1dff06f          	j	16f50 <_ZN19UnaryTestAbs_v_Test8TestBodyEv+0x1b8>
   17138:	c8001637          	lui	a2,0xc8001
   1713c:	fff6061b          	addiw	a2,a2,-1 # ffffffffc8000fff <__global_pointer$+0xffffffffc7fb626f>
   17140:	00d6d79b          	srliw	a5,a3,0xd
   17144:	0017f793          	andi	a5,a5,1
   17148:	00c686bb          	addw	a3,a3,a2
   1714c:	00f686bb          	addw	a3,a3,a5
   17150:	00d6d69b          	srliw	a3,a3,0xd
   17154:	00d76733          	or	a4,a4,a3
   17158:	0107171b          	slliw	a4,a4,0x10
   1715c:	0107571b          	srliw	a4,a4,0x10
   17160:	00d7169b          	slliw	a3,a4,0xd
   17164:	0fffe637          	lui	a2,0xfffe
   17168:	0f8005b7          	lui	a1,0xf800
   1716c:	00c6f633          	and	a2,a3,a2
   17170:	380007b7          	lui	a5,0x38000
   17174:	00b6f6b3          	and	a3,a3,a1
   17178:	00f607bb          	addw	a5,a2,a5
   1717c:	dcb69ae3          	bne	a3,a1,16f50 <_ZN19UnaryTestAbs_v_Test8TestBodyEv+0x1b8>
   17180:	700007b7          	lui	a5,0x70000
   17184:	00f607bb          	addw	a5,a2,a5
   17188:	dc9ff06f          	j	16f50 <_ZN19UnaryTestAbs_v_Test8TestBodyEv+0x1b8>
   1718c:	380006b7          	lui	a3,0x38000
   17190:	00d787bb          	addw	a5,a5,a3
   17194:	cd9ff06f          	j	16e6c <_ZN19UnaryTestAbs_v_Test8TestBodyEv+0xd4>
   17198:	380006b7          	lui	a3,0x38000
   1719c:	00d787bb          	addw	a5,a5,a3
   171a0:	db1ff06f          	j	16f50 <_ZN19UnaryTestAbs_v_Test8TestBodyEv+0x1b8>
   171a4:	700006b7          	lui	a3,0x70000
   171a8:	00d787bb          	addw	a5,a5,a3
   171ac:	cc1ff06f          	j	16e6c <_ZN19UnaryTestAbs_v_Test8TestBodyEv+0xd4>
   171b0:	700007b7          	lui	a5,0x70000
   171b4:	00f607bb          	addw	a5,a2,a5
   171b8:	cb5ff06f          	j	16e6c <_ZN19UnaryTestAbs_v_Test8TestBodyEv+0xd4>
   171bc:	700006b7          	lui	a3,0x70000
   171c0:	00d787bb          	addw	a5,a5,a3
   171c4:	d8dff06f          	j	16f50 <_ZN19UnaryTestAbs_v_Test8TestBodyEv+0x1b8>
   171c8:	d08fe0ef          	jal	156d0 <_ZSt16__throw_bad_castv@plt>

00000000000171cc <_ZN7testing4Test5SetUpEv>:
   171cc:	8082                	ret

00000000000171ce <_ZNK7testing9TestSuite30reportable_disabled_test_countEv>:
   171ce:	791c                	ld	a5,48(a0)
   171d0:	7d10                	ld	a2,56(a0)
   171d2:	4501                	li	a0,0
   171d4:	02c78063          	beq	a5,a2,171f4 <_ZNK7testing9TestSuite30reportable_disabled_test_countEv+0x26>
   171d8:	6398                	ld	a4,0(a5)
   171da:	07a1                	addi	a5,a5,8 # 70000008 <__global_pointer$+0x6ffb5278>
   171dc:	08274683          	lbu	a3,130(a4)
   171e0:	c699                	beqz	a3,171ee <_ZNK7testing9TestSuite30reportable_disabled_test_countEv+0x20>
   171e2:	08374683          	lbu	a3,131(a4)
   171e6:	e681                	bnez	a3,171ee <_ZNK7testing9TestSuite30reportable_disabled_test_countEv+0x20>
   171e8:	08174703          	lbu	a4,129(a4)
   171ec:	9d39                	addw	a0,a0,a4
   171ee:	fef615e3          	bne	a2,a5,171d8 <_ZNK7testing9TestSuite30reportable_disabled_test_countEv+0xa>
   171f2:	8082                	ret
   171f4:	8082                	ret

00000000000171f6 <_ZNK7testing9TestSuite21reportable_test_countEv>:
   171f6:	791c                	ld	a5,48(a0)
   171f8:	7d10                	ld	a2,56(a0)
   171fa:	4501                	li	a0,0
   171fc:	00c78e63          	beq	a5,a2,17218 <_ZNK7testing9TestSuite21reportable_test_countEv+0x22>
   17200:	6398                	ld	a4,0(a5)
   17202:	07a1                	addi	a5,a5,8
   17204:	08274683          	lbu	a3,130(a4)
   17208:	c689                	beqz	a3,17212 <_ZNK7testing9TestSuite21reportable_test_countEv+0x1c>
   1720a:	08374703          	lbu	a4,131(a4)
   1720e:	e311                	bnez	a4,17212 <_ZNK7testing9TestSuite21reportable_test_countEv+0x1c>
   17210:	2505                	addiw	a0,a0,1 # fffe001 <__global_pointer$+0xffb3271>
   17212:	fef617e3          	bne	a2,a5,17200 <_ZNK7testing9TestSuite21reportable_test_countEv+0xa>
   17216:	8082                	ret
   17218:	8082                	ret

000000000001721a <_ZNK7testing9TestSuite16total_test_countEv>:
   1721a:	7d1c                	ld	a5,56(a0)
   1721c:	7918                	ld	a4,48(a0)
   1721e:	40e78533          	sub	a0,a5,a4
   17222:	850d                	srai	a0,a0,0x3
   17224:	2501                	sext.w	a0,a0
   17226:	8082                	ret

0000000000017228 <_ZN7testing8internalL21StackLowerThanAddressEPKvPb>:
   17228:	1141                	addi	sp,sp,-16
   1722a:	007c                	addi	a5,sp,12
   1722c:	00a7b7b3          	sltu	a5,a5,a0
   17230:	00f58023          	sb	a5,0(a1) # f800000 <__global_pointer$+0xf7b5270>
   17234:	0141                	addi	sp,sp,16
   17236:	8082                	ret

0000000000017238 <_ZN7testing8internal24HasNewFatalFailureHelper20ReportTestPartResultERKNS_14TestPartResultE>:
   17238:	4198                	lw	a4,0(a1)
   1723a:	4789                	li	a5,2
   1723c:	00f71563          	bne	a4,a5,17246 <_ZN7testing8internal24HasNewFatalFailureHelper20ReportTestPartResultERKNS_14TestPartResultE+0xe>
   17240:	4785                	li	a5,1
   17242:	00f50423          	sb	a5,8(a0)
   17246:	6908                	ld	a0,16(a0)
   17248:	611c                	ld	a5,0(a0)
   1724a:	6b9c                	ld	a5,16(a5)
   1724c:	8782                	jr	a5

000000000001724e <_ZN7testing8internal17TestEventRepeaterD1Ev>:
   1724e:	1101                	addi	sp,sp,-32
   17250:	e822                	sd	s0,16(sp)
   17252:	e426                	sd	s1,8(sp)
   17254:	00033797          	auipc	a5,0x33
   17258:	adc7b783          	ld	a5,-1316(a5) # 49d30 <_GLOBAL_OFFSET_TABLE_+0x1e0>
   1725c:	6900                	ld	s0,16(a0)
   1725e:	6d04                	ld	s1,24(a0)
   17260:	ec06                	sd	ra,24(sp)
   17262:	07c1                	addi	a5,a5,16
   17264:	e11c                	sd	a5,0(a0)
   17266:	02940063          	beq	s0,s1,17286 <_ZN7testing8internal17TestEventRepeaterD1Ev+0x38>
   1726a:	e04a                	sd	s2,0(sp)
   1726c:	892a                	mv	s2,a0
   1726e:	601c                	ld	a5,0(s0)
   17270:	853e                	mv	a0,a5
   17272:	c781                	beqz	a5,1727a <_ZN7testing8internal17TestEventRepeaterD1Ev+0x2c>
   17274:	639c                	ld	a5,0(a5)
   17276:	679c                	ld	a5,8(a5)
   17278:	9782                	jalr	a5
   1727a:	0421                	addi	s0,s0,8
   1727c:	fe8499e3          	bne	s1,s0,1726e <_ZN7testing8internal17TestEventRepeaterD1Ev+0x20>
   17280:	01093483          	ld	s1,16(s2)
   17284:	6902                	ld	s2,0(sp)
   17286:	c881                	beqz	s1,17296 <_ZN7testing8internal17TestEventRepeaterD1Ev+0x48>
   17288:	6442                	ld	s0,16(sp)
   1728a:	60e2                	ld	ra,24(sp)
   1728c:	8526                	mv	a0,s1
   1728e:	64a2                	ld	s1,8(sp)
   17290:	6105                	addi	sp,sp,32
   17292:	d9efe06f          	j	15830 <_ZdlPv@plt>
   17296:	60e2                	ld	ra,24(sp)
   17298:	6442                	ld	s0,16(sp)
   1729a:	64a2                	ld	s1,8(sp)
   1729c:	6105                	addi	sp,sp,32
   1729e:	8082                	ret

00000000000172a0 <_ZN7testing8internal17TestEventRepeaterD0Ev>:
   172a0:	1141                	addi	sp,sp,-16
   172a2:	e022                	sd	s0,0(sp)
   172a4:	e406                	sd	ra,8(sp)
   172a6:	842a                	mv	s0,a0
   172a8:	fa7ff0ef          	jal	1724e <_ZN7testing8internal17TestEventRepeaterD1Ev>
   172ac:	8522                	mv	a0,s0
   172ae:	6402                	ld	s0,0(sp)
   172b0:	60a2                	ld	ra,8(sp)
   172b2:	0141                	addi	sp,sp,16
   172b4:	d7cfe06f          	j	15830 <_ZdlPv@plt>

00000000000172b8 <_ZN7testing8internal17TestEventRepeater18OnTestProgramStartERKNS_8UnitTestE>:
   172b8:	00854783          	lbu	a5,8(a0)
   172bc:	c3b1                	beqz	a5,17300 <_ZN7testing8internal17TestEventRepeater18OnTestProgramStartERKNS_8UnitTestE+0x48>
   172be:	6918                	ld	a4,16(a0)
   172c0:	6d1c                	ld	a5,24(a0)
   172c2:	1101                	addi	sp,sp,-32
   172c4:	e426                	sd	s1,8(sp)
   172c6:	ec06                	sd	ra,24(sp)
   172c8:	84aa                	mv	s1,a0
   172ca:	02e78763          	beq	a5,a4,172f8 <_ZN7testing8internal17TestEventRepeater18OnTestProgramStartERKNS_8UnitTestE+0x40>
   172ce:	e822                	sd	s0,16(sp)
   172d0:	e04a                	sd	s2,0(sp)
   172d2:	4401                	li	s0,0
   172d4:	892e                	mv	s2,a1
   172d6:	00341793          	slli	a5,s0,0x3
   172da:	973e                	add	a4,a4,a5
   172dc:	6308                	ld	a0,0(a4)
   172de:	85ca                	mv	a1,s2
   172e0:	0405                	addi	s0,s0,1
   172e2:	611c                	ld	a5,0(a0)
   172e4:	6b9c                	ld	a5,16(a5)
   172e6:	9782                	jalr	a5
   172e8:	6898                	ld	a4,16(s1)
   172ea:	6c9c                	ld	a5,24(s1)
   172ec:	8f99                	sub	a5,a5,a4
   172ee:	878d                	srai	a5,a5,0x3
   172f0:	fef463e3          	bltu	s0,a5,172d6 <_ZN7testing8internal17TestEventRepeater18OnTestProgramStartERKNS_8UnitTestE+0x1e>
   172f4:	6442                	ld	s0,16(sp)
   172f6:	6902                	ld	s2,0(sp)
   172f8:	60e2                	ld	ra,24(sp)
   172fa:	64a2                	ld	s1,8(sp)
   172fc:	6105                	addi	sp,sp,32
   172fe:	8082                	ret
   17300:	8082                	ret

0000000000017302 <_ZN7testing8internal17TestEventRepeater24OnEnvironmentsSetUpStartERKNS_8UnitTestE>:
   17302:	00854783          	lbu	a5,8(a0)
   17306:	c3b1                	beqz	a5,1734a <_ZN7testing8internal17TestEventRepeater24OnEnvironmentsSetUpStartERKNS_8UnitTestE+0x48>
   17308:	6918                	ld	a4,16(a0)
   1730a:	6d1c                	ld	a5,24(a0)
   1730c:	1101                	addi	sp,sp,-32
   1730e:	e426                	sd	s1,8(sp)
   17310:	ec06                	sd	ra,24(sp)
   17312:	84aa                	mv	s1,a0
   17314:	02e78763          	beq	a5,a4,17342 <_ZN7testing8internal17TestEventRepeater24OnEnvironmentsSetUpStartERKNS_8UnitTestE+0x40>
   17318:	e822                	sd	s0,16(sp)
   1731a:	e04a                	sd	s2,0(sp)
   1731c:	4401                	li	s0,0
   1731e:	892e                	mv	s2,a1
   17320:	00341793          	slli	a5,s0,0x3
   17324:	973e                	add	a4,a4,a5
   17326:	6308                	ld	a0,0(a4)
   17328:	85ca                	mv	a1,s2
   1732a:	0405                	addi	s0,s0,1
   1732c:	611c                	ld	a5,0(a0)
   1732e:	739c                	ld	a5,32(a5)
   17330:	9782                	jalr	a5
   17332:	6898                	ld	a4,16(s1)
   17334:	6c9c                	ld	a5,24(s1)
   17336:	8f99                	sub	a5,a5,a4
   17338:	878d                	srai	a5,a5,0x3
   1733a:	fef463e3          	bltu	s0,a5,17320 <_ZN7testing8internal17TestEventRepeater24OnEnvironmentsSetUpStartERKNS_8UnitTestE+0x1e>
   1733e:	6442                	ld	s0,16(sp)
   17340:	6902                	ld	s2,0(sp)
   17342:	60e2                	ld	ra,24(sp)
   17344:	64a2                	ld	s1,8(sp)
   17346:	6105                	addi	sp,sp,32
   17348:	8082                	ret
   1734a:	8082                	ret

000000000001734c <_ZN7testing8internal17TestEventRepeater15OnTestCaseStartERKNS_9TestSuiteE>:
   1734c:	00854783          	lbu	a5,8(a0)
   17350:	c3b1                	beqz	a5,17394 <_ZN7testing8internal17TestEventRepeater15OnTestCaseStartERKNS_9TestSuiteE+0x48>
   17352:	6918                	ld	a4,16(a0)
   17354:	6d1c                	ld	a5,24(a0)
   17356:	1101                	addi	sp,sp,-32
   17358:	e426                	sd	s1,8(sp)
   1735a:	ec06                	sd	ra,24(sp)
   1735c:	84aa                	mv	s1,a0
   1735e:	02e78763          	beq	a5,a4,1738c <_ZN7testing8internal17TestEventRepeater15OnTestCaseStartERKNS_9TestSuiteE+0x40>
   17362:	e822                	sd	s0,16(sp)
   17364:	e04a                	sd	s2,0(sp)
   17366:	4401                	li	s0,0
   17368:	892e                	mv	s2,a1
   1736a:	00341793          	slli	a5,s0,0x3
   1736e:	973e                	add	a4,a4,a5
   17370:	6308                	ld	a0,0(a4)
   17372:	85ca                	mv	a1,s2
   17374:	0405                	addi	s0,s0,1
   17376:	611c                	ld	a5,0(a0)
   17378:	7f9c                	ld	a5,56(a5)
   1737a:	9782                	jalr	a5
   1737c:	6898                	ld	a4,16(s1)
   1737e:	6c9c                	ld	a5,24(s1)
   17380:	8f99                	sub	a5,a5,a4
   17382:	878d                	srai	a5,a5,0x3
   17384:	fef463e3          	bltu	s0,a5,1736a <_ZN7testing8internal17TestEventRepeater15OnTestCaseStartERKNS_9TestSuiteE+0x1e>
   17388:	6442                	ld	s0,16(sp)
   1738a:	6902                	ld	s2,0(sp)
   1738c:	60e2                	ld	ra,24(sp)
   1738e:	64a2                	ld	s1,8(sp)
   17390:	6105                	addi	sp,sp,32
   17392:	8082                	ret
   17394:	8082                	ret

0000000000017396 <_ZN7testing8internal17TestEventRepeater16OnTestSuiteStartERKNS_9TestSuiteE>:
   17396:	00854783          	lbu	a5,8(a0)
   1739a:	c3b1                	beqz	a5,173de <_ZN7testing8internal17TestEventRepeater16OnTestSuiteStartERKNS_9TestSuiteE+0x48>
   1739c:	6918                	ld	a4,16(a0)
   1739e:	6d1c                	ld	a5,24(a0)
   173a0:	1101                	addi	sp,sp,-32
   173a2:	e426                	sd	s1,8(sp)
   173a4:	ec06                	sd	ra,24(sp)
   173a6:	84aa                	mv	s1,a0
   173a8:	02e78763          	beq	a5,a4,173d6 <_ZN7testing8internal17TestEventRepeater16OnTestSuiteStartERKNS_9TestSuiteE+0x40>
   173ac:	e822                	sd	s0,16(sp)
   173ae:	e04a                	sd	s2,0(sp)
   173b0:	4401                	li	s0,0
   173b2:	892e                	mv	s2,a1
   173b4:	00341793          	slli	a5,s0,0x3
   173b8:	973e                	add	a4,a4,a5
   173ba:	6308                	ld	a0,0(a4)
   173bc:	85ca                	mv	a1,s2
   173be:	0405                	addi	s0,s0,1
   173c0:	611c                	ld	a5,0(a0)
   173c2:	7b9c                	ld	a5,48(a5)
   173c4:	9782                	jalr	a5
   173c6:	6898                	ld	a4,16(s1)
   173c8:	6c9c                	ld	a5,24(s1)
   173ca:	8f99                	sub	a5,a5,a4
   173cc:	878d                	srai	a5,a5,0x3
   173ce:	fef463e3          	bltu	s0,a5,173b4 <_ZN7testing8internal17TestEventRepeater16OnTestSuiteStartERKNS_9TestSuiteE+0x1e>
   173d2:	6442                	ld	s0,16(sp)
   173d4:	6902                	ld	s2,0(sp)
   173d6:	60e2                	ld	ra,24(sp)
   173d8:	64a2                	ld	s1,8(sp)
   173da:	6105                	addi	sp,sp,32
   173dc:	8082                	ret
   173de:	8082                	ret

00000000000173e0 <_ZN7testing8internal17TestEventRepeater11OnTestStartERKNS_8TestInfoE>:
   173e0:	00854783          	lbu	a5,8(a0)
   173e4:	c3b1                	beqz	a5,17428 <_ZN7testing8internal17TestEventRepeater11OnTestStartERKNS_8TestInfoE+0x48>
   173e6:	6918                	ld	a4,16(a0)
   173e8:	6d1c                	ld	a5,24(a0)
   173ea:	1101                	addi	sp,sp,-32
   173ec:	e426                	sd	s1,8(sp)
   173ee:	ec06                	sd	ra,24(sp)
   173f0:	84aa                	mv	s1,a0
   173f2:	02e78763          	beq	a5,a4,17420 <_ZN7testing8internal17TestEventRepeater11OnTestStartERKNS_8TestInfoE+0x40>
   173f6:	e822                	sd	s0,16(sp)
   173f8:	e04a                	sd	s2,0(sp)
   173fa:	4401                	li	s0,0
   173fc:	892e                	mv	s2,a1
   173fe:	00341793          	slli	a5,s0,0x3
   17402:	973e                	add	a4,a4,a5
   17404:	6308                	ld	a0,0(a4)
   17406:	85ca                	mv	a1,s2
   17408:	0405                	addi	s0,s0,1
   1740a:	611c                	ld	a5,0(a0)
   1740c:	63bc                	ld	a5,64(a5)
   1740e:	9782                	jalr	a5
   17410:	6898                	ld	a4,16(s1)
   17412:	6c9c                	ld	a5,24(s1)
   17414:	8f99                	sub	a5,a5,a4
   17416:	878d                	srai	a5,a5,0x3
   17418:	fef463e3          	bltu	s0,a5,173fe <_ZN7testing8internal17TestEventRepeater11OnTestStartERKNS_8TestInfoE+0x1e>
   1741c:	6442                	ld	s0,16(sp)
   1741e:	6902                	ld	s2,0(sp)
   17420:	60e2                	ld	ra,24(sp)
   17422:	64a2                	ld	s1,8(sp)
   17424:	6105                	addi	sp,sp,32
   17426:	8082                	ret
   17428:	8082                	ret

000000000001742a <_ZN7testing8internal17TestEventRepeater16OnTestPartResultERKNS_14TestPartResultE>:
   1742a:	00854783          	lbu	a5,8(a0)
   1742e:	c3b1                	beqz	a5,17472 <_ZN7testing8internal17TestEventRepeater16OnTestPartResultERKNS_14TestPartResultE+0x48>
   17430:	6918                	ld	a4,16(a0)
   17432:	6d1c                	ld	a5,24(a0)
   17434:	1101                	addi	sp,sp,-32
   17436:	e426                	sd	s1,8(sp)
   17438:	ec06                	sd	ra,24(sp)
   1743a:	84aa                	mv	s1,a0
   1743c:	02e78763          	beq	a5,a4,1746a <_ZN7testing8internal17TestEventRepeater16OnTestPartResultERKNS_14TestPartResultE+0x40>
   17440:	e822                	sd	s0,16(sp)
   17442:	e04a                	sd	s2,0(sp)
   17444:	4401                	li	s0,0
   17446:	892e                	mv	s2,a1
   17448:	00341793          	slli	a5,s0,0x3
   1744c:	973e                	add	a4,a4,a5
   1744e:	6308                	ld	a0,0(a4)
   17450:	85ca                	mv	a1,s2
   17452:	0405                	addi	s0,s0,1
   17454:	611c                	ld	a5,0(a0)
   17456:	67bc                	ld	a5,72(a5)
   17458:	9782                	jalr	a5
   1745a:	6898                	ld	a4,16(s1)
   1745c:	6c9c                	ld	a5,24(s1)
   1745e:	8f99                	sub	a5,a5,a4
   17460:	878d                	srai	a5,a5,0x3
   17462:	fef463e3          	bltu	s0,a5,17448 <_ZN7testing8internal17TestEventRepeater16OnTestPartResultERKNS_14TestPartResultE+0x1e>
   17466:	6442                	ld	s0,16(sp)
   17468:	6902                	ld	s2,0(sp)
   1746a:	60e2                	ld	ra,24(sp)
   1746c:	64a2                	ld	s1,8(sp)
   1746e:	6105                	addi	sp,sp,32
   17470:	8082                	ret
   17472:	8082                	ret

0000000000017474 <_ZN7testing8internal17TestEventRepeater27OnEnvironmentsTearDownStartERKNS_8UnitTestE>:
   17474:	00854783          	lbu	a5,8(a0)
   17478:	c3b1                	beqz	a5,174bc <_ZN7testing8internal17TestEventRepeater27OnEnvironmentsTearDownStartERKNS_8UnitTestE+0x48>
   1747a:	6918                	ld	a4,16(a0)
   1747c:	6d1c                	ld	a5,24(a0)
   1747e:	1101                	addi	sp,sp,-32
   17480:	e426                	sd	s1,8(sp)
   17482:	ec06                	sd	ra,24(sp)
   17484:	84aa                	mv	s1,a0
   17486:	02e78763          	beq	a5,a4,174b4 <_ZN7testing8internal17TestEventRepeater27OnEnvironmentsTearDownStartERKNS_8UnitTestE+0x40>
   1748a:	e822                	sd	s0,16(sp)
   1748c:	e04a                	sd	s2,0(sp)
   1748e:	4401                	li	s0,0
   17490:	892e                	mv	s2,a1
   17492:	00341793          	slli	a5,s0,0x3
   17496:	973e                	add	a4,a4,a5
   17498:	6308                	ld	a0,0(a4)
   1749a:	85ca                	mv	a1,s2
   1749c:	0405                	addi	s0,s0,1
   1749e:	611c                	ld	a5,0(a0)
   174a0:	77bc                	ld	a5,104(a5)
   174a2:	9782                	jalr	a5
   174a4:	6898                	ld	a4,16(s1)
   174a6:	6c9c                	ld	a5,24(s1)
   174a8:	8f99                	sub	a5,a5,a4
   174aa:	878d                	srai	a5,a5,0x3
   174ac:	fef463e3          	bltu	s0,a5,17492 <_ZN7testing8internal17TestEventRepeater27OnEnvironmentsTearDownStartERKNS_8UnitTestE+0x1e>
   174b0:	6442                	ld	s0,16(sp)
   174b2:	6902                	ld	s2,0(sp)
   174b4:	60e2                	ld	ra,24(sp)
   174b6:	64a2                	ld	s1,8(sp)
   174b8:	6105                	addi	sp,sp,32
   174ba:	8082                	ret
   174bc:	8082                	ret

00000000000174be <_ZN7testing8internal17TestEventRepeater22OnEnvironmentsSetUpEndERKNS_8UnitTestE>:
   174be:	00854783          	lbu	a5,8(a0)
   174c2:	c7a1                	beqz	a5,1750a <_ZN7testing8internal17TestEventRepeater22OnEnvironmentsSetUpEndERKNS_8UnitTestE+0x4c>
   174c4:	1101                	addi	sp,sp,-32
   174c6:	691c                	ld	a5,16(a0)
   174c8:	e822                	sd	s0,16(sp)
   174ca:	6d00                	ld	s0,24(a0)
   174cc:	e426                	sd	s1,8(sp)
   174ce:	e04a                	sd	s2,0(sp)
   174d0:	8c1d                	sub	s0,s0,a5
   174d2:	ec06                	sd	ra,24(sp)
   174d4:	840d                	srai	s0,s0,0x3
   174d6:	84aa                	mv	s1,a0
   174d8:	892e                	mv	s2,a1
   174da:	e801                	bnez	s0,174ea <_ZN7testing8internal17TestEventRepeater22OnEnvironmentsSetUpEndERKNS_8UnitTestE+0x2c>
   174dc:	60e2                	ld	ra,24(sp)
   174de:	6442                	ld	s0,16(sp)
   174e0:	64a2                	ld	s1,8(sp)
   174e2:	6902                	ld	s2,0(sp)
   174e4:	6105                	addi	sp,sp,32
   174e6:	8082                	ret
   174e8:	689c                	ld	a5,16(s1)
   174ea:	147d                	addi	s0,s0,-1
   174ec:	00341713          	slli	a4,s0,0x3
   174f0:	97ba                	add	a5,a5,a4
   174f2:	6388                	ld	a0,0(a5)
   174f4:	85ca                	mv	a1,s2
   174f6:	611c                	ld	a5,0(a0)
   174f8:	779c                	ld	a5,40(a5)
   174fa:	9782                	jalr	a5
   174fc:	f475                	bnez	s0,174e8 <_ZN7testing8internal17TestEventRepeater22OnEnvironmentsSetUpEndERKNS_8UnitTestE+0x2a>
   174fe:	60e2                	ld	ra,24(sp)
   17500:	6442                	ld	s0,16(sp)
   17502:	64a2                	ld	s1,8(sp)
   17504:	6902                	ld	s2,0(sp)
   17506:	6105                	addi	sp,sp,32
   17508:	8082                	ret
   1750a:	8082                	ret

000000000001750c <_ZN7testing8internal17TestEventRepeater25OnEnvironmentsTearDownEndERKNS_8UnitTestE>:
   1750c:	00854783          	lbu	a5,8(a0)
   17510:	c7a1                	beqz	a5,17558 <_ZN7testing8internal17TestEventRepeater25OnEnvironmentsTearDownEndERKNS_8UnitTestE+0x4c>
   17512:	1101                	addi	sp,sp,-32
   17514:	691c                	ld	a5,16(a0)
   17516:	e822                	sd	s0,16(sp)
   17518:	6d00                	ld	s0,24(a0)
   1751a:	e426                	sd	s1,8(sp)
   1751c:	e04a                	sd	s2,0(sp)
   1751e:	8c1d                	sub	s0,s0,a5
   17520:	ec06                	sd	ra,24(sp)
   17522:	840d                	srai	s0,s0,0x3
   17524:	84aa                	mv	s1,a0
   17526:	892e                	mv	s2,a1
   17528:	e801                	bnez	s0,17538 <_ZN7testing8internal17TestEventRepeater25OnEnvironmentsTearDownEndERKNS_8UnitTestE+0x2c>
   1752a:	60e2                	ld	ra,24(sp)
   1752c:	6442                	ld	s0,16(sp)
   1752e:	64a2                	ld	s1,8(sp)
   17530:	6902                	ld	s2,0(sp)
   17532:	6105                	addi	sp,sp,32
   17534:	8082                	ret
   17536:	689c                	ld	a5,16(s1)
   17538:	147d                	addi	s0,s0,-1
   1753a:	00341713          	slli	a4,s0,0x3
   1753e:	97ba                	add	a5,a5,a4
   17540:	6388                	ld	a0,0(a5)
   17542:	85ca                	mv	a1,s2
   17544:	611c                	ld	a5,0(a0)
   17546:	7bbc                	ld	a5,112(a5)
   17548:	9782                	jalr	a5
   1754a:	f475                	bnez	s0,17536 <_ZN7testing8internal17TestEventRepeater25OnEnvironmentsTearDownEndERKNS_8UnitTestE+0x2a>
   1754c:	60e2                	ld	ra,24(sp)
   1754e:	6442                	ld	s0,16(sp)
   17550:	64a2                	ld	s1,8(sp)
   17552:	6902                	ld	s2,0(sp)
   17554:	6105                	addi	sp,sp,32
   17556:	8082                	ret
   17558:	8082                	ret

000000000001755a <_ZN7testing8internal17TestEventRepeater9OnTestEndERKNS_8TestInfoE>:
   1755a:	00854783          	lbu	a5,8(a0)
   1755e:	c7a1                	beqz	a5,175a6 <_ZN7testing8internal17TestEventRepeater9OnTestEndERKNS_8TestInfoE+0x4c>
   17560:	1101                	addi	sp,sp,-32
   17562:	691c                	ld	a5,16(a0)
   17564:	e822                	sd	s0,16(sp)
   17566:	6d00                	ld	s0,24(a0)
   17568:	e426                	sd	s1,8(sp)
   1756a:	e04a                	sd	s2,0(sp)
   1756c:	8c1d                	sub	s0,s0,a5
   1756e:	ec06                	sd	ra,24(sp)
   17570:	840d                	srai	s0,s0,0x3
   17572:	84aa                	mv	s1,a0
   17574:	892e                	mv	s2,a1
   17576:	e801                	bnez	s0,17586 <_ZN7testing8internal17TestEventRepeater9OnTestEndERKNS_8TestInfoE+0x2c>
   17578:	60e2                	ld	ra,24(sp)
   1757a:	6442                	ld	s0,16(sp)
   1757c:	64a2                	ld	s1,8(sp)
   1757e:	6902                	ld	s2,0(sp)
   17580:	6105                	addi	sp,sp,32
   17582:	8082                	ret
   17584:	689c                	ld	a5,16(s1)
   17586:	147d                	addi	s0,s0,-1
   17588:	00341713          	slli	a4,s0,0x3
   1758c:	97ba                	add	a5,a5,a4
   1758e:	6388                	ld	a0,0(a5)
   17590:	85ca                	mv	a1,s2
   17592:	611c                	ld	a5,0(a0)
   17594:	6bbc                	ld	a5,80(a5)
   17596:	9782                	jalr	a5
   17598:	f475                	bnez	s0,17584 <_ZN7testing8internal17TestEventRepeater9OnTestEndERKNS_8TestInfoE+0x2a>
   1759a:	60e2                	ld	ra,24(sp)
   1759c:	6442                	ld	s0,16(sp)
   1759e:	64a2                	ld	s1,8(sp)
   175a0:	6902                	ld	s2,0(sp)
   175a2:	6105                	addi	sp,sp,32
   175a4:	8082                	ret
   175a6:	8082                	ret

00000000000175a8 <_ZN7testing8internal17TestEventRepeater13OnTestCaseEndERKNS_9TestSuiteE>:
   175a8:	00854783          	lbu	a5,8(a0)
   175ac:	c7a1                	beqz	a5,175f4 <_ZN7testing8internal17TestEventRepeater13OnTestCaseEndERKNS_9TestSuiteE+0x4c>
   175ae:	1101                	addi	sp,sp,-32
   175b0:	691c                	ld	a5,16(a0)
   175b2:	e822                	sd	s0,16(sp)
   175b4:	6d00                	ld	s0,24(a0)
   175b6:	e426                	sd	s1,8(sp)
   175b8:	e04a                	sd	s2,0(sp)
   175ba:	8c1d                	sub	s0,s0,a5
   175bc:	ec06                	sd	ra,24(sp)
   175be:	840d                	srai	s0,s0,0x3
   175c0:	84aa                	mv	s1,a0
   175c2:	892e                	mv	s2,a1
   175c4:	e801                	bnez	s0,175d4 <_ZN7testing8internal17TestEventRepeater13OnTestCaseEndERKNS_9TestSuiteE+0x2c>
   175c6:	60e2                	ld	ra,24(sp)
   175c8:	6442                	ld	s0,16(sp)
   175ca:	64a2                	ld	s1,8(sp)
   175cc:	6902                	ld	s2,0(sp)
   175ce:	6105                	addi	sp,sp,32
   175d0:	8082                	ret
   175d2:	689c                	ld	a5,16(s1)
   175d4:	147d                	addi	s0,s0,-1
   175d6:	00341713          	slli	a4,s0,0x3
   175da:	97ba                	add	a5,a5,a4
   175dc:	6388                	ld	a0,0(a5)
   175de:	85ca                	mv	a1,s2
   175e0:	611c                	ld	a5,0(a0)
   175e2:	73bc                	ld	a5,96(a5)
   175e4:	9782                	jalr	a5
   175e6:	f475                	bnez	s0,175d2 <_ZN7testing8internal17TestEventRepeater13OnTestCaseEndERKNS_9TestSuiteE+0x2a>
   175e8:	60e2                	ld	ra,24(sp)
   175ea:	6442                	ld	s0,16(sp)
   175ec:	64a2                	ld	s1,8(sp)
   175ee:	6902                	ld	s2,0(sp)
   175f0:	6105                	addi	sp,sp,32
   175f2:	8082                	ret
   175f4:	8082                	ret

00000000000175f6 <_ZN7testing8internal17TestEventRepeater14OnTestSuiteEndERKNS_9TestSuiteE>:
   175f6:	00854783          	lbu	a5,8(a0)
   175fa:	c7a1                	beqz	a5,17642 <_ZN7testing8internal17TestEventRepeater14OnTestSuiteEndERKNS_9TestSuiteE+0x4c>
   175fc:	1101                	addi	sp,sp,-32
   175fe:	691c                	ld	a5,16(a0)
   17600:	e822                	sd	s0,16(sp)
   17602:	6d00                	ld	s0,24(a0)
   17604:	e426                	sd	s1,8(sp)
   17606:	e04a                	sd	s2,0(sp)
   17608:	8c1d                	sub	s0,s0,a5
   1760a:	ec06                	sd	ra,24(sp)
   1760c:	840d                	srai	s0,s0,0x3
   1760e:	84aa                	mv	s1,a0
   17610:	892e                	mv	s2,a1
   17612:	e801                	bnez	s0,17622 <_ZN7testing8internal17TestEventRepeater14OnTestSuiteEndERKNS_9TestSuiteE+0x2c>
   17614:	60e2                	ld	ra,24(sp)
   17616:	6442                	ld	s0,16(sp)
   17618:	64a2                	ld	s1,8(sp)
   1761a:	6902                	ld	s2,0(sp)
   1761c:	6105                	addi	sp,sp,32
   1761e:	8082                	ret
   17620:	689c                	ld	a5,16(s1)
   17622:	147d                	addi	s0,s0,-1
   17624:	00341713          	slli	a4,s0,0x3
   17628:	97ba                	add	a5,a5,a4
   1762a:	6388                	ld	a0,0(a5)
   1762c:	85ca                	mv	a1,s2
   1762e:	611c                	ld	a5,0(a0)
   17630:	6fbc                	ld	a5,88(a5)
   17632:	9782                	jalr	a5
   17634:	f475                	bnez	s0,17620 <_ZN7testing8internal17TestEventRepeater14OnTestSuiteEndERKNS_9TestSuiteE+0x2a>
   17636:	60e2                	ld	ra,24(sp)
   17638:	6442                	ld	s0,16(sp)
   1763a:	64a2                	ld	s1,8(sp)
   1763c:	6902                	ld	s2,0(sp)
   1763e:	6105                	addi	sp,sp,32
   17640:	8082                	ret
   17642:	8082                	ret

0000000000017644 <_ZN7testing8internal17TestEventRepeater16OnTestProgramEndERKNS_8UnitTestE>:
   17644:	00854783          	lbu	a5,8(a0)
   17648:	c7a1                	beqz	a5,17690 <_ZN7testing8internal17TestEventRepeater16OnTestProgramEndERKNS_8UnitTestE+0x4c>
   1764a:	1101                	addi	sp,sp,-32
   1764c:	691c                	ld	a5,16(a0)
   1764e:	e822                	sd	s0,16(sp)
   17650:	6d00                	ld	s0,24(a0)
   17652:	e426                	sd	s1,8(sp)
   17654:	e04a                	sd	s2,0(sp)
   17656:	8c1d                	sub	s0,s0,a5
   17658:	ec06                	sd	ra,24(sp)
   1765a:	840d                	srai	s0,s0,0x3
   1765c:	84aa                	mv	s1,a0
   1765e:	892e                	mv	s2,a1
   17660:	e801                	bnez	s0,17670 <_ZN7testing8internal17TestEventRepeater16OnTestProgramEndERKNS_8UnitTestE+0x2c>
   17662:	60e2                	ld	ra,24(sp)
   17664:	6442                	ld	s0,16(sp)
   17666:	64a2                	ld	s1,8(sp)
   17668:	6902                	ld	s2,0(sp)
   1766a:	6105                	addi	sp,sp,32
   1766c:	8082                	ret
   1766e:	689c                	ld	a5,16(s1)
   17670:	147d                	addi	s0,s0,-1
   17672:	00341713          	slli	a4,s0,0x3
   17676:	97ba                	add	a5,a5,a4
   17678:	6388                	ld	a0,0(a5)
   1767a:	85ca                	mv	a1,s2
   1767c:	611c                	ld	a5,0(a0)
   1767e:	63dc                	ld	a5,128(a5)
   17680:	9782                	jalr	a5
   17682:	f475                	bnez	s0,1766e <_ZN7testing8internal17TestEventRepeater16OnTestProgramEndERKNS_8UnitTestE+0x2a>
   17684:	60e2                	ld	ra,24(sp)
   17686:	6442                	ld	s0,16(sp)
   17688:	64a2                	ld	s1,8(sp)
   1768a:	6902                	ld	s2,0(sp)
   1768c:	6105                	addi	sp,sp,32
   1768e:	8082                	ret
   17690:	8082                	ret

0000000000017692 <_ZN7testing8internal17TestEventRepeater20OnTestIterationStartERKNS_8UnitTestEi>:
   17692:	00854783          	lbu	a5,8(a0)
   17696:	c7b1                	beqz	a5,176e2 <_ZN7testing8internal17TestEventRepeater20OnTestIterationStartERKNS_8UnitTestEi+0x50>
   17698:	6918                	ld	a4,16(a0)
   1769a:	6d1c                	ld	a5,24(a0)
   1769c:	7179                	addi	sp,sp,-48
   1769e:	ec26                	sd	s1,24(sp)
   176a0:	f406                	sd	ra,40(sp)
   176a2:	84aa                	mv	s1,a0
   176a4:	02e78b63          	beq	a5,a4,176da <_ZN7testing8internal17TestEventRepeater20OnTestIterationStartERKNS_8UnitTestEi+0x48>
   176a8:	f022                	sd	s0,32(sp)
   176aa:	e84a                	sd	s2,16(sp)
   176ac:	e44e                	sd	s3,8(sp)
   176ae:	892e                	mv	s2,a1
   176b0:	89b2                	mv	s3,a2
   176b2:	4401                	li	s0,0
   176b4:	00341793          	slli	a5,s0,0x3
   176b8:	973e                	add	a4,a4,a5
   176ba:	6308                	ld	a0,0(a4)
   176bc:	864e                	mv	a2,s3
   176be:	85ca                	mv	a1,s2
   176c0:	611c                	ld	a5,0(a0)
   176c2:	0405                	addi	s0,s0,1
   176c4:	6f9c                	ld	a5,24(a5)
   176c6:	9782                	jalr	a5
   176c8:	6898                	ld	a4,16(s1)
   176ca:	6c9c                	ld	a5,24(s1)
   176cc:	8f99                	sub	a5,a5,a4
   176ce:	878d                	srai	a5,a5,0x3
   176d0:	fef462e3          	bltu	s0,a5,176b4 <_ZN7testing8internal17TestEventRepeater20OnTestIterationStartERKNS_8UnitTestEi+0x22>
   176d4:	7402                	ld	s0,32(sp)
   176d6:	6942                	ld	s2,16(sp)
   176d8:	69a2                	ld	s3,8(sp)
   176da:	70a2                	ld	ra,40(sp)
   176dc:	64e2                	ld	s1,24(sp)
   176de:	6145                	addi	sp,sp,48
   176e0:	8082                	ret
   176e2:	8082                	ret

00000000000176e4 <_ZN7testing8internal17TestEventRepeater18OnTestIterationEndERKNS_8UnitTestEi>:
   176e4:	00854783          	lbu	a5,8(a0)
   176e8:	cba9                	beqz	a5,1773a <_ZN7testing8internal17TestEventRepeater18OnTestIterationEndERKNS_8UnitTestEi+0x56>
   176ea:	7179                	addi	sp,sp,-48
   176ec:	691c                	ld	a5,16(a0)
   176ee:	f022                	sd	s0,32(sp)
   176f0:	6d00                	ld	s0,24(a0)
   176f2:	ec26                	sd	s1,24(sp)
   176f4:	e84a                	sd	s2,16(sp)
   176f6:	8c1d                	sub	s0,s0,a5
   176f8:	e44e                	sd	s3,8(sp)
   176fa:	f406                	sd	ra,40(sp)
   176fc:	840d                	srai	s0,s0,0x3
   176fe:	84aa                	mv	s1,a0
   17700:	892e                	mv	s2,a1
   17702:	89b2                	mv	s3,a2
   17704:	e809                	bnez	s0,17716 <_ZN7testing8internal17TestEventRepeater18OnTestIterationEndERKNS_8UnitTestEi+0x32>
   17706:	70a2                	ld	ra,40(sp)
   17708:	7402                	ld	s0,32(sp)
   1770a:	64e2                	ld	s1,24(sp)
   1770c:	6942                	ld	s2,16(sp)
   1770e:	69a2                	ld	s3,8(sp)
   17710:	6145                	addi	sp,sp,48
   17712:	8082                	ret
   17714:	689c                	ld	a5,16(s1)
   17716:	147d                	addi	s0,s0,-1
   17718:	00341713          	slli	a4,s0,0x3
   1771c:	97ba                	add	a5,a5,a4
   1771e:	6388                	ld	a0,0(a5)
   17720:	864e                	mv	a2,s3
   17722:	85ca                	mv	a1,s2
   17724:	611c                	ld	a5,0(a0)
   17726:	7fbc                	ld	a5,120(a5)
   17728:	9782                	jalr	a5
   1772a:	f46d                	bnez	s0,17714 <_ZN7testing8internal17TestEventRepeater18OnTestIterationEndERKNS_8UnitTestEi+0x30>
   1772c:	70a2                	ld	ra,40(sp)
   1772e:	7402                	ld	s0,32(sp)
   17730:	64e2                	ld	s1,24(sp)
   17732:	6942                	ld	s2,16(sp)
   17734:	69a2                	ld	s3,8(sp)
   17736:	6145                	addi	sp,sp,48
   17738:	8082                	ret
   1773a:	8082                	ret

000000000001773c <_ZNKSt7__cxx1112basic_stringIcSt11char_traitsIcESaIcEE7compareERKS4_.isra.0>:
   1773c:	1101                	addi	sp,sp,-32
   1773e:	e822                	sd	s0,16(sp)
   17740:	e426                	sd	s1,8(sp)
   17742:	842e                	mv	s0,a1
   17744:	ec06                	sd	ra,24(sp)
   17746:	85b2                	mv	a1,a2
   17748:	84b6                	mv	s1,a3
   1774a:	8636                	mv	a2,a3
   1774c:	0086e363          	bltu	a3,s0,17752 <_ZNKSt7__cxx1112basic_stringIcSt11char_traitsIcESaIcEE7compareERKS4_.isra.0+0x16>
   17750:	8622                	mv	a2,s0
   17752:	c601                	beqz	a2,1775a <_ZNKSt7__cxx1112basic_stringIcSt11char_traitsIcESaIcEE7compareERKS4_.isra.0+0x1e>
   17754:	99cfe0ef          	jal	158f0 <memcmp@plt>
   17758:	ed01                	bnez	a0,17770 <_ZNKSt7__cxx1112basic_stringIcSt11char_traitsIcESaIcEE7compareERKS4_.isra.0+0x34>
   1775a:	800007b7          	lui	a5,0x80000
   1775e:	8c05                	sub	s0,s0,s1
   17760:	fff7c513          	not	a0,a5
   17764:	00854663          	blt	a0,s0,17770 <_ZNKSt7__cxx1112basic_stringIcSt11char_traitsIcESaIcEE7compareERKS4_.isra.0+0x34>
   17768:	00f44963          	blt	s0,a5,1777a <_ZNKSt7__cxx1112basic_stringIcSt11char_traitsIcESaIcEE7compareERKS4_.isra.0+0x3e>
   1776c:	0004051b          	sext.w	a0,s0
   17770:	60e2                	ld	ra,24(sp)
   17772:	6442                	ld	s0,16(sp)
   17774:	64a2                	ld	s1,8(sp)
   17776:	6105                	addi	sp,sp,32
   17778:	8082                	ret
   1777a:	853e                	mv	a0,a5
   1777c:	bfd5                	j	17770 <_ZNKSt7__cxx1112basic_stringIcSt11char_traitsIcESaIcEE7compareERKS4_.isra.0+0x34>

000000000001777e <_ZNSt6vectorIPcSaIS0_EE14_M_insert_rvalEN9__gnu_cxx17__normal_iteratorIPKS0_S2_EEOS0_.isra.0>:
   1777e:	715d                	addi	sp,sp,-80
   17780:	e0a2                	sd	s0,64(sp)
   17782:	691c                	ld	a5,16(a0)
   17784:	6500                	ld	s0,8(a0)
   17786:	fc26                	sd	s1,56(sp)
   17788:	f84a                	sd	s2,48(sp)
   1778a:	f44e                	sd	s3,40(sp)
   1778c:	e486                	sd	ra,72(sp)
   1778e:	84aa                	mv	s1,a0
   17790:	89b2                	mv	s3,a2
   17792:	892e                	mv	s2,a1
   17794:	04f40a63          	beq	s0,a5,177e8 <_ZNSt6vectorIPcSaIS0_EE14_M_insert_rvalEN9__gnu_cxx17__normal_iteratorIPKS0_S2_EEOS0_.isra.0+0x6a>
   17798:	00840713          	addi	a4,s0,8
   1779c:	02858c63          	beq	a1,s0,177d4 <_ZNSt6vectorIPcSaIS0_EE14_M_insert_rvalEN9__gnu_cxx17__normal_iteratorIPKS0_S2_EEOS0_.isra.0+0x56>
   177a0:	ff843683          	ld	a3,-8(s0)
   177a4:	ff840793          	addi	a5,s0,-8
   177a8:	40b78633          	sub	a2,a5,a1
   177ac:	e014                	sd	a3,0(s0)
   177ae:	e518                	sd	a4,8(a0)
   177b0:	47a1                	li	a5,8
   177b2:	10c7db63          	bge	a5,a2,178c8 <_ZNSt6vectorIPcSaIS0_EE14_M_insert_rvalEN9__gnu_cxx17__normal_iteratorIPKS0_S2_EEOS0_.isra.0+0x14a>
   177b6:	40c40533          	sub	a0,s0,a2
   177ba:	a06fe0ef          	jal	159c0 <memmove@plt>
   177be:	0009b783          	ld	a5,0(s3)
   177c2:	60a6                	ld	ra,72(sp)
   177c4:	6406                	ld	s0,64(sp)
   177c6:	00f93023          	sd	a5,0(s2)
   177ca:	74e2                	ld	s1,56(sp)
   177cc:	7942                	ld	s2,48(sp)
   177ce:	79a2                	ld	s3,40(sp)
   177d0:	6161                	addi	sp,sp,80
   177d2:	8082                	ret
   177d4:	621c                	ld	a5,0(a2)
   177d6:	60a6                	ld	ra,72(sp)
   177d8:	6406                	ld	s0,64(sp)
   177da:	e19c                	sd	a5,0(a1)
   177dc:	e518                	sd	a4,8(a0)
   177de:	74e2                	ld	s1,56(sp)
   177e0:	7942                	ld	s2,48(sp)
   177e2:	79a2                	ld	s3,40(sp)
   177e4:	6161                	addi	sp,sp,80
   177e6:	8082                	ret
   177e8:	e85a                	sd	s6,16(sp)
   177ea:	00053b03          	ld	s6,0(a0)
   177ee:	577d                	li	a4,-1
   177f0:	f052                	sd	s4,32(sp)
   177f2:	416407b3          	sub	a5,s0,s6
   177f6:	ec56                	sd	s5,24(sp)
   177f8:	e45e                	sd	s7,8(sp)
   177fa:	8311                	srli	a4,a4,0x4
   177fc:	878d                	srai	a5,a5,0x3
   177fe:	0ce78b63          	beq	a5,a4,178d4 <_ZNSt6vectorIPcSaIS0_EE14_M_insert_rvalEN9__gnu_cxx17__normal_iteratorIPKS0_S2_EEOS0_.isra.0+0x156>
   17802:	4a05                	li	s4,1
   17804:	e3ad                	bnez	a5,17866 <_ZNSt6vectorIPcSaIS0_EE14_M_insert_rvalEN9__gnu_cxx17__normal_iteratorIPKS0_S2_EEOS0_.isra.0+0xe8>
   17806:	57fd                	li	a5,-1
   17808:	8391                	srli	a5,a5,0x4
   1780a:	0147f363          	bgeu	a5,s4,17810 <_ZNSt6vectorIPcSaIS0_EE14_M_insert_rvalEN9__gnu_cxx17__normal_iteratorIPKS0_S2_EEOS0_.isra.0+0x92>
   1780e:	8a3e                	mv	s4,a5
   17810:	0a0e                	slli	s4,s4,0x3
   17812:	8552                	mv	a0,s4
   17814:	fbdfd0ef          	jal	157d0 <_Znwm@plt>
   17818:	0009b683          	ld	a3,0(s3)
   1781c:	41690ab3          	sub	s5,s2,s6
   17820:	01550733          	add	a4,a0,s5
   17824:	008a8793          	addi	a5,s5,8
   17828:	41240433          	sub	s0,s0,s2
   1782c:	97aa                	add	a5,a5,a0
   1782e:	e314                	sd	a3,0(a4)
   17830:	89aa                	mv	s3,a0
   17832:	00878bb3          	add	s7,a5,s0
   17836:	05504063          	bgtz	s5,17876 <_ZNSt6vectorIPcSaIS0_EE14_M_insert_rvalEN9__gnu_cxx17__normal_iteratorIPKS0_S2_EEOS0_.isra.0+0xf8>
   1783a:	06804c63          	bgtz	s0,178b2 <_ZNSt6vectorIPcSaIS0_EE14_M_insert_rvalEN9__gnu_cxx17__normal_iteratorIPKS0_S2_EEOS0_.isra.0+0x134>
   1783e:	060b1663          	bnez	s6,178aa <_ZNSt6vectorIPcSaIS0_EE14_M_insert_rvalEN9__gnu_cxx17__normal_iteratorIPKS0_S2_EEOS0_.isra.0+0x12c>
   17842:	60a6                	ld	ra,72(sp)
   17844:	6406                	ld	s0,64(sp)
   17846:	9a4e                	add	s4,s4,s3
   17848:	0144b823          	sd	s4,16(s1)
   1784c:	0134b023          	sd	s3,0(s1)
   17850:	0174b423          	sd	s7,8(s1)
   17854:	7a02                	ld	s4,32(sp)
   17856:	6ae2                	ld	s5,24(sp)
   17858:	6b42                	ld	s6,16(sp)
   1785a:	6ba2                	ld	s7,8(sp)
   1785c:	74e2                	ld	s1,56(sp)
   1785e:	7942                	ld	s2,48(sp)
   17860:	79a2                	ld	s3,40(sp)
   17862:	6161                	addi	sp,sp,80
   17864:	8082                	ret
   17866:	00179a13          	slli	s4,a5,0x1
   1786a:	f8fa7ee3          	bgeu	s4,a5,17806 <_ZNSt6vectorIPcSaIS0_EE14_M_insert_rvalEN9__gnu_cxx17__normal_iteratorIPKS0_S2_EEOS0_.isra.0+0x88>
   1786e:	5a45                	li	s4,-15
   17870:	001a5a13          	srli	s4,s4,0x1
   17874:	bf79                	j	17812 <_ZNSt6vectorIPcSaIS0_EE14_M_insert_rvalEN9__gnu_cxx17__normal_iteratorIPKS0_S2_EEOS0_.isra.0+0x94>
   17876:	86aa                	mv	a3,a0
   17878:	865a                	mv	a2,s6
   1787a:	0c3af757          	vsetvli	a4,s5,e8,m8,ta,ma
   1787e:	02060407          	vle8.v	v8,(a2)
   17882:	40ea8ab3          	sub	s5,s5,a4
   17886:	963a                	add	a2,a2,a4
   17888:	02068427          	vse8.v	v8,(a3)
   1788c:	96ba                	add	a3,a3,a4
   1788e:	fe0a96e3          	bnez	s5,1787a <_ZNSt6vectorIPcSaIS0_EE14_M_insert_rvalEN9__gnu_cxx17__normal_iteratorIPKS0_S2_EEOS0_.isra.0+0xfc>
   17892:	00805c63          	blez	s0,178aa <_ZNSt6vectorIPcSaIS0_EE14_M_insert_rvalEN9__gnu_cxx17__normal_iteratorIPKS0_S2_EEOS0_.isra.0+0x12c>
   17896:	0c347757          	vsetvli	a4,s0,e8,m8,ta,ma
   1789a:	02090407          	vle8.v	v8,(s2)
   1789e:	8c19                	sub	s0,s0,a4
   178a0:	993a                	add	s2,s2,a4
   178a2:	02078427          	vse8.v	v8,(a5)
   178a6:	97ba                	add	a5,a5,a4
   178a8:	f47d                	bnez	s0,17896 <_ZNSt6vectorIPcSaIS0_EE14_M_insert_rvalEN9__gnu_cxx17__normal_iteratorIPKS0_S2_EEOS0_.isra.0+0x118>
   178aa:	855a                	mv	a0,s6
   178ac:	f85fd0ef          	jal	15830 <_ZdlPv@plt>
   178b0:	bf49                	j	17842 <_ZNSt6vectorIPcSaIS0_EE14_M_insert_rvalEN9__gnu_cxx17__normal_iteratorIPKS0_S2_EEOS0_.isra.0+0xc4>
   178b2:	0c347757          	vsetvli	a4,s0,e8,m8,ta,ma
   178b6:	02090407          	vle8.v	v8,(s2)
   178ba:	8c19                	sub	s0,s0,a4
   178bc:	993a                	add	s2,s2,a4
   178be:	02078427          	vse8.v	v8,(a5)
   178c2:	97ba                	add	a5,a5,a4
   178c4:	f47d                	bnez	s0,178b2 <_ZNSt6vectorIPcSaIS0_EE14_M_insert_rvalEN9__gnu_cxx17__normal_iteratorIPKS0_S2_EEOS0_.isra.0+0x134>
   178c6:	bfa5                	j	1783e <_ZNSt6vectorIPcSaIS0_EE14_M_insert_rvalEN9__gnu_cxx17__normal_iteratorIPKS0_S2_EEOS0_.isra.0+0xc0>
   178c8:	eef61be3          	bne	a2,a5,177be <_ZNSt6vectorIPcSaIS0_EE14_M_insert_rvalEN9__gnu_cxx17__normal_iteratorIPKS0_S2_EEOS0_.isra.0+0x40>
   178cc:	619c                	ld	a5,0(a1)
   178ce:	fef43c23          	sd	a5,-8(s0)
   178d2:	b5f5                	j	177be <_ZNSt6vectorIPcSaIS0_EE14_M_insert_rvalEN9__gnu_cxx17__normal_iteratorIPKS0_S2_EEOS0_.isra.0+0x40>
   178d4:	00020517          	auipc	a0,0x20
   178d8:	47450513          	addi	a0,a0,1140 # 37d48 <_IO_stdin_used+0x2a0>
   178dc:	f45fd0ef          	jal	15820 <_ZSt20__throw_length_errorPKc@plt>

00000000000178e0 <_ZNK7testing9TestSuite17test_to_run_countEv>:
   178e0:	791c                	ld	a5,48(a0)
   178e2:	7d14                	ld	a3,56(a0)
   178e4:	4501                	li	a0,0
   178e6:	00d78a63          	beq	a5,a3,178fa <_ZNK7testing9TestSuite17test_to_run_countEv+0x1a>
   178ea:	6398                	ld	a4,0(a5)
   178ec:	07a1                	addi	a5,a5,8 # ffffffff80000008 <__global_pointer$+0xffffffff7ffb5278>
   178ee:	08074703          	lbu	a4,128(a4)
   178f2:	9d39                	addw	a0,a0,a4
   178f4:	fef69be3          	bne	a3,a5,178ea <_ZNK7testing9TestSuite17test_to_run_countEv+0xa>
   178f8:	8082                	ret
   178fa:	8082                	ret

00000000000178fc <_ZNK7testing9TestSuite19disabled_test_countEv>:
   178fc:	791c                	ld	a5,48(a0)
   178fe:	7d14                	ld	a3,56(a0)
   17900:	4501                	li	a0,0
   17902:	00d78a63          	beq	a5,a3,17916 <_ZNK7testing9TestSuite19disabled_test_countEv+0x1a>
   17906:	6398                	ld	a4,0(a5)
   17908:	07a1                	addi	a5,a5,8
   1790a:	08174703          	lbu	a4,129(a4)
   1790e:	9d39                	addw	a0,a0,a4
   17910:	fef69be3          	bne	a3,a5,17906 <_ZNK7testing9TestSuite19disabled_test_countEv+0xa>
   17914:	8082                	ret
   17916:	8082                	ret

0000000000017918 <_ZN7testing8internalL20PrintAsCharLiteralToIwwEENS0_10CharFormatET0_PSo>:
   17918:	1101                	addi	sp,sp,-32
   1791a:	e822                	sd	s0,16(sp)
   1791c:	e426                	sd	s1,8(sp)
   1791e:	ec06                	sd	ra,24(sp)
   17920:	02700793          	li	a5,39
   17924:	842a                	mv	s0,a0
   17926:	84ae                	mv	s1,a1
   17928:	0aa7cd63          	blt	a5,a0,179e2 <_ZN7testing8internalL20PrintAsCharLiteralToIwwEENS0_10CharFormatET0_PSo+0xca>
   1792c:	0e054463          	bltz	a0,17a14 <_ZN7testing8internalL20PrintAsCharLiteralToIwwEENS0_10CharFormatET0_PSo+0xfc>
   17930:	0ca7e563          	bltu	a5,a0,179fa <_ZN7testing8internalL20PrintAsCharLiteralToIwwEENS0_10CharFormatET0_PSo+0xe2>
   17934:	00023717          	auipc	a4,0x23
   17938:	fac70713          	addi	a4,a4,-84 # 3a8e0 <_IO_stdin_used+0x2e38>
   1793c:	00251793          	slli	a5,a0,0x2
   17940:	97ba                	add	a5,a5,a4
   17942:	439c                	lw	a5,0(a5)
   17944:	97ba                	add	a5,a5,a4
   17946:	8782                	jr	a5
   17948:	852e                	mv	a0,a1
   1794a:	00020597          	auipc	a1,0x20
   1794e:	41e58593          	addi	a1,a1,1054 # 37d68 <_IO_stdin_used+0x2c0>
   17952:	c0ffd0ef          	jal	15560 <_ZStlsISt11char_traitsIcEERSt13basic_ostreamIcT_ES5_PKc@plt>
   17956:	4509                	li	a0,2
   17958:	60e2                	ld	ra,24(sp)
   1795a:	6442                	ld	s0,16(sp)
   1795c:	64a2                	ld	s1,8(sp)
   1795e:	6105                	addi	sp,sp,32
   17960:	8082                	ret
   17962:	852e                	mv	a0,a1
   17964:	00020597          	auipc	a1,0x20
   17968:	41c58593          	addi	a1,a1,1052 # 37d80 <_IO_stdin_used+0x2d8>
   1796c:	bf5fd0ef          	jal	15560 <_ZStlsISt11char_traitsIcEERSt13basic_ostreamIcT_ES5_PKc@plt>
   17970:	b7dd                	j	17956 <_ZN7testing8internalL20PrintAsCharLiteralToIwwEENS0_10CharFormatET0_PSo+0x3e>
   17972:	852e                	mv	a0,a1
   17974:	00020597          	auipc	a1,0x20
   17978:	41458593          	addi	a1,a1,1044 # 37d88 <_IO_stdin_used+0x2e0>
   1797c:	be5fd0ef          	jal	15560 <_ZStlsISt11char_traitsIcEERSt13basic_ostreamIcT_ES5_PKc@plt>
   17980:	bfd9                	j	17956 <_ZN7testing8internalL20PrintAsCharLiteralToIwwEENS0_10CharFormatET0_PSo+0x3e>
   17982:	852e                	mv	a0,a1
   17984:	00020597          	auipc	a1,0x20
   17988:	42458593          	addi	a1,a1,1060 # 37da8 <_IO_stdin_used+0x300>
   1798c:	bd5fd0ef          	jal	15560 <_ZStlsISt11char_traitsIcEERSt13basic_ostreamIcT_ES5_PKc@plt>
   17990:	b7d9                	j	17956 <_ZN7testing8internalL20PrintAsCharLiteralToIwwEENS0_10CharFormatET0_PSo+0x3e>
   17992:	852e                	mv	a0,a1
   17994:	00020597          	auipc	a1,0x20
   17998:	40458593          	addi	a1,a1,1028 # 37d98 <_IO_stdin_used+0x2f0>
   1799c:	bc5fd0ef          	jal	15560 <_ZStlsISt11char_traitsIcEERSt13basic_ostreamIcT_ES5_PKc@plt>
   179a0:	bf5d                	j	17956 <_ZN7testing8internalL20PrintAsCharLiteralToIwwEENS0_10CharFormatET0_PSo+0x3e>
   179a2:	852e                	mv	a0,a1
   179a4:	00020597          	auipc	a1,0x20
   179a8:	40c58593          	addi	a1,a1,1036 # 37db0 <_IO_stdin_used+0x308>
   179ac:	bb5fd0ef          	jal	15560 <_ZStlsISt11char_traitsIcEERSt13basic_ostreamIcT_ES5_PKc@plt>
   179b0:	b75d                	j	17956 <_ZN7testing8internalL20PrintAsCharLiteralToIwwEENS0_10CharFormatET0_PSo+0x3e>
   179b2:	852e                	mv	a0,a1
   179b4:	00020597          	auipc	a1,0x20
   179b8:	3dc58593          	addi	a1,a1,988 # 37d90 <_IO_stdin_used+0x2e8>
   179bc:	ba5fd0ef          	jal	15560 <_ZStlsISt11char_traitsIcEERSt13basic_ostreamIcT_ES5_PKc@plt>
   179c0:	bf59                	j	17956 <_ZN7testing8internalL20PrintAsCharLiteralToIwwEENS0_10CharFormatET0_PSo+0x3e>
   179c2:	852e                	mv	a0,a1
   179c4:	00020597          	auipc	a1,0x20
   179c8:	3dc58593          	addi	a1,a1,988 # 37da0 <_IO_stdin_used+0x2f8>
   179cc:	b95fd0ef          	jal	15560 <_ZStlsISt11char_traitsIcEERSt13basic_ostreamIcT_ES5_PKc@plt>
   179d0:	b759                	j	17956 <_ZN7testing8internalL20PrintAsCharLiteralToIwwEENS0_10CharFormatET0_PSo+0x3e>
   179d2:	852e                	mv	a0,a1
   179d4:	00020597          	auipc	a1,0x20
   179d8:	39c58593          	addi	a1,a1,924 # 37d70 <_IO_stdin_used+0x2c8>
   179dc:	b85fd0ef          	jal	15560 <_ZStlsISt11char_traitsIcEERSt13basic_ostreamIcT_ES5_PKc@plt>
   179e0:	bf9d                	j	17956 <_ZN7testing8internalL20PrintAsCharLiteralToIwwEENS0_10CharFormatET0_PSo+0x3e>
   179e2:	05c00793          	li	a5,92
   179e6:	00f51a63          	bne	a0,a5,179fa <_ZN7testing8internalL20PrintAsCharLiteralToIwwEENS0_10CharFormatET0_PSo+0xe2>
   179ea:	852e                	mv	a0,a1
   179ec:	00020597          	auipc	a1,0x20
   179f0:	38c58593          	addi	a1,a1,908 # 37d78 <_IO_stdin_used+0x2d0>
   179f4:	b6dfd0ef          	jal	15560 <_ZStlsISt11char_traitsIcEERSt13basic_ostreamIcT_ES5_PKc@plt>
   179f8:	bfb9                	j	17956 <_ZN7testing8internalL20PrintAsCharLiteralToIwwEENS0_10CharFormatET0_PSo+0x3e>
   179fa:	fe04079b          	addiw	a5,s0,-32
   179fe:	05e00713          	li	a4,94
   17a02:	00f76963          	bltu	a4,a5,17a14 <_ZN7testing8internalL20PrintAsCharLiteralToIwwEENS0_10CharFormatET0_PSo+0xfc>
   17a06:	0ff47593          	zext.b	a1,s0
   17a0a:	8526                	mv	a0,s1
   17a0c:	b65fd0ef          	jal	15570 <_ZStlsISt11char_traitsIcEERSt13basic_ostreamIcT_ES5_c@plt>
   17a10:	4501                	li	a0,0
   17a12:	b799                	j	17958 <_ZN7testing8internalL20PrintAsCharLiteralToIwwEENS0_10CharFormatET0_PSo+0x40>
   17a14:	609c                	ld	a5,0(s1)
   17a16:	4609                	li	a2,2
   17a18:	00020597          	auipc	a1,0x20
   17a1c:	3a058593          	addi	a1,a1,928 # 37db8 <_IO_stdin_used+0x310>
   17a20:	fe87b783          	ld	a5,-24(a5)
   17a24:	8526                	mv	a0,s1
   17a26:	e04a                	sd	s2,0(sp)
   17a28:	97a6                	add	a5,a5,s1
   17a2a:	0187a903          	lw	s2,24(a5)
   17a2e:	c03fd0ef          	jal	15630 <_ZSt16__ostream_insertIcSt11char_traitsIcEERSt13basic_ostreamIT_T0_ES6_PKS3_l@plt>
   17a32:	609c                	ld	a5,0(s1)
   17a34:	6691                	lui	a3,0x4
   17a36:	06a1                	addi	a3,a3,8 # 4008 <__abi_tag-0xc28c>
   17a38:	fe87b703          	ld	a4,-24(a5)
   17a3c:	8526                	mv	a0,s1
   17a3e:	85a2                	mv	a1,s0
   17a40:	9726                	add	a4,a4,s1
   17a42:	4f1c                	lw	a5,24(a4)
   17a44:	fb57f793          	andi	a5,a5,-75
   17a48:	8fd5                	or	a5,a5,a3
   17a4a:	cf1c                	sw	a5,24(a4)
   17a4c:	9f5fd0ef          	jal	15440 <_ZNSolsEi@plt>
   17a50:	609c                	ld	a5,0(s1)
   17a52:	4505                	li	a0,1
   17a54:	fe87b783          	ld	a5,-24(a5)
   17a58:	94be                	add	s1,s1,a5
   17a5a:	0124ac23          	sw	s2,24(s1)
   17a5e:	6902                	ld	s2,0(sp)
   17a60:	bde5                	j	17958 <_ZN7testing8internalL20PrintAsCharLiteralToIwwEENS0_10CharFormatET0_PSo+0x40>

0000000000017a62 <_ZNSt7__cxx1112basic_stringIcSt11char_traitsIcESaIcEE12_M_constructIPcEEvT_S7_St20forward_iterator_tag.isra.0>:
   17a62:	7179                	addi	sp,sp,-48
   17a64:	f022                	sd	s0,32(sp)
   17a66:	40b60433          	sub	s0,a2,a1
   17a6a:	ec26                	sd	s1,24(sp)
   17a6c:	e84a                	sd	s2,16(sp)
   17a6e:	f406                	sd	ra,40(sp)
   17a70:	e422                	sd	s0,8(sp)
   17a72:	47bd                	li	a5,15
   17a74:	84ae                	mv	s1,a1
   17a76:	892a                	mv	s2,a0
   17a78:	0487e763          	bltu	a5,s0,17ac6 <_ZNSt7__cxx1112basic_stringIcSt11char_traitsIcESaIcEE12_M_constructIPcEEvT_S7_St20forward_iterator_tag.isra.0+0x64>
   17a7c:	4785                	li	a5,1
   17a7e:	6108                	ld	a0,0(a0)
   17a80:	02f41463          	bne	s0,a5,17aa8 <_ZNSt7__cxx1112basic_stringIcSt11char_traitsIcESaIcEE12_M_constructIPcEEvT_S7_St20forward_iterator_tag.isra.0+0x46>
   17a84:	0005c783          	lbu	a5,0(a1)
   17a88:	00f50023          	sb	a5,0(a0)
   17a8c:	6422                	ld	s0,8(sp)
   17a8e:	00093503          	ld	a0,0(s2)
   17a92:	00893423          	sd	s0,8(s2)
   17a96:	9522                	add	a0,a0,s0
   17a98:	00050023          	sb	zero,0(a0)
   17a9c:	70a2                	ld	ra,40(sp)
   17a9e:	7402                	ld	s0,32(sp)
   17aa0:	64e2                	ld	s1,24(sp)
   17aa2:	6942                	ld	s2,16(sp)
   17aa4:	6145                	addi	sp,sp,48
   17aa6:	8082                	ret
   17aa8:	d46d                	beqz	s0,17a92 <_ZNSt7__cxx1112basic_stringIcSt11char_traitsIcESaIcEE12_M_constructIPcEEvT_S7_St20forward_iterator_tag.isra.0+0x30>
   17aaa:	0c3477d7          	vsetvli	a5,s0,e8,m8,ta,ma
   17aae:	02048407          	vle8.v	v8,(s1)
   17ab2:	8c1d                	sub	s0,s0,a5
   17ab4:	94be                	add	s1,s1,a5
   17ab6:	02050427          	vse8.v	v8,(a0)
   17aba:	953e                	add	a0,a0,a5
   17abc:	f47d                	bnez	s0,17aaa <_ZNSt7__cxx1112basic_stringIcSt11char_traitsIcESaIcEE12_M_constructIPcEEvT_S7_St20forward_iterator_tag.isra.0+0x48>
   17abe:	6422                	ld	s0,8(sp)
   17ac0:	00093503          	ld	a0,0(s2)
   17ac4:	b7f9                	j	17a92 <_ZNSt7__cxx1112basic_stringIcSt11char_traitsIcESaIcEE12_M_constructIPcEEvT_S7_St20forward_iterator_tag.isra.0+0x30>
   17ac6:	4601                	li	a2,0
   17ac8:	002c                	addi	a1,sp,8
   17aca:	b17fd0ef          	jal	155e0 <_ZNSt7__cxx1112basic_stringIcSt11char_traitsIcESaIcEE9_M_createERmm@plt>
   17ace:	67a2                	ld	a5,8(sp)
   17ad0:	00a93023          	sd	a0,0(s2)
   17ad4:	00f93823          	sd	a5,16(s2)
   17ad8:	0c3477d7          	vsetvli	a5,s0,e8,m8,ta,ma
   17adc:	02048407          	vle8.v	v8,(s1)
   17ae0:	8c1d                	sub	s0,s0,a5
   17ae2:	94be                	add	s1,s1,a5
   17ae4:	02050427          	vse8.v	v8,(a0)
   17ae8:	953e                	add	a0,a0,a5
   17aea:	f061                	bnez	s0,17aaa <_ZNSt7__cxx1112basic_stringIcSt11char_traitsIcESaIcEE12_M_constructIPcEEvT_S7_St20forward_iterator_tag.isra.0+0x48>
   17aec:	bfc9                	j	17abe <_ZNSt7__cxx1112basic_stringIcSt11char_traitsIcESaIcEE12_M_constructIPcEEvT_S7_St20forward_iterator_tag.isra.0+0x5c>

0000000000017aee <_ZNSt7__cxx1112basic_stringIcSt11char_traitsIcESaIcEE12_M_constructIPKcEEvT_S8_St20forward_iterator_tag.isra.0>:
   17aee:	7179                	addi	sp,sp,-48
   17af0:	f022                	sd	s0,32(sp)
   17af2:	40b60433          	sub	s0,a2,a1
   17af6:	ec26                	sd	s1,24(sp)
   17af8:	e84a                	sd	s2,16(sp)
   17afa:	f406                	sd	ra,40(sp)
   17afc:	e422                	sd	s0,8(sp)
   17afe:	47bd                	li	a5,15
   17b00:	84ae                	mv	s1,a1
   17b02:	892a                	mv	s2,a0
   17b04:	0487e763          	bltu	a5,s0,17b52 <_ZNSt7__cxx1112basic_stringIcSt11char_traitsIcESaIcEE12_M_constructIPKcEEvT_S8_St20forward_iterator_tag.isra.0+0x64>
   17b08:	4785                	li	a5,1
   17b0a:	6108                	ld	a0,0(a0)
   17b0c:	02f41463          	bne	s0,a5,17b34 <_ZNSt7__cxx1112basic_stringIcSt11char_traitsIcESaIcEE12_M_constructIPKcEEvT_S8_St20forward_iterator_tag.isra.0+0x46>
   17b10:	0005c783          	lbu	a5,0(a1)
   17b14:	00f50023          	sb	a5,0(a0)
   17b18:	6422                	ld	s0,8(sp)
   17b1a:	00093503          	ld	a0,0(s2)
   17b1e:	00893423          	sd	s0,8(s2)
   17b22:	9522                	add	a0,a0,s0
   17b24:	00050023          	sb	zero,0(a0)
   17b28:	70a2                	ld	ra,40(sp)
   17b2a:	7402                	ld	s0,32(sp)
   17b2c:	64e2                	ld	s1,24(sp)
   17b2e:	6942                	ld	s2,16(sp)
   17b30:	6145                	addi	sp,sp,48
   17b32:	8082                	ret
   17b34:	d46d                	beqz	s0,17b1e <_ZNSt7__cxx1112basic_stringIcSt11char_traitsIcESaIcEE12_M_constructIPKcEEvT_S8_St20forward_iterator_tag.isra.0+0x30>
   17b36:	0c3477d7          	vsetvli	a5,s0,e8,m8,ta,ma
   17b3a:	02048407          	vle8.v	v8,(s1)
   17b3e:	8c1d                	sub	s0,s0,a5
   17b40:	94be                	add	s1,s1,a5
   17b42:	02050427          	vse8.v	v8,(a0)
   17b46:	953e                	add	a0,a0,a5
   17b48:	f47d                	bnez	s0,17b36 <_ZNSt7__cxx1112basic_stringIcSt11char_traitsIcESaIcEE12_M_constructIPKcEEvT_S8_St20forward_iterator_tag.isra.0+0x48>
   17b4a:	6422                	ld	s0,8(sp)
   17b4c:	00093503          	ld	a0,0(s2)
   17b50:	b7f9                	j	17b1e <_ZNSt7__cxx1112basic_stringIcSt11char_traitsIcESaIcEE12_M_constructIPKcEEvT_S8_St20forward_iterator_tag.isra.0+0x30>
   17b52:	4601                	li	a2,0
   17b54:	002c                	addi	a1,sp,8
   17b56:	a8bfd0ef          	jal	155e0 <_ZNSt7__cxx1112basic_stringIcSt11char_traitsIcESaIcEE9_M_createERmm@plt>
   17b5a:	67a2                	ld	a5,8(sp)
   17b5c:	00a93023          	sd	a0,0(s2)
   17b60:	00f93823          	sd	a5,16(s2)
   17b64:	0c3477d7          	vsetvli	a5,s0,e8,m8,ta,ma
   17b68:	02048407          	vle8.v	v8,(s1)
   17b6c:	8c1d                	sub	s0,s0,a5
   17b6e:	94be                	add	s1,s1,a5
   17b70:	02050427          	vse8.v	v8,(a0)
   17b74:	953e                	add	a0,a0,a5
   17b76:	f061                	bnez	s0,17b36 <_ZNSt7__cxx1112basic_stringIcSt11char_traitsIcESaIcEE12_M_constructIPKcEEvT_S8_St20forward_iterator_tag.isra.0+0x48>
   17b78:	bfc9                	j	17b4a <_ZNSt7__cxx1112basic_stringIcSt11char_traitsIcESaIcEE12_M_constructIPKcEEvT_S8_St20forward_iterator_tag.isra.0+0x5c>

0000000000017b7a <_ZN7testing8internalL20PrintCharsAsStringToIcEENS0_10CharFormatEPKT_mPSo>:
   17b7a:	715d                	addi	sp,sp,-80
   17b7c:	e0a2                	sd	s0,64(sp)
   17b7e:	f84a                	sd	s2,48(sp)
   17b80:	f44e                	sd	s3,40(sp)
   17b82:	8932                	mv	s2,a2
   17b84:	89ae                	mv	s3,a1
   17b86:	842a                	mv	s0,a0
   17b88:	00020597          	auipc	a1,0x20
   17b8c:	23858593          	addi	a1,a1,568 # 37dc0 <_IO_stdin_used+0x318>
   17b90:	8532                	mv	a0,a2
   17b92:	4605                	li	a2,1
   17b94:	e486                	sd	ra,72(sp)
   17b96:	e062                	sd	s8,0(sp)
   17b98:	a99fd0ef          	jal	15630 <_ZSt16__ostream_insertIcSt11char_traitsIcEERSt13basic_ostreamIT_T0_ES6_PKS3_l@plt>
   17b9c:	0c098963          	beqz	s3,17c6e <_ZN7testing8internalL20PrintCharsAsStringToIcEENS0_10CharFormatEPKT_mPSo+0xf4>
   17ba0:	ec56                	sd	s5,24(sp)
   17ba2:	e85a                	sd	s6,16(sp)
   17ba4:	e45e                	sd	s7,8(sp)
   17ba6:	fc26                	sd	s1,56(sp)
   17ba8:	f052                	sd	s4,32(sp)
   17baa:	00044483          	lbu	s1,0(s0)
   17bae:	99a2                	add	s3,s3,s0
   17bb0:	4c01                	li	s8,0
   17bb2:	02200a93          	li	s5,34
   17bb6:	02700b13          	li	s6,39
   17bba:	4b85                	li	s7,1
   17bbc:	03548363          	beq	s1,s5,17be2 <_ZN7testing8internalL20PrintCharsAsStringToIcEENS0_10CharFormatEPKT_mPSo+0x68>
   17bc0:	07649163          	bne	s1,s6,17c22 <_ZN7testing8internalL20PrintCharsAsStringToIcEENS0_10CharFormatEPKT_mPSo+0xa8>
   17bc4:	4605                	li	a2,1
   17bc6:	00020597          	auipc	a1,0x20
   17bca:	20a58593          	addi	a1,a1,522 # 37dd0 <_IO_stdin_used+0x328>
   17bce:	854a                	mv	a0,s2
   17bd0:	a61fd0ef          	jal	15630 <_ZSt16__ostream_insertIcSt11char_traitsIcEERSt13basic_ostreamIT_T0_ES6_PKS3_l@plt>
   17bd4:	0405                	addi	s0,s0,1
   17bd6:	02898163          	beq	s3,s0,17bf8 <_ZN7testing8internalL20PrintCharsAsStringToIcEENS0_10CharFormatEPKT_mPSo+0x7e>
   17bda:	00044483          	lbu	s1,0(s0)
   17bde:	ff5491e3          	bne	s1,s5,17bc0 <_ZN7testing8internalL20PrintCharsAsStringToIcEENS0_10CharFormatEPKT_mPSo+0x46>
   17be2:	4609                	li	a2,2
   17be4:	00020597          	auipc	a1,0x20
   17be8:	1f458593          	addi	a1,a1,500 # 37dd8 <_IO_stdin_used+0x330>
   17bec:	854a                	mv	a0,s2
   17bee:	0405                	addi	s0,s0,1
   17bf0:	a41fd0ef          	jal	15630 <_ZSt16__ostream_insertIcSt11char_traitsIcEERSt13basic_ostreamIT_T0_ES6_PKS3_l@plt>
   17bf4:	fe8993e3          	bne	s3,s0,17bda <_ZN7testing8internalL20PrintCharsAsStringToIcEENS0_10CharFormatEPKT_mPSo+0x60>
   17bf8:	74e2                	ld	s1,56(sp)
   17bfa:	7a02                	ld	s4,32(sp)
   17bfc:	6ae2                	ld	s5,24(sp)
   17bfe:	6b42                	ld	s6,16(sp)
   17c00:	6ba2                	ld	s7,8(sp)
   17c02:	854a                	mv	a0,s2
   17c04:	4605                	li	a2,1
   17c06:	00020597          	auipc	a1,0x20
   17c0a:	1ba58593          	addi	a1,a1,442 # 37dc0 <_IO_stdin_used+0x318>
   17c0e:	a23fd0ef          	jal	15630 <_ZSt16__ostream_insertIcSt11char_traitsIcEERSt13basic_ostreamIT_T0_ES6_PKS3_l@plt>
   17c12:	60a6                	ld	ra,72(sp)
   17c14:	6406                	ld	s0,64(sp)
   17c16:	7942                	ld	s2,48(sp)
   17c18:	79a2                	ld	s3,40(sp)
   17c1a:	8562                	mv	a0,s8
   17c1c:	6c02                	ld	s8,0(sp)
   17c1e:	6161                	addi	sp,sp,80
   17c20:	8082                	ret
   17c22:	8526                	mv	a0,s1
   17c24:	85ca                	mv	a1,s2
   17c26:	cf3ff0ef          	jal	17918 <_ZN7testing8internalL20PrintAsCharLiteralToIwwEENS0_10CharFormatET0_PSo>
   17c2a:	8a2a                	mv	s4,a0
   17c2c:	fb7514e3          	bne	a0,s7,17bd4 <_ZN7testing8internalL20PrintCharsAsStringToIcEENS0_10CharFormatEPKT_mPSo+0x5a>
   17c30:	0405                	addi	s0,s0,1
   17c32:	02898c63          	beq	s3,s0,17c6a <_ZN7testing8internalL20PrintCharsAsStringToIcEENS0_10CharFormatEPKT_mPSo+0xf0>
   17c36:	00044483          	lbu	s1,0(s0)
   17c3a:	8526                	mv	a0,s1
   17c3c:	ad5fd0ef          	jal	15710 <isxdigit@plt>
   17c40:	e119                	bnez	a0,17c46 <_ZN7testing8internalL20PrintCharsAsStringToIcEENS0_10CharFormatEPKT_mPSo+0xcc>
   17c42:	8c52                	mv	s8,s4
   17c44:	bfa5                	j	17bbc <_ZN7testing8internalL20PrintCharsAsStringToIcEENS0_10CharFormatEPKT_mPSo+0x42>
   17c46:	4609                	li	a2,2
   17c48:	00020597          	auipc	a1,0x20
   17c4c:	18058593          	addi	a1,a1,384 # 37dc8 <_IO_stdin_used+0x320>
   17c50:	854a                	mv	a0,s2
   17c52:	9dffd0ef          	jal	15630 <_ZSt16__ostream_insertIcSt11char_traitsIcEERSt13basic_ostreamIT_T0_ES6_PKS3_l@plt>
   17c56:	865e                	mv	a2,s7
   17c58:	854a                	mv	a0,s2
   17c5a:	00020597          	auipc	a1,0x20
   17c5e:	16658593          	addi	a1,a1,358 # 37dc0 <_IO_stdin_used+0x318>
   17c62:	9cffd0ef          	jal	15630 <_ZSt16__ostream_insertIcSt11char_traitsIcEERSt13basic_ostreamIT_T0_ES6_PKS3_l@plt>
   17c66:	8c52                	mv	s8,s4
   17c68:	bf91                	j	17bbc <_ZN7testing8internalL20PrintCharsAsStringToIcEENS0_10CharFormatEPKT_mPSo+0x42>
   17c6a:	8c5e                	mv	s8,s7
   17c6c:	b771                	j	17bf8 <_ZN7testing8internalL20PrintCharsAsStringToIcEENS0_10CharFormatEPKT_mPSo+0x7e>
   17c6e:	4c01                	li	s8,0
   17c70:	bf49                	j	17c02 <_ZN7testing8internalL20PrintCharsAsStringToIcEENS0_10CharFormatEPKT_mPSo+0x88>

0000000000017c72 <_ZN7testing8internalL20PrintCharsAsStringToIwEENS0_10CharFormatEPKT_mPSo.isra.0>:
   17c72:	715d                	addi	sp,sp,-80
   17c74:	e0a2                	sd	s0,64(sp)
   17c76:	f44e                	sd	s3,40(sp)
   17c78:	f052                	sd	s4,32(sp)
   17c7a:	89b2                	mv	s3,a2
   17c7c:	8a2e                	mv	s4,a1
   17c7e:	842a                	mv	s0,a0
   17c80:	00020597          	auipc	a1,0x20
   17c84:	16058593          	addi	a1,a1,352 # 37de0 <_IO_stdin_used+0x338>
   17c88:	8532                	mv	a0,a2
   17c8a:	4609                	li	a2,2
   17c8c:	e486                	sd	ra,72(sp)
   17c8e:	9a3fd0ef          	jal	15630 <_ZSt16__ostream_insertIcSt11char_traitsIcEERSt13basic_ostreamIT_T0_ES6_PKS3_l@plt>
   17c92:	0a0a0063          	beqz	s4,17d32 <_ZN7testing8internalL20PrintCharsAsStringToIwEENS0_10CharFormatEPKT_mPSo.isra.0+0xc0>
   17c96:	f84a                	sd	s2,48(sp)
   17c98:	ec56                	sd	s5,24(sp)
   17c9a:	e85a                	sd	s6,16(sp)
   17c9c:	e45e                	sd	s7,8(sp)
   17c9e:	fc26                	sd	s1,56(sp)
   17ca0:	4781                	li	a5,0
   17ca2:	4901                	li	s2,0
   17ca4:	02200a93          	li	s5,34
   17ca8:	02700b93          	li	s7,39
   17cac:	0ff00b13          	li	s6,255
   17cb0:	4004                	lw	s1,0(s0)
   17cb2:	c79d                	beqz	a5,17ce0 <_ZN7testing8internalL20PrintCharsAsStringToIwEENS0_10CharFormatEPKT_mPSo.isra.0+0x6e>
   17cb4:	089b6c63          	bltu	s6,s1,17d4c <_ZN7testing8internalL20PrintCharsAsStringToIwEENS0_10CharFormatEPKT_mPSo.isra.0+0xda>
   17cb8:	8526                	mv	a0,s1
   17cba:	a57fd0ef          	jal	15710 <isxdigit@plt>
   17cbe:	c10d                	beqz	a0,17ce0 <_ZN7testing8internalL20PrintCharsAsStringToIwEENS0_10CharFormatEPKT_mPSo.isra.0+0x6e>
   17cc0:	4609                	li	a2,2
   17cc2:	00020597          	auipc	a1,0x20
   17cc6:	10658593          	addi	a1,a1,262 # 37dc8 <_IO_stdin_used+0x320>
   17cca:	854e                	mv	a0,s3
   17ccc:	965fd0ef          	jal	15630 <_ZSt16__ostream_insertIcSt11char_traitsIcEERSt13basic_ostreamIT_T0_ES6_PKS3_l@plt>
   17cd0:	854e                	mv	a0,s3
   17cd2:	4609                	li	a2,2
   17cd4:	00020597          	auipc	a1,0x20
   17cd8:	10c58593          	addi	a1,a1,268 # 37de0 <_IO_stdin_used+0x338>
   17cdc:	955fd0ef          	jal	15630 <_ZSt16__ostream_insertIcSt11char_traitsIcEERSt13basic_ostreamIT_T0_ES6_PKS3_l@plt>
   17ce0:	4605                	li	a2,1
   17ce2:	00020597          	auipc	a1,0x20
   17ce6:	0ee58593          	addi	a1,a1,238 # 37dd0 <_IO_stdin_used+0x328>
   17cea:	854e                	mv	a0,s3
   17cec:	03548363          	beq	s1,s5,17d12 <_ZN7testing8internalL20PrintCharsAsStringToIwEENS0_10CharFormatEPKT_mPSo.isra.0+0xa0>
   17cf0:	05749e63          	bne	s1,s7,17d4c <_ZN7testing8internalL20PrintCharsAsStringToIwEENS0_10CharFormatEPKT_mPSo.isra.0+0xda>
   17cf4:	0905                	addi	s2,s2,1
   17cf6:	93bfd0ef          	jal	15630 <_ZSt16__ostream_insertIcSt11char_traitsIcEERSt13basic_ostreamIT_T0_ES6_PKS3_l@plt>
   17cfa:	0411                	addi	s0,s0,4
   17cfc:	03490663          	beq	s2,s4,17d28 <_ZN7testing8internalL20PrintCharsAsStringToIwEENS0_10CharFormatEPKT_mPSo.isra.0+0xb6>
   17d00:	4004                	lw	s1,0(s0)
   17d02:	4605                	li	a2,1
   17d04:	00020597          	auipc	a1,0x20
   17d08:	0cc58593          	addi	a1,a1,204 # 37dd0 <_IO_stdin_used+0x328>
   17d0c:	854e                	mv	a0,s3
   17d0e:	ff5491e3          	bne	s1,s5,17cf0 <_ZN7testing8internalL20PrintCharsAsStringToIwEENS0_10CharFormatEPKT_mPSo.isra.0+0x7e>
   17d12:	4609                	li	a2,2
   17d14:	00020597          	auipc	a1,0x20
   17d18:	0c458593          	addi	a1,a1,196 # 37dd8 <_IO_stdin_used+0x330>
   17d1c:	0905                	addi	s2,s2,1
   17d1e:	913fd0ef          	jal	15630 <_ZSt16__ostream_insertIcSt11char_traitsIcEERSt13basic_ostreamIT_T0_ES6_PKS3_l@plt>
   17d22:	0411                	addi	s0,s0,4
   17d24:	fd491ee3          	bne	s2,s4,17d00 <_ZN7testing8internalL20PrintCharsAsStringToIwEENS0_10CharFormatEPKT_mPSo.isra.0+0x8e>
   17d28:	74e2                	ld	s1,56(sp)
   17d2a:	7942                	ld	s2,48(sp)
   17d2c:	6ae2                	ld	s5,24(sp)
   17d2e:	6b42                	ld	s6,16(sp)
   17d30:	6ba2                	ld	s7,8(sp)
   17d32:	6406                	ld	s0,64(sp)
   17d34:	60a6                	ld	ra,72(sp)
   17d36:	7a02                	ld	s4,32(sp)
   17d38:	854e                	mv	a0,s3
   17d3a:	79a2                	ld	s3,40(sp)
   17d3c:	4605                	li	a2,1
   17d3e:	00020597          	auipc	a1,0x20
   17d42:	08258593          	addi	a1,a1,130 # 37dc0 <_IO_stdin_used+0x318>
   17d46:	6161                	addi	sp,sp,80
   17d48:	8e9fd06f          	j	15630 <_ZSt16__ostream_insertIcSt11char_traitsIcEERSt13basic_ostreamIT_T0_ES6_PKS3_l@plt>
   17d4c:	8526                	mv	a0,s1
   17d4e:	85ce                	mv	a1,s3
   17d50:	bc9ff0ef          	jal	17918 <_ZN7testing8internalL20PrintAsCharLiteralToIwwEENS0_10CharFormatET0_PSo>
   17d54:	fff50793          	addi	a5,a0,-1
   17d58:	0905                	addi	s2,s2,1
   17d5a:	0411                	addi	s0,s0,4
   17d5c:	0017b793          	seqz	a5,a5
   17d60:	f54918e3          	bne	s2,s4,17cb0 <_ZN7testing8internalL20PrintCharsAsStringToIwEENS0_10CharFormatEPKT_mPSo.isra.0+0x3e>
   17d64:	b7d1                	j	17d28 <_ZN7testing8internalL20PrintCharsAsStringToIwEENS0_10CharFormatEPKT_mPSo.isra.0+0xb6>

0000000000017d66 <_ZNSt8_Rb_treeINSt7__cxx1112basic_stringIcSt11char_traitsIcESaIcEEESt4pairIKS5_mESt10_Select1stIS8_ESt4lessIS5_ESaIS8_EE24_M_get_insert_unique_posERS7_.isra.0>:
   17d66:	711d                	addi	sp,sp,-96
   17d68:	e8a2                	sd	s0,80(sp)
   17d6a:	6900                	ld	s0,16(a0)
   17d6c:	fc4e                	sd	s3,56(sp)
   17d6e:	f852                	sd	s4,48(sp)
   17d70:	f05a                	sd	s6,32(sp)
   17d72:	ec86                	sd	ra,88(sp)
   17d74:	e4a6                	sd	s1,72(sp)
   17d76:	e0ca                	sd	s2,64(sp)
   17d78:	f456                	sd	s5,40(sp)
   17d7a:	e862                	sd	s8,16(sp)
   17d7c:	8b2a                	mv	s6,a0
   17d7e:	8a2e                	mv	s4,a1
   17d80:	89b2                	mv	s3,a2
   17d82:	cc49                	beqz	s0,17e1c <_ZNSt8_Rb_treeINSt7__cxx1112basic_stringIcSt11char_traitsIcESaIcEEESt4pairIKS5_mESt10_Select1stIS8_ESt4lessIS5_ESaIS8_EE24_M_get_insert_unique_posERS7_.isra.0+0xb6>
   17d84:	80000ab7          	lui	s5,0x80000
   17d88:	ec5e                	sd	s7,24(sp)
   17d8a:	fffacb93          	not	s7,s5
   17d8e:	7404                	ld	s1,40(s0)
   17d90:	02043c03          	ld	s8,32(s0)
   17d94:	894e                	mv	s2,s3
   17d96:	0134f363          	bgeu	s1,s3,17d9c <_ZNSt8_Rb_treeINSt7__cxx1112basic_stringIcSt11char_traitsIcESaIcEEESt4pairIKS5_mESt10_Select1stIS8_ESt4lessIS5_ESaIS8_EE24_M_get_insert_unique_posERS7_.isra.0+0x36>
   17d9a:	8926                	mv	s2,s1
   17d9c:	00090863          	beqz	s2,17dac <_ZNSt8_Rb_treeINSt7__cxx1112basic_stringIcSt11char_traitsIcESaIcEEESt4pairIKS5_mESt10_Select1stIS8_ESt4lessIS5_ESaIS8_EE24_M_get_insert_unique_posERS7_.isra.0+0x46>
   17da0:	864a                	mv	a2,s2
   17da2:	85e2                	mv	a1,s8
   17da4:	8552                	mv	a0,s4
   17da6:	b4bfd0ef          	jal	158f0 <memcmp@plt>
   17daa:	e901                	bnez	a0,17dba <_ZNSt8_Rb_treeINSt7__cxx1112basic_stringIcSt11char_traitsIcESaIcEEESt4pairIKS5_mESt10_Select1stIS8_ESt4lessIS5_ESaIS8_EE24_M_get_insert_unique_posERS7_.isra.0+0x54>
   17dac:	40998533          	sub	a0,s3,s1
   17db0:	00abc763          	blt	s7,a0,17dbe <_ZNSt8_Rb_treeINSt7__cxx1112basic_stringIcSt11char_traitsIcESaIcEEESt4pairIKS5_mESt10_Select1stIS8_ESt4lessIS5_ESaIS8_EE24_M_get_insert_unique_posERS7_.isra.0+0x58>
   17db4:	01554a63          	blt	a0,s5,17dc8 <_ZNSt8_Rb_treeINSt7__cxx1112basic_stringIcSt11char_traitsIcESaIcEEESt4pairIKS5_mESt10_Select1stIS8_ESt4lessIS5_ESaIS8_EE24_M_get_insert_unique_posERS7_.isra.0+0x62>
   17db8:	2501                	sext.w	a0,a0
   17dba:	00054763          	bltz	a0,17dc8 <_ZNSt8_Rb_treeINSt7__cxx1112basic_stringIcSt11char_traitsIcESaIcEEESt4pairIKS5_mESt10_Select1stIS8_ESt4lessIS5_ESaIS8_EE24_M_get_insert_unique_posERS7_.isra.0+0x62>
   17dbe:	6c1c                	ld	a5,24(s0)
   17dc0:	4701                	li	a4,0
   17dc2:	c791                	beqz	a5,17dce <_ZNSt8_Rb_treeINSt7__cxx1112basic_stringIcSt11char_traitsIcESaIcEEESt4pairIKS5_mESt10_Select1stIS8_ESt4lessIS5_ESaIS8_EE24_M_get_insert_unique_posERS7_.isra.0+0x68>
   17dc4:	843e                	mv	s0,a5
   17dc6:	b7e1                	j	17d8e <_ZNSt8_Rb_treeINSt7__cxx1112basic_stringIcSt11char_traitsIcESaIcEEESt4pairIKS5_mESt10_Select1stIS8_ESt4lessIS5_ESaIS8_EE24_M_get_insert_unique_posERS7_.isra.0+0x28>
   17dc8:	681c                	ld	a5,16(s0)
   17dca:	4705                	li	a4,1
   17dcc:	ffe5                	bnez	a5,17dc4 <_ZNSt8_Rb_treeINSt7__cxx1112basic_stringIcSt11char_traitsIcESaIcEEESt4pairIKS5_mESt10_Select1stIS8_ESt4lessIS5_ESaIS8_EE24_M_get_insert_unique_posERS7_.isra.0+0x5e>
   17dce:	6be2                	ld	s7,24(sp)
   17dd0:	8aa2                	mv	s5,s0
   17dd2:	e739                	bnez	a4,17e20 <_ZNSt8_Rb_treeINSt7__cxx1112basic_stringIcSt11char_traitsIcESaIcEEESt4pairIKS5_mESt10_Select1stIS8_ESt4lessIS5_ESaIS8_EE24_M_get_insert_unique_posERS7_.isra.0+0xba>
   17dd4:	00090863          	beqz	s2,17de4 <_ZNSt8_Rb_treeINSt7__cxx1112basic_stringIcSt11char_traitsIcESaIcEEESt4pairIKS5_mESt10_Select1stIS8_ESt4lessIS5_ESaIS8_EE24_M_get_insert_unique_posERS7_.isra.0+0x7e>
   17dd8:	864a                	mv	a2,s2
   17dda:	85d2                	mv	a1,s4
   17ddc:	8562                	mv	a0,s8
   17dde:	b13fd0ef          	jal	158f0 <memcmp@plt>
   17de2:	ed09                	bnez	a0,17dfc <_ZNSt8_Rb_treeINSt7__cxx1112basic_stringIcSt11char_traitsIcESaIcEEESt4pairIKS5_mESt10_Select1stIS8_ESt4lessIS5_ESaIS8_EE24_M_get_insert_unique_posERS7_.isra.0+0x96>
   17de4:	800007b7          	lui	a5,0x80000
   17de8:	413484b3          	sub	s1,s1,s3
   17dec:	fff7c713          	not	a4,a5
   17df0:	00974863          	blt	a4,s1,17e00 <_ZNSt8_Rb_treeINSt7__cxx1112basic_stringIcSt11char_traitsIcESaIcEEESt4pairIKS5_mESt10_Select1stIS8_ESt4lessIS5_ESaIS8_EE24_M_get_insert_unique_posERS7_.isra.0+0x9a>
   17df4:	04f4c663          	blt	s1,a5,17e40 <_ZNSt8_Rb_treeINSt7__cxx1112basic_stringIcSt11char_traitsIcESaIcEEESt4pairIKS5_mESt10_Select1stIS8_ESt4lessIS5_ESaIS8_EE24_M_get_insert_unique_posERS7_.isra.0+0xda>
   17df8:	0004851b          	sext.w	a0,s1
   17dfc:	04054263          	bltz	a0,17e40 <_ZNSt8_Rb_treeINSt7__cxx1112basic_stringIcSt11char_traitsIcESaIcEEESt4pairIKS5_mESt10_Select1stIS8_ESt4lessIS5_ESaIS8_EE24_M_get_insert_unique_posERS7_.isra.0+0xda>
   17e00:	4a81                	li	s5,0
   17e02:	60e6                	ld	ra,88(sp)
   17e04:	8522                	mv	a0,s0
   17e06:	6446                	ld	s0,80(sp)
   17e08:	64a6                	ld	s1,72(sp)
   17e0a:	6906                	ld	s2,64(sp)
   17e0c:	79e2                	ld	s3,56(sp)
   17e0e:	7a42                	ld	s4,48(sp)
   17e10:	7b02                	ld	s6,32(sp)
   17e12:	6c42                	ld	s8,16(sp)
   17e14:	85d6                	mv	a1,s5
   17e16:	7aa2                	ld	s5,40(sp)
   17e18:	6125                	addi	sp,sp,96
   17e1a:	8082                	ret
   17e1c:	00850413          	addi	s0,a0,8
   17e20:	018b3a83          	ld	s5,24(s6)
   17e24:	01540e63          	beq	s0,s5,17e40 <_ZNSt8_Rb_treeINSt7__cxx1112basic_stringIcSt11char_traitsIcESaIcEEESt4pairIKS5_mESt10_Select1stIS8_ESt4lessIS5_ESaIS8_EE24_M_get_insert_unique_posERS7_.isra.0+0xda>
   17e28:	8522                	mv	a0,s0
   17e2a:	a97fd0ef          	jal	158c0 <_ZSt18_Rb_tree_decrementPSt18_Rb_tree_node_base@plt>
   17e2e:	7504                	ld	s1,40(a0)
   17e30:	02053c03          	ld	s8,32(a0)
   17e34:	894e                	mv	s2,s3
   17e36:	0134e763          	bltu	s1,s3,17e44 <_ZNSt8_Rb_treeINSt7__cxx1112basic_stringIcSt11char_traitsIcESaIcEEESt4pairIKS5_mESt10_Select1stIS8_ESt4lessIS5_ESaIS8_EE24_M_get_insert_unique_posERS7_.isra.0+0xde>
   17e3a:	8aa2                	mv	s5,s0
   17e3c:	842a                	mv	s0,a0
   17e3e:	bf59                	j	17dd4 <_ZNSt8_Rb_treeINSt7__cxx1112basic_stringIcSt11char_traitsIcESaIcEEESt4pairIKS5_mESt10_Select1stIS8_ESt4lessIS5_ESaIS8_EE24_M_get_insert_unique_posERS7_.isra.0+0x6e>
   17e40:	4401                	li	s0,0
   17e42:	b7c1                	j	17e02 <_ZNSt8_Rb_treeINSt7__cxx1112basic_stringIcSt11char_traitsIcESaIcEEESt4pairIKS5_mESt10_Select1stIS8_ESt4lessIS5_ESaIS8_EE24_M_get_insert_unique_posERS7_.isra.0+0x9c>
   17e44:	8aa2                	mv	s5,s0
   17e46:	8926                	mv	s2,s1
   17e48:	842a                	mv	s0,a0
   17e4a:	b769                	j	17dd4 <_ZNSt8_Rb_treeINSt7__cxx1112basic_stringIcSt11char_traitsIcESaIcEEESt4pairIKS5_mESt10_Select1stIS8_ESt4lessIS5_ESaIS8_EE24_M_get_insert_unique_posERS7_.isra.0+0x6e>

0000000000017e4c <_ZN7testing8internal18OsStackTraceGetter17CurrentStackTraceB5cxx11Eii>:
   17e4c:	01050713          	addi	a4,a0,16
   17e50:	00053423          	sd	zero,8(a0)
   17e54:	00050823          	sb	zero,16(a0)
   17e58:	e118                	sd	a4,0(a0)
   17e5a:	8082                	ret

0000000000017e5c <_ZNSt7__cxx1112basic_stringIcSt11char_traitsIcESaIcEEC2EPKcRKS3_.isra.0>:
   17e5c:	7139                	addi	sp,sp,-64
   17e5e:	f426                	sd	s1,40(sp)
   17e60:	fc06                	sd	ra,56(sp)
   17e62:	f822                	sd	s0,48(sp)
   17e64:	f04a                	sd	s2,32(sp)
   17e66:	ec4e                	sd	s3,24(sp)
   17e68:	01050493          	addi	s1,a0,16
   17e6c:	e104                	sd	s1,0(a0)
   17e6e:	c1d9                	beqz	a1,17ef4 <_ZNSt7__cxx1112basic_stringIcSt11char_traitsIcESaIcEEC2EPKcRKS3_.isra.0+0x98>
   17e70:	892a                	mv	s2,a0
   17e72:	852e                	mv	a0,a1
   17e74:	89ae                	mv	s3,a1
   17e76:	c8bfd0ef          	jal	15b00 <strlen@plt>
   17e7a:	e42a                	sd	a0,8(sp)
   17e7c:	47bd                	li	a5,15
   17e7e:	842a                	mv	s0,a0
   17e80:	04a7e463          	bltu	a5,a0,17ec8 <_ZNSt7__cxx1112basic_stringIcSt11char_traitsIcESaIcEEC2EPKcRKS3_.isra.0+0x6c>
   17e84:	4785                	li	a5,1
   17e86:	02f51263          	bne	a0,a5,17eaa <_ZNSt7__cxx1112basic_stringIcSt11char_traitsIcESaIcEEC2EPKcRKS3_.isra.0+0x4e>
   17e8a:	0009c783          	lbu	a5,0(s3)
   17e8e:	00f90823          	sb	a5,16(s2)
   17e92:	00893423          	sd	s0,8(s2)
   17e96:	94a2                	add	s1,s1,s0
   17e98:	00048023          	sb	zero,0(s1)
   17e9c:	70e2                	ld	ra,56(sp)
   17e9e:	7442                	ld	s0,48(sp)
   17ea0:	74a2                	ld	s1,40(sp)
   17ea2:	7902                	ld	s2,32(sp)
   17ea4:	69e2                	ld	s3,24(sp)
   17ea6:	6121                	addi	sp,sp,64
   17ea8:	8082                	ret
   17eaa:	d565                	beqz	a0,17e92 <_ZNSt7__cxx1112basic_stringIcSt11char_traitsIcESaIcEEC2EPKcRKS3_.isra.0+0x36>
   17eac:	0c3477d7          	vsetvli	a5,s0,e8,m8,ta,ma
   17eb0:	02098407          	vle8.v	v8,(s3)
   17eb4:	8c1d                	sub	s0,s0,a5
   17eb6:	99be                	add	s3,s3,a5
   17eb8:	02048427          	vse8.v	v8,(s1)
   17ebc:	94be                	add	s1,s1,a5
   17ebe:	f47d                	bnez	s0,17eac <_ZNSt7__cxx1112basic_stringIcSt11char_traitsIcESaIcEEC2EPKcRKS3_.isra.0+0x50>
   17ec0:	6422                	ld	s0,8(sp)
   17ec2:	00093483          	ld	s1,0(s2)
   17ec6:	b7f1                	j	17e92 <_ZNSt7__cxx1112basic_stringIcSt11char_traitsIcESaIcEEC2EPKcRKS3_.isra.0+0x36>
   17ec8:	4601                	li	a2,0
   17eca:	002c                	addi	a1,sp,8
   17ecc:	854a                	mv	a0,s2
   17ece:	f12fd0ef          	jal	155e0 <_ZNSt7__cxx1112basic_stringIcSt11char_traitsIcESaIcEE9_M_createERmm@plt>
   17ed2:	67a2                	ld	a5,8(sp)
   17ed4:	00a93023          	sd	a0,0(s2)
   17ed8:	84aa                	mv	s1,a0
   17eda:	00f93823          	sd	a5,16(s2)
   17ede:	0c3477d7          	vsetvli	a5,s0,e8,m8,ta,ma
   17ee2:	02098407          	vle8.v	v8,(s3)
   17ee6:	8c1d                	sub	s0,s0,a5
   17ee8:	99be                	add	s3,s3,a5
   17eea:	02048427          	vse8.v	v8,(s1)
   17eee:	94be                	add	s1,s1,a5
   17ef0:	fc55                	bnez	s0,17eac <_ZNSt7__cxx1112basic_stringIcSt11char_traitsIcESaIcEEC2EPKcRKS3_.isra.0+0x50>
   17ef2:	b7f9                	j	17ec0 <_ZNSt7__cxx1112basic_stringIcSt11char_traitsIcESaIcEEC2EPKcRKS3_.isra.0+0x64>
   17ef4:	e0dfd0ef          	jal	15d00 <_ZNSt7__cxx1112basic_stringIcSt11char_traitsIcESaIcEEC2EPKcRKS3_.part.0>

0000000000017ef8 <_ZNSt8_Rb_treeINSt7__cxx1112basic_stringIcSt11char_traitsIcESaIcEEES5_St9_IdentityIS5_ESt4lessIS5_ESaIS5_EE8_M_eraseEPSt13_Rb_tree_nodeIS5_E.isra.0>:
   17ef8:	18050c63          	beqz	a0,18090 <_ZNSt8_Rb_treeINSt7__cxx1112basic_stringIcSt11char_traitsIcESaIcEEES5_St9_IdentityIS5_ESt4lessIS5_ESaIS5_EE8_M_eraseEPSt13_Rb_tree_nodeIS5_E.isra.0+0x198>
   17efc:	711d                	addi	sp,sp,-96
   17efe:	fc4e                	sd	s3,56(sp)
   17f00:	ec86                	sd	ra,88(sp)
   17f02:	e8a2                	sd	s0,80(sp)
   17f04:	f852                	sd	s4,48(sp)
   17f06:	89aa                	mv	s3,a0
   17f08:	0189ba03          	ld	s4,24(s3)
   17f0c:	140a0c63          	beqz	s4,18064 <_ZNSt8_Rb_treeINSt7__cxx1112basic_stringIcSt11char_traitsIcESaIcEEES5_St9_IdentityIS5_ESt4lessIS5_ESaIS5_EE8_M_eraseEPSt13_Rb_tree_nodeIS5_E.isra.0+0x16c>
   17f10:	e4a6                	sd	s1,72(sp)
   17f12:	e0ca                	sd	s2,64(sp)
   17f14:	f456                	sd	s5,40(sp)
   17f16:	f05a                	sd	s6,32(sp)
   17f18:	018a3a83          	ld	s5,24(s4)
   17f1c:	120a8063          	beqz	s5,1803c <_ZNSt8_Rb_treeINSt7__cxx1112basic_stringIcSt11char_traitsIcESaIcEEES5_St9_IdentityIS5_ESt4lessIS5_ESaIS5_EE8_M_eraseEPSt13_Rb_tree_nodeIS5_E.isra.0+0x144>
   17f20:	018abb03          	ld	s6,24(s5) # ffffffff80000018 <__global_pointer$+0xffffffff7ffb5288>
   17f24:	0e0b0c63          	beqz	s6,1801c <_ZNSt8_Rb_treeINSt7__cxx1112basic_stringIcSt11char_traitsIcESaIcEEES5_St9_IdentityIS5_ESt4lessIS5_ESaIS5_EE8_M_eraseEPSt13_Rb_tree_nodeIS5_E.isra.0+0x124>
   17f28:	018b3403          	ld	s0,24(s6)
   17f2c:	c845                	beqz	s0,17fdc <_ZNSt8_Rb_treeINSt7__cxx1112basic_stringIcSt11char_traitsIcESaIcEEES5_St9_IdentityIS5_ESt4lessIS5_ESaIS5_EE8_M_eraseEPSt13_Rb_tree_nodeIS5_E.isra.0+0xe4>
   17f2e:	01843903          	ld	s2,24(s0)
   17f32:	06090663          	beqz	s2,17f9e <_ZNSt8_Rb_treeINSt7__cxx1112basic_stringIcSt11char_traitsIcESaIcEEES5_St9_IdentityIS5_ESt4lessIS5_ESaIS5_EE8_M_eraseEPSt13_Rb_tree_nodeIS5_E.isra.0+0xa6>
   17f36:	e862                	sd	s8,16(sp)
   17f38:	01893c03          	ld	s8,24(s2)
   17f3c:	080c0063          	beqz	s8,17fbc <_ZNSt8_Rb_treeINSt7__cxx1112basic_stringIcSt11char_traitsIcESaIcEEES5_St9_IdentityIS5_ESt4lessIS5_ESaIS5_EE8_M_eraseEPSt13_Rb_tree_nodeIS5_E.isra.0+0xc4>
   17f40:	ec5e                	sd	s7,24(sp)
   17f42:	018c3483          	ld	s1,24(s8)
   17f46:	c8dd                	beqz	s1,17ffc <_ZNSt8_Rb_treeINSt7__cxx1112basic_stringIcSt11char_traitsIcESaIcEEES5_St9_IdentityIS5_ESt4lessIS5_ESaIS5_EE8_M_eraseEPSt13_Rb_tree_nodeIS5_E.isra.0+0x104>
   17f48:	0184bb83          	ld	s7,24(s1)
   17f4c:	020b8863          	beqz	s7,17f7c <_ZNSt8_Rb_treeINSt7__cxx1112basic_stringIcSt11char_traitsIcESaIcEEES5_St9_IdentityIS5_ESt4lessIS5_ESaIS5_EE8_M_eraseEPSt13_Rb_tree_nodeIS5_E.isra.0+0x84>
   17f50:	e466                	sd	s9,8(sp)
   17f52:	018bb503          	ld	a0,24(s7)
   17f56:	8cde                	mv	s9,s7
   17f58:	fa1ff0ef          	jal	17ef8 <_ZNSt8_Rb_treeINSt7__cxx1112basic_stringIcSt11char_traitsIcESaIcEEES5_St9_IdentityIS5_ESt4lessIS5_ESaIS5_EE8_M_eraseEPSt13_Rb_tree_nodeIS5_E.isra.0>
   17f5c:	020bb503          	ld	a0,32(s7)
   17f60:	030b8793          	addi	a5,s7,48
   17f64:	010bbb83          	ld	s7,16(s7)
   17f68:	00f50463          	beq	a0,a5,17f70 <_ZNSt8_Rb_treeINSt7__cxx1112basic_stringIcSt11char_traitsIcESaIcEEES5_St9_IdentityIS5_ESt4lessIS5_ESaIS5_EE8_M_eraseEPSt13_Rb_tree_nodeIS5_E.isra.0+0x78>
   17f6c:	8c5fd0ef          	jal	15830 <_ZdlPv@plt>
   17f70:	8566                	mv	a0,s9
   17f72:	8bffd0ef          	jal	15830 <_ZdlPv@plt>
   17f76:	fc0b9ee3          	bnez	s7,17f52 <_ZNSt8_Rb_treeINSt7__cxx1112basic_stringIcSt11char_traitsIcESaIcEEES5_St9_IdentityIS5_ESt4lessIS5_ESaIS5_EE8_M_eraseEPSt13_Rb_tree_nodeIS5_E.isra.0+0x5a>
   17f7a:	6ca2                	ld	s9,8(sp)
   17f7c:	7088                	ld	a0,32(s1)
   17f7e:	03048793          	addi	a5,s1,48
   17f82:	0104bb83          	ld	s7,16(s1)
   17f86:	00f50463          	beq	a0,a5,17f8e <_ZNSt8_Rb_treeINSt7__cxx1112basic_stringIcSt11char_traitsIcESaIcEEES5_St9_IdentityIS5_ESt4lessIS5_ESaIS5_EE8_M_eraseEPSt13_Rb_tree_nodeIS5_E.isra.0+0x96>
   17f8a:	8a7fd0ef          	jal	15830 <_ZdlPv@plt>
   17f8e:	8526                	mv	a0,s1
   17f90:	8a1fd0ef          	jal	15830 <_ZdlPv@plt>
   17f94:	060b8463          	beqz	s7,17ffc <_ZNSt8_Rb_treeINSt7__cxx1112basic_stringIcSt11char_traitsIcESaIcEEES5_St9_IdentityIS5_ESt4lessIS5_ESaIS5_EE8_M_eraseEPSt13_Rb_tree_nodeIS5_E.isra.0+0x104>
   17f98:	84de                	mv	s1,s7
   17f9a:	b77d                	j	17f48 <_ZNSt8_Rb_treeINSt7__cxx1112basic_stringIcSt11char_traitsIcESaIcEEES5_St9_IdentityIS5_ESt4lessIS5_ESaIS5_EE8_M_eraseEPSt13_Rb_tree_nodeIS5_E.isra.0+0x50>
   17f9c:	6c42                	ld	s8,16(sp)
   17f9e:	7008                	ld	a0,32(s0)
   17fa0:	03040793          	addi	a5,s0,48
   17fa4:	6804                	ld	s1,16(s0)
   17fa6:	00f50463          	beq	a0,a5,17fae <_ZNSt8_Rb_treeINSt7__cxx1112basic_stringIcSt11char_traitsIcESaIcEEES5_St9_IdentityIS5_ESt4lessIS5_ESaIS5_EE8_M_eraseEPSt13_Rb_tree_nodeIS5_E.isra.0+0xb6>
   17faa:	887fd0ef          	jal	15830 <_ZdlPv@plt>
   17fae:	8522                	mv	a0,s0
   17fb0:	881fd0ef          	jal	15830 <_ZdlPv@plt>
   17fb4:	c485                	beqz	s1,17fdc <_ZNSt8_Rb_treeINSt7__cxx1112basic_stringIcSt11char_traitsIcESaIcEEES5_St9_IdentityIS5_ESt4lessIS5_ESaIS5_EE8_M_eraseEPSt13_Rb_tree_nodeIS5_E.isra.0+0xe4>
   17fb6:	8426                	mv	s0,s1
   17fb8:	bf9d                	j	17f2e <_ZNSt8_Rb_treeINSt7__cxx1112basic_stringIcSt11char_traitsIcESaIcEEES5_St9_IdentityIS5_ESt4lessIS5_ESaIS5_EE8_M_eraseEPSt13_Rb_tree_nodeIS5_E.isra.0+0x36>
   17fba:	6be2                	ld	s7,24(sp)
   17fbc:	02093503          	ld	a0,32(s2)
   17fc0:	03090793          	addi	a5,s2,48
   17fc4:	01093483          	ld	s1,16(s2)
   17fc8:	00f50463          	beq	a0,a5,17fd0 <_ZNSt8_Rb_treeINSt7__cxx1112basic_stringIcSt11char_traitsIcESaIcEEES5_St9_IdentityIS5_ESt4lessIS5_ESaIS5_EE8_M_eraseEPSt13_Rb_tree_nodeIS5_E.isra.0+0xd8>
   17fcc:	865fd0ef          	jal	15830 <_ZdlPv@plt>
   17fd0:	854a                	mv	a0,s2
   17fd2:	85ffd0ef          	jal	15830 <_ZdlPv@plt>
   17fd6:	d0f9                	beqz	s1,17f9c <_ZNSt8_Rb_treeINSt7__cxx1112basic_stringIcSt11char_traitsIcESaIcEEES5_St9_IdentityIS5_ESt4lessIS5_ESaIS5_EE8_M_eraseEPSt13_Rb_tree_nodeIS5_E.isra.0+0xa4>
   17fd8:	8926                	mv	s2,s1
   17fda:	bfb9                	j	17f38 <_ZNSt8_Rb_treeINSt7__cxx1112basic_stringIcSt11char_traitsIcESaIcEEES5_St9_IdentityIS5_ESt4lessIS5_ESaIS5_EE8_M_eraseEPSt13_Rb_tree_nodeIS5_E.isra.0+0x40>
   17fdc:	020b3503          	ld	a0,32(s6)
   17fe0:	030b0793          	addi	a5,s6,48
   17fe4:	010b3403          	ld	s0,16(s6)
   17fe8:	00f50463          	beq	a0,a5,17ff0 <_ZNSt8_Rb_treeINSt7__cxx1112basic_stringIcSt11char_traitsIcESaIcEEES5_St9_IdentityIS5_ESt4lessIS5_ESaIS5_EE8_M_eraseEPSt13_Rb_tree_nodeIS5_E.isra.0+0xf8>
   17fec:	845fd0ef          	jal	15830 <_ZdlPv@plt>
   17ff0:	855a                	mv	a0,s6
   17ff2:	83ffd0ef          	jal	15830 <_ZdlPv@plt>
   17ff6:	c01d                	beqz	s0,1801c <_ZNSt8_Rb_treeINSt7__cxx1112basic_stringIcSt11char_traitsIcESaIcEEES5_St9_IdentityIS5_ESt4lessIS5_ESaIS5_EE8_M_eraseEPSt13_Rb_tree_nodeIS5_E.isra.0+0x124>
   17ff8:	8b22                	mv	s6,s0
   17ffa:	b73d                	j	17f28 <_ZNSt8_Rb_treeINSt7__cxx1112basic_stringIcSt11char_traitsIcESaIcEEES5_St9_IdentityIS5_ESt4lessIS5_ESaIS5_EE8_M_eraseEPSt13_Rb_tree_nodeIS5_E.isra.0+0x30>
   17ffc:	020c3503          	ld	a0,32(s8)
   18000:	030c0793          	addi	a5,s8,48
   18004:	010c3483          	ld	s1,16(s8)
   18008:	00f50463          	beq	a0,a5,18010 <_ZNSt8_Rb_treeINSt7__cxx1112basic_stringIcSt11char_traitsIcESaIcEEES5_St9_IdentityIS5_ESt4lessIS5_ESaIS5_EE8_M_eraseEPSt13_Rb_tree_nodeIS5_E.isra.0+0x118>
   1800c:	825fd0ef          	jal	15830 <_ZdlPv@plt>
   18010:	8562                	mv	a0,s8
   18012:	81ffd0ef          	jal	15830 <_ZdlPv@plt>
   18016:	d0d5                	beqz	s1,17fba <_ZNSt8_Rb_treeINSt7__cxx1112basic_stringIcSt11char_traitsIcESaIcEEES5_St9_IdentityIS5_ESt4lessIS5_ESaIS5_EE8_M_eraseEPSt13_Rb_tree_nodeIS5_E.isra.0+0xc2>
   18018:	8c26                	mv	s8,s1
   1801a:	b725                	j	17f42 <_ZNSt8_Rb_treeINSt7__cxx1112basic_stringIcSt11char_traitsIcESaIcEEES5_St9_IdentityIS5_ESt4lessIS5_ESaIS5_EE8_M_eraseEPSt13_Rb_tree_nodeIS5_E.isra.0+0x4a>
   1801c:	020ab503          	ld	a0,32(s5)
   18020:	030a8793          	addi	a5,s5,48
   18024:	010ab403          	ld	s0,16(s5)
   18028:	00f50463          	beq	a0,a5,18030 <_ZNSt8_Rb_treeINSt7__cxx1112basic_stringIcSt11char_traitsIcESaIcEEES5_St9_IdentityIS5_ESt4lessIS5_ESaIS5_EE8_M_eraseEPSt13_Rb_tree_nodeIS5_E.isra.0+0x138>
   1802c:	805fd0ef          	jal	15830 <_ZdlPv@plt>
   18030:	8556                	mv	a0,s5
   18032:	ffefd0ef          	jal	15830 <_ZdlPv@plt>
   18036:	c019                	beqz	s0,1803c <_ZNSt8_Rb_treeINSt7__cxx1112basic_stringIcSt11char_traitsIcESaIcEEES5_St9_IdentityIS5_ESt4lessIS5_ESaIS5_EE8_M_eraseEPSt13_Rb_tree_nodeIS5_E.isra.0+0x144>
   18038:	8aa2                	mv	s5,s0
   1803a:	b5dd                	j	17f20 <_ZNSt8_Rb_treeINSt7__cxx1112basic_stringIcSt11char_traitsIcESaIcEEES5_St9_IdentityIS5_ESt4lessIS5_ESaIS5_EE8_M_eraseEPSt13_Rb_tree_nodeIS5_E.isra.0+0x28>
   1803c:	020a3503          	ld	a0,32(s4)
   18040:	030a0793          	addi	a5,s4,48
   18044:	010a3403          	ld	s0,16(s4)
   18048:	00f50463          	beq	a0,a5,18050 <_ZNSt8_Rb_treeINSt7__cxx1112basic_stringIcSt11char_traitsIcESaIcEEES5_St9_IdentityIS5_ESt4lessIS5_ESaIS5_EE8_M_eraseEPSt13_Rb_tree_nodeIS5_E.isra.0+0x158>
   1804c:	fe4fd0ef          	jal	15830 <_ZdlPv@plt>
   18050:	8552                	mv	a0,s4
   18052:	fdefd0ef          	jal	15830 <_ZdlPv@plt>
   18056:	c019                	beqz	s0,1805c <_ZNSt8_Rb_treeINSt7__cxx1112basic_stringIcSt11char_traitsIcESaIcEEES5_St9_IdentityIS5_ESt4lessIS5_ESaIS5_EE8_M_eraseEPSt13_Rb_tree_nodeIS5_E.isra.0+0x164>
   18058:	8a22                	mv	s4,s0
   1805a:	bd7d                	j	17f18 <_ZNSt8_Rb_treeINSt7__cxx1112basic_stringIcSt11char_traitsIcESaIcEEES5_St9_IdentityIS5_ESt4lessIS5_ESaIS5_EE8_M_eraseEPSt13_Rb_tree_nodeIS5_E.isra.0+0x20>
   1805c:	64a6                	ld	s1,72(sp)
   1805e:	6906                	ld	s2,64(sp)
   18060:	7aa2                	ld	s5,40(sp)
   18062:	7b02                	ld	s6,32(sp)
   18064:	0209b503          	ld	a0,32(s3)
   18068:	03098793          	addi	a5,s3,48
   1806c:	0109b403          	ld	s0,16(s3)
   18070:	00f50463          	beq	a0,a5,18078 <_ZNSt8_Rb_treeINSt7__cxx1112basic_stringIcSt11char_traitsIcESaIcEEES5_St9_IdentityIS5_ESt4lessIS5_ESaIS5_EE8_M_eraseEPSt13_Rb_tree_nodeIS5_E.isra.0+0x180>
   18074:	fbcfd0ef          	jal	15830 <_ZdlPv@plt>
   18078:	854e                	mv	a0,s3
   1807a:	fb6fd0ef          	jal	15830 <_ZdlPv@plt>
   1807e:	c019                	beqz	s0,18084 <_ZNSt8_Rb_treeINSt7__cxx1112basic_stringIcSt11char_traitsIcESaIcEEES5_St9_IdentityIS5_ESt4lessIS5_ESaIS5_EE8_M_eraseEPSt13_Rb_tree_nodeIS5_E.isra.0+0x18c>
   18080:	89a2                	mv	s3,s0
   18082:	b559                	j	17f08 <_ZNSt8_Rb_treeINSt7__cxx1112basic_stringIcSt11char_traitsIcESaIcEEES5_St9_IdentityIS5_ESt4lessIS5_ESaIS5_EE8_M_eraseEPSt13_Rb_tree_nodeIS5_E.isra.0+0x10>
   18084:	60e6                	ld	ra,88(sp)
   18086:	6446                	ld	s0,80(sp)
   18088:	79e2                	ld	s3,56(sp)
   1808a:	7a42                	ld	s4,48(sp)
   1808c:	6125                	addi	sp,sp,96
   1808e:	8082                	ret
   18090:	8082                	ret

0000000000018092 <_ZNSt8_Rb_treeINSt7__cxx1112basic_stringIcSt11char_traitsIcESaIcEEESt4pairIKS5_mESt10_Select1stIS8_ESt4lessIS5_ESaIS8_EE8_M_eraseEPSt13_Rb_tree_nodeIS8_E.isra.0>:
   18092:	18050c63          	beqz	a0,1822a <_ZNSt8_Rb_treeINSt7__cxx1112basic_stringIcSt11char_traitsIcESaIcEEESt4pairIKS5_mESt10_Select1stIS8_ESt4lessIS5_ESaIS8_EE8_M_eraseEPSt13_Rb_tree_nodeIS8_E.isra.0+0x198>
   18096:	711d                	addi	sp,sp,-96
   18098:	fc4e                	sd	s3,56(sp)
   1809a:	ec86                	sd	ra,88(sp)
   1809c:	e8a2                	sd	s0,80(sp)
   1809e:	f852                	sd	s4,48(sp)
   180a0:	89aa                	mv	s3,a0
   180a2:	0189ba03          	ld	s4,24(s3)
   180a6:	140a0c63          	beqz	s4,181fe <_ZNSt8_Rb_treeINSt7__cxx1112basic_stringIcSt11char_traitsIcESaIcEEESt4pairIKS5_mESt10_Select1stIS8_ESt4lessIS5_ESaIS8_EE8_M_eraseEPSt13_Rb_tree_nodeIS8_E.isra.0+0x16c>
   180aa:	e4a6                	sd	s1,72(sp)
   180ac:	e0ca                	sd	s2,64(sp)
   180ae:	f456                	sd	s5,40(sp)
   180b0:	f05a                	sd	s6,32(sp)
   180b2:	018a3a83          	ld	s5,24(s4)
   180b6:	120a8063          	beqz	s5,181d6 <_ZNSt8_Rb_treeINSt7__cxx1112basic_stringIcSt11char_traitsIcESaIcEEESt4pairIKS5_mESt10_Select1stIS8_ESt4lessIS5_ESaIS8_EE8_M_eraseEPSt13_Rb_tree_nodeIS8_E.isra.0+0x144>
   180ba:	018abb03          	ld	s6,24(s5)
   180be:	0e0b0c63          	beqz	s6,181b6 <_ZNSt8_Rb_treeINSt7__cxx1112basic_stringIcSt11char_traitsIcESaIcEEESt4pairIKS5_mESt10_Select1stIS8_ESt4lessIS5_ESaIS8_EE8_M_eraseEPSt13_Rb_tree_nodeIS8_E.isra.0+0x124>
   180c2:	018b3403          	ld	s0,24(s6)
   180c6:	c845                	beqz	s0,18176 <_ZNSt8_Rb_treeINSt7__cxx1112basic_stringIcSt11char_traitsIcESaIcEEESt4pairIKS5_mESt10_Select1stIS8_ESt4lessIS5_ESaIS8_EE8_M_eraseEPSt13_Rb_tree_nodeIS8_E.isra.0+0xe4>
   180c8:	01843903          	ld	s2,24(s0)
   180cc:	06090663          	beqz	s2,18138 <_ZNSt8_Rb_treeINSt7__cxx1112basic_stringIcSt11char_traitsIcESaIcEEESt4pairIKS5_mESt10_Select1stIS8_ESt4lessIS5_ESaIS8_EE8_M_eraseEPSt13_Rb_tree_nodeIS8_E.isra.0+0xa6>
   180d0:	e862                	sd	s8,16(sp)
   180d2:	01893c03          	ld	s8,24(s2)
   180d6:	080c0063          	beqz	s8,18156 <_ZNSt8_Rb_treeINSt7__cxx1112basic_stringIcSt11char_traitsIcESaIcEEESt4pairIKS5_mESt10_Select1stIS8_ESt4lessIS5_ESaIS8_EE8_M_eraseEPSt13_Rb_tree_nodeIS8_E.isra.0+0xc4>
   180da:	ec5e                	sd	s7,24(sp)
   180dc:	018c3483          	ld	s1,24(s8)
   180e0:	c8dd                	beqz	s1,18196 <_ZNSt8_Rb_treeINSt7__cxx1112basic_stringIcSt11char_traitsIcESaIcEEESt4pairIKS5_mESt10_Select1stIS8_ESt4lessIS5_ESaIS8_EE8_M_eraseEPSt13_Rb_tree_nodeIS8_E.isra.0+0x104>
   180e2:	0184bb83          	ld	s7,24(s1)
   180e6:	020b8863          	beqz	s7,18116 <_ZNSt8_Rb_treeINSt7__cxx1112basic_stringIcSt11char_traitsIcESaIcEEESt4pairIKS5_mESt10_Select1stIS8_ESt4lessIS5_ESaIS8_EE8_M_eraseEPSt13_Rb_tree_nodeIS8_E.isra.0+0x84>
   180ea:	e466                	sd	s9,8(sp)
   180ec:	018bb503          	ld	a0,24(s7)
   180f0:	8cde                	mv	s9,s7
   180f2:	fa1ff0ef          	jal	18092 <_ZNSt8_Rb_treeINSt7__cxx1112basic_stringIcSt11char_traitsIcESaIcEEESt4pairIKS5_mESt10_Select1stIS8_ESt4lessIS5_ESaIS8_EE8_M_eraseEPSt13_Rb_tree_nodeIS8_E.isra.0>
   180f6:	020bb503          	ld	a0,32(s7)
   180fa:	030b8793          	addi	a5,s7,48
   180fe:	010bbb83          	ld	s7,16(s7)
   18102:	00f50463          	beq	a0,a5,1810a <_ZNSt8_Rb_treeINSt7__cxx1112basic_stringIcSt11char_traitsIcESaIcEEESt4pairIKS5_mESt10_Select1stIS8_ESt4lessIS5_ESaIS8_EE8_M_eraseEPSt13_Rb_tree_nodeIS8_E.isra.0+0x78>
   18106:	f2afd0ef          	jal	15830 <_ZdlPv@plt>
   1810a:	8566                	mv	a0,s9
   1810c:	f24fd0ef          	jal	15830 <_ZdlPv@plt>
   18110:	fc0b9ee3          	bnez	s7,180ec <_ZNSt8_Rb_treeINSt7__cxx1112basic_stringIcSt11char_traitsIcESaIcEEESt4pairIKS5_mESt10_Select1stIS8_ESt4lessIS5_ESaIS8_EE8_M_eraseEPSt13_Rb_tree_nodeIS8_E.isra.0+0x5a>
   18114:	6ca2                	ld	s9,8(sp)
   18116:	7088                	ld	a0,32(s1)
   18118:	03048793          	addi	a5,s1,48
   1811c:	0104bb83          	ld	s7,16(s1)
   18120:	00f50463          	beq	a0,a5,18128 <_ZNSt8_Rb_treeINSt7__cxx1112basic_stringIcSt11char_traitsIcESaIcEEESt4pairIKS5_mESt10_Select1stIS8_ESt4lessIS5_ESaIS8_EE8_M_eraseEPSt13_Rb_tree_nodeIS8_E.isra.0+0x96>
   18124:	f0cfd0ef          	jal	15830 <_ZdlPv@plt>
   18128:	8526                	mv	a0,s1
   1812a:	f06fd0ef          	jal	15830 <_ZdlPv@plt>
   1812e:	060b8463          	beqz	s7,18196 <_ZNSt8_Rb_treeINSt7__cxx1112basic_stringIcSt11char_traitsIcESaIcEEESt4pairIKS5_mESt10_Select1stIS8_ESt4lessIS5_ESaIS8_EE8_M_eraseEPSt13_Rb_tree_nodeIS8_E.isra.0+0x104>
   18132:	84de                	mv	s1,s7
   18134:	b77d                	j	180e2 <_ZNSt8_Rb_treeINSt7__cxx1112basic_stringIcSt11char_traitsIcESaIcEEESt4pairIKS5_mESt10_Select1stIS8_ESt4lessIS5_ESaIS8_EE8_M_eraseEPSt13_Rb_tree_nodeIS8_E.isra.0+0x50>
   18136:	6c42                	ld	s8,16(sp)
   18138:	7008                	ld	a0,32(s0)
   1813a:	03040793          	addi	a5,s0,48
   1813e:	6804                	ld	s1,16(s0)
   18140:	00f50463          	beq	a0,a5,18148 <_ZNSt8_Rb_treeINSt7__cxx1112basic_stringIcSt11char_traitsIcESaIcEEESt4pairIKS5_mESt10_Select1stIS8_ESt4lessIS5_ESaIS8_EE8_M_eraseEPSt13_Rb_tree_nodeIS8_E.isra.0+0xb6>
   18144:	eecfd0ef          	jal	15830 <_ZdlPv@plt>
   18148:	8522                	mv	a0,s0
   1814a:	ee6fd0ef          	jal	15830 <_ZdlPv@plt>
   1814e:	c485                	beqz	s1,18176 <_ZNSt8_Rb_treeINSt7__cxx1112basic_stringIcSt11char_traitsIcESaIcEEESt4pairIKS5_mESt10_Select1stIS8_ESt4lessIS5_ESaIS8_EE8_M_eraseEPSt13_Rb_tree_nodeIS8_E.isra.0+0xe4>
   18150:	8426                	mv	s0,s1
   18152:	bf9d                	j	180c8 <_ZNSt8_Rb_treeINSt7__cxx1112basic_stringIcSt11char_traitsIcESaIcEEESt4pairIKS5_mESt10_Select1stIS8_ESt4lessIS5_ESaIS8_EE8_M_eraseEPSt13_Rb_tree_nodeIS8_E.isra.0+0x36>
   18154:	6be2                	ld	s7,24(sp)
   18156:	02093503          	ld	a0,32(s2)
   1815a:	03090793          	addi	a5,s2,48
   1815e:	01093483          	ld	s1,16(s2)
   18162:	00f50463          	beq	a0,a5,1816a <_ZNSt8_Rb_treeINSt7__cxx1112basic_stringIcSt11char_traitsIcESaIcEEESt4pairIKS5_mESt10_Select1stIS8_ESt4lessIS5_ESaIS8_EE8_M_eraseEPSt13_Rb_tree_nodeIS8_E.isra.0+0xd8>
   18166:	ecafd0ef          	jal	15830 <_ZdlPv@plt>
   1816a:	854a                	mv	a0,s2
   1816c:	ec4fd0ef          	jal	15830 <_ZdlPv@plt>
   18170:	d0f9                	beqz	s1,18136 <_ZNSt8_Rb_treeINSt7__cxx1112basic_stringIcSt11char_traitsIcESaIcEEESt4pairIKS5_mESt10_Select1stIS8_ESt4lessIS5_ESaIS8_EE8_M_eraseEPSt13_Rb_tree_nodeIS8_E.isra.0+0xa4>
   18172:	8926                	mv	s2,s1
   18174:	bfb9                	j	180d2 <_ZNSt8_Rb_treeINSt7__cxx1112basic_stringIcSt11char_traitsIcESaIcEEESt4pairIKS5_mESt10_Select1stIS8_ESt4lessIS5_ESaIS8_EE8_M_eraseEPSt13_Rb_tree_nodeIS8_E.isra.0+0x40>
   18176:	020b3503          	ld	a0,32(s6)
   1817a:	030b0793          	addi	a5,s6,48
   1817e:	010b3403          	ld	s0,16(s6)
   18182:	00f50463          	beq	a0,a5,1818a <_ZNSt8_Rb_treeINSt7__cxx1112basic_stringIcSt11char_traitsIcESaIcEEESt4pairIKS5_mESt10_Select1stIS8_ESt4lessIS5_ESaIS8_EE8_M_eraseEPSt13_Rb_tree_nodeIS8_E.isra.0+0xf8>
   18186:	eaafd0ef          	jal	15830 <_ZdlPv@plt>
   1818a:	855a                	mv	a0,s6
   1818c:	ea4fd0ef          	jal	15830 <_ZdlPv@plt>
   18190:	c01d                	beqz	s0,181b6 <_ZNSt8_Rb_treeINSt7__cxx1112basic_stringIcSt11char_traitsIcESaIcEEESt4pairIKS5_mESt10_Select1stIS8_ESt4lessIS5_ESaIS8_EE8_M_eraseEPSt13_Rb_tree_nodeIS8_E.isra.0+0x124>
   18192:	8b22                	mv	s6,s0
   18194:	b73d                	j	180c2 <_ZNSt8_Rb_treeINSt7__cxx1112basic_stringIcSt11char_traitsIcESaIcEEESt4pairIKS5_mESt10_Select1stIS8_ESt4lessIS5_ESaIS8_EE8_M_eraseEPSt13_Rb_tree_nodeIS8_E.isra.0+0x30>
   18196:	020c3503          	ld	a0,32(s8)
   1819a:	030c0793          	addi	a5,s8,48
   1819e:	010c3483          	ld	s1,16(s8)
   181a2:	00f50463          	beq	a0,a5,181aa <_ZNSt8_Rb_treeINSt7__cxx1112basic_stringIcSt11char_traitsIcESaIcEEESt4pairIKS5_mESt10_Select1stIS8_ESt4lessIS5_ESaIS8_EE8_M_eraseEPSt13_Rb_tree_nodeIS8_E.isra.0+0x118>
   181a6:	e8afd0ef          	jal	15830 <_ZdlPv@plt>
   181aa:	8562                	mv	a0,s8
   181ac:	e84fd0ef          	jal	15830 <_ZdlPv@plt>
   181b0:	d0d5                	beqz	s1,18154 <_ZNSt8_Rb_treeINSt7__cxx1112basic_stringIcSt11char_traitsIcESaIcEEESt4pairIKS5_mESt10_Select1stIS8_ESt4lessIS5_ESaIS8_EE8_M_eraseEPSt13_Rb_tree_nodeIS8_E.isra.0+0xc2>
   181b2:	8c26                	mv	s8,s1
   181b4:	b725                	j	180dc <_ZNSt8_Rb_treeINSt7__cxx1112basic_stringIcSt11char_traitsIcESaIcEEESt4pairIKS5_mESt10_Select1stIS8_ESt4lessIS5_ESaIS8_EE8_M_eraseEPSt13_Rb_tree_nodeIS8_E.isra.0+0x4a>
   181b6:	020ab503          	ld	a0,32(s5)
   181ba:	030a8793          	addi	a5,s5,48
   181be:	010ab403          	ld	s0,16(s5)
   181c2:	00f50463          	beq	a0,a5,181ca <_ZNSt8_Rb_treeINSt7__cxx1112basic_stringIcSt11char_traitsIcESaIcEEESt4pairIKS5_mESt10_Select1stIS8_ESt4lessIS5_ESaIS8_EE8_M_eraseEPSt13_Rb_tree_nodeIS8_E.isra.0+0x138>
   181c6:	e6afd0ef          	jal	15830 <_ZdlPv@plt>
   181ca:	8556                	mv	a0,s5
   181cc:	e64fd0ef          	jal	15830 <_ZdlPv@plt>
   181d0:	c019                	beqz	s0,181d6 <_ZNSt8_Rb_treeINSt7__cxx1112basic_stringIcSt11char_traitsIcESaIcEEESt4pairIKS5_mESt10_Select1stIS8_ESt4lessIS5_ESaIS8_EE8_M_eraseEPSt13_Rb_tree_nodeIS8_E.isra.0+0x144>
   181d2:	8aa2                	mv	s5,s0
   181d4:	b5dd                	j	180ba <_ZNSt8_Rb_treeINSt7__cxx1112basic_stringIcSt11char_traitsIcESaIcEEESt4pairIKS5_mESt10_Select1stIS8_ESt4lessIS5_ESaIS8_EE8_M_eraseEPSt13_Rb_tree_nodeIS8_E.isra.0+0x28>
   181d6:	020a3503          	ld	a0,32(s4)
   181da:	030a0793          	addi	a5,s4,48
   181de:	010a3403          	ld	s0,16(s4)
   181e2:	00f50463          	beq	a0,a5,181ea <_ZNSt8_Rb_treeINSt7__cxx1112basic_stringIcSt11char_traitsIcESaIcEEESt4pairIKS5_mESt10_Select1stIS8_ESt4lessIS5_ESaIS8_EE8_M_eraseEPSt13_Rb_tree_nodeIS8_E.isra.0+0x158>
   181e6:	e4afd0ef          	jal	15830 <_ZdlPv@plt>
   181ea:	8552                	mv	a0,s4
   181ec:	e44fd0ef          	jal	15830 <_ZdlPv@plt>
   181f0:	c019                	beqz	s0,181f6 <_ZNSt8_Rb_treeINSt7__cxx1112basic_stringIcSt11char_traitsIcESaIcEEESt4pairIKS5_mESt10_Select1stIS8_ESt4lessIS5_ESaIS8_EE8_M_eraseEPSt13_Rb_tree_nodeIS8_E.isra.0+0x164>
   181f2:	8a22                	mv	s4,s0
   181f4:	bd7d                	j	180b2 <_ZNSt8_Rb_treeINSt7__cxx1112basic_stringIcSt11char_traitsIcESaIcEEESt4pairIKS5_mESt10_Select1stIS8_ESt4lessIS5_ESaIS8_EE8_M_eraseEPSt13_Rb_tree_nodeIS8_E.isra.0+0x20>
   181f6:	64a6                	ld	s1,72(sp)
   181f8:	6906                	ld	s2,64(sp)
   181fa:	7aa2                	ld	s5,40(sp)
   181fc:	7b02                	ld	s6,32(sp)
   181fe:	0209b503          	ld	a0,32(s3)
   18202:	03098793          	addi	a5,s3,48
   18206:	0109b403          	ld	s0,16(s3)
   1820a:	00f50463          	beq	a0,a5,18212 <_ZNSt8_Rb_treeINSt7__cxx1112basic_stringIcSt11char_traitsIcESaIcEEESt4pairIKS5_mESt10_Select1stIS8_ESt4lessIS5_ESaIS8_EE8_M_eraseEPSt13_Rb_tree_nodeIS8_E.isra.0+0x180>
   1820e:	e22fd0ef          	jal	15830 <_ZdlPv@plt>
   18212:	854e                	mv	a0,s3
   18214:	e1cfd0ef          	jal	15830 <_ZdlPv@plt>
   18218:	c019                	beqz	s0,1821e <_ZNSt8_Rb_treeINSt7__cxx1112basic_stringIcSt11char_traitsIcESaIcEEESt4pairIKS5_mESt10_Select1stIS8_ESt4lessIS5_ESaIS8_EE8_M_eraseEPSt13_Rb_tree_nodeIS8_E.isra.0+0x18c>
   1821a:	89a2                	mv	s3,s0
   1821c:	b559                	j	180a2 <_ZNSt8_Rb_treeINSt7__cxx1112basic_stringIcSt11char_traitsIcESaIcEEESt4pairIKS5_mESt10_Select1stIS8_ESt4lessIS5_ESaIS8_EE8_M_eraseEPSt13_Rb_tree_nodeIS8_E.isra.0+0x10>
   1821e:	60e6                	ld	ra,88(sp)
   18220:	6446                	ld	s0,80(sp)
   18222:	79e2                	ld	s3,56(sp)
   18224:	7a42                	ld	s4,48(sp)
   18226:	6125                	addi	sp,sp,96
   18228:	8082                	ret
   1822a:	8082                	ret

000000000001822c <_ZN7testing8internalL14ParseFlagValueEPKcS2_b>:
   1822c:	7135                	addi	sp,sp,-160
   1822e:	ed06                	sd	ra,152(sp)
   18230:	e922                	sd	s0,144(sp)
   18232:	10050a63          	beqz	a0,18346 <_ZN7testing8internalL14ParseFlagValueEPKcS2_b+0x11a>
   18236:	842e                	mv	s0,a1
   18238:	10058763          	beqz	a1,18346 <_ZN7testing8internalL14ParseFlagValueEPKcS2_b+0x11a>
   1823c:	f4d6                	sd	s5,104(sp)
   1823e:	678d                	lui	a5,0x3
   18240:	02010a93          	addi	s5,sp,32
   18244:	e526                	sd	s1,136(sp)
   18246:	e14a                	sd	s2,128(sp)
   18248:	f8d2                	sd	s4,112(sp)
   1824a:	84aa                	mv	s1,a0
   1824c:	8932                	mv	s2,a2
   1824e:	d2d78793          	addi	a5,a5,-723 # 2d2d <__abi_tag-0xd567>
   18252:	03010a13          	addi	s4,sp,48
   18256:	4709                	li	a4,2
   18258:	8556                	mv	a0,s5
   1825a:	4619                	li	a2,6
   1825c:	00020597          	auipc	a1,0x20
   18260:	b9458593          	addi	a1,a1,-1132 # 37df0 <_IO_stdin_used+0x348>
   18264:	fcce                	sd	s3,120(sp)
   18266:	f0da                	sd	s6,96(sp)
   18268:	02010923          	sb	zero,50(sp)
   1826c:	02f11823          	sh	a5,48(sp)
   18270:	f052                	sd	s4,32(sp)
   18272:	f43a                	sd	a4,40(sp)
   18274:	e5cfd0ef          	jal	158d0 <_ZNSt7__cxx1112basic_stringIcSt11char_traitsIcESaIcEE9_M_appendEPKcm@plt>
   18278:	05010993          	addi	s3,sp,80
   1827c:	e0ce                	sd	s3,64(sp)
   1827e:	6118                	ld	a4,0(a0)
   18280:	01050793          	addi	a5,a0,16
   18284:	0ef70663          	beq	a4,a5,18370 <_ZN7testing8internalL14ParseFlagValueEPKcS2_b+0x144>
   18288:	6914                	ld	a3,16(a0)
   1828a:	e0ba                	sd	a4,64(sp)
   1828c:	e8b6                	sd	a3,80(sp)
   1828e:	00853b03          	ld	s6,8(a0)
   18292:	e11c                	sd	a5,0(a0)
   18294:	00050823          	sb	zero,16(a0)
   18298:	00053423          	sd	zero,8(a0)
   1829c:	8522                	mv	a0,s0
   1829e:	e4da                	sd	s6,72(sp)
   182a0:	861fd0ef          	jal	15b00 <strlen@plt>
   182a4:	57fd                	li	a5,-1
   182a6:	8389                	srli	a5,a5,0x2
   182a8:	416787b3          	sub	a5,a5,s6
   182ac:	862a                	mv	a2,a0
   182ae:	0ea7e063          	bltu	a5,a0,1838e <_ZN7testing8internalL14ParseFlagValueEPKcS2_b+0x162>
   182b2:	04010b13          	addi	s6,sp,64
   182b6:	85a2                	mv	a1,s0
   182b8:	855a                	mv	a0,s6
   182ba:	e16fd0ef          	jal	158d0 <_ZNSt7__cxx1112basic_stringIcSt11char_traitsIcESaIcEE9_M_appendEPKcm@plt>
   182be:	01010a93          	addi	s5,sp,16
   182c2:	e056                	sd	s5,0(sp)
   182c4:	6114                	ld	a3,0(a0)
   182c6:	01050713          	addi	a4,a0,16
   182ca:	87aa                	mv	a5,a0
   182cc:	08e68363          	beq	a3,a4,18352 <_ZN7testing8internalL14ParseFlagValueEPKcS2_b+0x126>
   182d0:	6910                	ld	a2,16(a0)
   182d2:	e036                	sd	a3,0(sp)
   182d4:	e832                	sd	a2,16(sp)
   182d6:	e398                	sd	a4,0(a5)
   182d8:	6798                	ld	a4,8(a5)
   182da:	6506                	ld	a0,64(sp)
   182dc:	00078823          	sb	zero,16(a5)
   182e0:	e43a                	sd	a4,8(sp)
   182e2:	0007b423          	sd	zero,8(a5)
   182e6:	01350463          	beq	a0,s3,182ee <_ZN7testing8internalL14ParseFlagValueEPKcS2_b+0xc2>
   182ea:	d46fd0ef          	jal	15830 <_ZdlPv@plt>
   182ee:	7502                	ld	a0,32(sp)
   182f0:	01450463          	beq	a0,s4,182f8 <_ZN7testing8internalL14ParseFlagValueEPKcS2_b+0xcc>
   182f4:	d3cfd0ef          	jal	15830 <_ZdlPv@plt>
   182f8:	6a22                	ld	s4,8(sp)
   182fa:	6982                	ld	s3,0(sp)
   182fc:	8526                	mv	a0,s1
   182fe:	8652                	mv	a2,s4
   18300:	85ce                	mv	a1,s3
   18302:	f4ffc0ef          	jal	15250 <strncmp@plt>
   18306:	4401                	li	s0,0
   18308:	ed09                	bnez	a0,18322 <_ZN7testing8internalL14ParseFlagValueEPKcS2_b+0xf6>
   1830a:	01448433          	add	s0,s1,s4
   1830e:	00044783          	lbu	a5,0(s0)
   18312:	02091863          	bnez	s2,18342 <_ZN7testing8internalL14ParseFlagValueEPKcS2_b+0x116>
   18316:	03d00713          	li	a4,61
   1831a:	0405                	addi	s0,s0,1
   1831c:	00e78363          	beq	a5,a4,18322 <_ZN7testing8internalL14ParseFlagValueEPKcS2_b+0xf6>
   18320:	4401                	li	s0,0
   18322:	01598563          	beq	s3,s5,1832c <_ZN7testing8internalL14ParseFlagValueEPKcS2_b+0x100>
   18326:	854e                	mv	a0,s3
   18328:	d08fd0ef          	jal	15830 <_ZdlPv@plt>
   1832c:	60ea                	ld	ra,152(sp)
   1832e:	8522                	mv	a0,s0
   18330:	644a                	ld	s0,144(sp)
   18332:	64aa                	ld	s1,136(sp)
   18334:	690a                	ld	s2,128(sp)
   18336:	79e6                	ld	s3,120(sp)
   18338:	7a46                	ld	s4,112(sp)
   1833a:	7aa6                	ld	s5,104(sp)
   1833c:	7b06                	ld	s6,96(sp)
   1833e:	610d                	addi	sp,sp,160
   18340:	8082                	ret
   18342:	fbf1                	bnez	a5,18316 <_ZN7testing8internalL14ParseFlagValueEPKcS2_b+0xea>
   18344:	bff9                	j	18322 <_ZN7testing8internalL14ParseFlagValueEPKcS2_b+0xf6>
   18346:	4401                	li	s0,0
   18348:	60ea                	ld	ra,152(sp)
   1834a:	8522                	mv	a0,s0
   1834c:	644a                	ld	s0,144(sp)
   1834e:	610d                	addi	sp,sp,160
   18350:	8082                	ret
   18352:	6514                	ld	a3,8(a0)
   18354:	85d6                	mv	a1,s5
   18356:	853a                	mv	a0,a4
   18358:	0685                	addi	a3,a3,1
   1835a:	0c36f657          	vsetvli	a2,a3,e8,m8,ta,ma
   1835e:	02050407          	vle8.v	v8,(a0)
   18362:	8e91                	sub	a3,a3,a2
   18364:	9532                	add	a0,a0,a2
   18366:	02058427          	vse8.v	v8,(a1)
   1836a:	95b2                	add	a1,a1,a2
   1836c:	f6fd                	bnez	a3,1835a <_ZN7testing8internalL14ParseFlagValueEPKcS2_b+0x12e>
   1836e:	b7a5                	j	182d6 <_ZN7testing8internalL14ParseFlagValueEPKcS2_b+0xaa>
   18370:	6518                	ld	a4,8(a0)
   18372:	864e                	mv	a2,s3
   18374:	85be                	mv	a1,a5
   18376:	0705                	addi	a4,a4,1
   18378:	0c3776d7          	vsetvli	a3,a4,e8,m8,ta,ma
   1837c:	02058407          	vle8.v	v8,(a1)
   18380:	8f15                	sub	a4,a4,a3
   18382:	95b6                	add	a1,a1,a3
   18384:	02060427          	vse8.v	v8,(a2)
   18388:	9636                	add	a2,a2,a3
   1838a:	f77d                	bnez	a4,18378 <_ZN7testing8internalL14ParseFlagValueEPKcS2_b+0x14c>
   1838c:	b709                	j	1828e <_ZN7testing8internalL14ParseFlagValueEPKcS2_b+0x62>
   1838e:	00020517          	auipc	a0,0x20
   18392:	a6a50513          	addi	a0,a0,-1430 # 37df8 <_IO_stdin_used+0x350>
   18396:	04010b13          	addi	s6,sp,64
   1839a:	c86fd0ef          	jal	15820 <_ZSt20__throw_length_errorPKc@plt>
   1839e:	842a                	mv	s0,a0
   183a0:	a029                	j	183aa <_ZN7testing8internalL14ParseFlagValueEPKcS2_b+0x17e>
   183a2:	842a                	mv	s0,a0
   183a4:	855a                	mv	a0,s6
   183a6:	b56fe0ef          	jal	166fc <_ZNSt7__cxx1112basic_stringIcSt11char_traitsIcESaIcEE10_M_disposeEv>
   183aa:	8556                	mv	a0,s5
   183ac:	b50fe0ef          	jal	166fc <_ZNSt7__cxx1112basic_stringIcSt11char_traitsIcESaIcEE10_M_disposeEv>
   183b0:	8522                	mv	a0,s0
   183b2:	b6efd0ef          	jal	15720 <_Unwind_Resume@plt>

00000000000183b6 <_ZN7testing8internalL13ParseBoolFlagEPKcS2_Pb>:
   183b6:	1141                	addi	sp,sp,-16
   183b8:	e022                	sd	s0,0(sp)
   183ba:	8432                	mv	s0,a2
   183bc:	4605                	li	a2,1
   183be:	e406                	sd	ra,8(sp)
   183c0:	e6dff0ef          	jal	1822c <_ZN7testing8internalL14ParseFlagValueEPKcS2_b>
   183c4:	cd15                	beqz	a0,18400 <_ZN7testing8internalL13ParseBoolFlagEPKcS2_Pb+0x4a>
   183c6:	00054703          	lbu	a4,0(a0)
   183ca:	03600693          	li	a3,54
   183ce:	4785                	li	a5,1
   183d0:	fd07071b          	addiw	a4,a4,-48
   183d4:	0ff77713          	zext.b	a4,a4
   183d8:	00e6ed63          	bltu	a3,a4,183f2 <_ZN7testing8internalL13ParseBoolFlagEPKcS2_Pb+0x3c>
   183dc:	004006b7          	lui	a3,0x400
   183e0:	87b6                	mv	a5,a3
   183e2:	1782                	slli	a5,a5,0x20
   183e4:	0685                	addi	a3,a3,1 # 400001 <__global_pointer$+0x3b5271>
   183e6:	97b6                	add	a5,a5,a3
   183e8:	00e7d7b3          	srl	a5,a5,a4
   183ec:	8b85                	andi	a5,a5,1
   183ee:	0017c793          	xori	a5,a5,1
   183f2:	60a2                	ld	ra,8(sp)
   183f4:	00f40023          	sb	a5,0(s0)
   183f8:	6402                	ld	s0,0(sp)
   183fa:	4505                	li	a0,1
   183fc:	0141                	addi	sp,sp,16
   183fe:	8082                	ret
   18400:	60a2                	ld	ra,8(sp)
   18402:	6402                	ld	s0,0(sp)
   18404:	4501                	li	a0,0
   18406:	0141                	addi	sp,sp,16
   18408:	8082                	ret

000000000001840a <_ZN7testing8internalL15ParseStringFlagINSt7__cxx1112basic_stringIcSt11char_traitsIcESaIcEEEEEbPKcS9_PT_>:
   1840a:	1101                	addi	sp,sp,-32
   1840c:	e426                	sd	s1,8(sp)
   1840e:	84b2                	mv	s1,a2
   18410:	4601                	li	a2,0
   18412:	ec06                	sd	ra,24(sp)
   18414:	e19ff0ef          	jal	1822c <_ZN7testing8internalL14ParseFlagValueEPKcS2_b>
   18418:	c115                	beqz	a0,1843c <_ZN7testing8internalL15ParseStringFlagINSt7__cxx1112basic_stringIcSt11char_traitsIcESaIcEEEEEbPKcS9_PT_+0x32>
   1841a:	e822                	sd	s0,16(sp)
   1841c:	842a                	mv	s0,a0
   1841e:	ee2fd0ef          	jal	15b00 <strlen@plt>
   18422:	6490                	ld	a2,8(s1)
   18424:	872a                	mv	a4,a0
   18426:	86a2                	mv	a3,s0
   18428:	8526                	mv	a0,s1
   1842a:	4581                	li	a1,0
   1842c:	a74fd0ef          	jal	156a0 <_ZNSt7__cxx1112basic_stringIcSt11char_traitsIcESaIcEE10_M_replaceEmmPKcm@plt>
   18430:	60e2                	ld	ra,24(sp)
   18432:	6442                	ld	s0,16(sp)
   18434:	64a2                	ld	s1,8(sp)
   18436:	4505                	li	a0,1
   18438:	6105                	addi	sp,sp,32
   1843a:	8082                	ret
   1843c:	60e2                	ld	ra,24(sp)
   1843e:	64a2                	ld	s1,8(sp)
   18440:	4501                	li	a0,0
   18442:	6105                	addi	sp,sp,32
   18444:	8082                	ret

0000000000018446 <_ZN7testing8internalL21FormatDeathTestOutputERKNSt7__cxx1112basic_stringIcSt11char_traitsIcESaIcEEE>:
   18446:	7175                	addi	sp,sp,-144
   18448:	fca6                	sd	s1,120(sp)
   1844a:	f4ce                	sd	s3,104(sp)
   1844c:	f0d2                	sd	s4,96(sp)
   1844e:	ecd6                	sd	s5,88(sp)
   18450:	e8da                	sd	s6,80(sp)
   18452:	e4de                	sd	s7,72(sp)
   18454:	e0e2                	sd	s8,64(sp)
   18456:	fc66                	sd	s9,56(sp)
   18458:	e506                	sd	ra,136(sp)
   1845a:	e122                	sd	s0,128(sp)
   1845c:	f8ca                	sd	s2,112(sp)
   1845e:	01050793          	addi	a5,a0,16
   18462:	5bfd                	li	s7,-1
   18464:	89aa                	mv	s3,a0
   18466:	00053423          	sd	zero,8(a0)
   1846a:	00050823          	sb	zero,16(a0)
   1846e:	8a2e                	mv	s4,a1
   18470:	e11c                	sd	a5,0(a0)
   18472:	002bdb13          	srli	s6,s7,0x2
   18476:	4481                	li	s1,0
   18478:	4c31                	li	s8,12
   1847a:	02010a93          	addi	s5,sp,32
   1847e:	4cbd                	li	s9,15
   18480:	8626                	mv	a2,s1
   18482:	45a9                	li	a1,10
   18484:	8552                	mv	a0,s4
   18486:	deafd0ef          	jal	15a70 <_ZNKSt7__cxx1112basic_stringIcSt11char_traitsIcESaIcEE4findEcm@plt>
   1848a:	0089b783          	ld	a5,8(s3)
   1848e:	892a                	mv	s2,a0
   18490:	40fb07b3          	sub	a5,s6,a5
   18494:	16fc7e63          	bgeu	s8,a5,18610 <_ZN7testing8internalL21FormatDeathTestOutputERKNSt7__cxx1112basic_stringIcSt11char_traitsIcESaIcEEE+0x1ca>
   18498:	4635                	li	a2,13
   1849a:	00020597          	auipc	a1,0x20
   1849e:	97658593          	addi	a1,a1,-1674 # 37e10 <_IO_stdin_used+0x368>
   184a2:	854e                	mv	a0,s3
   184a4:	c2cfd0ef          	jal	158d0 <_ZNSt7__cxx1112basic_stringIcSt11char_traitsIcESaIcEE9_M_appendEPKcm@plt>
   184a8:	008a3403          	ld	s0,8(s4)
   184ac:	09790963          	beq	s2,s7,1853e <_ZN7testing8internalL21FormatDeathTestOutputERKNSt7__cxx1112basic_stringIcSt11char_traitsIcESaIcEEE+0xf8>
   184b0:	0905                	addi	s2,s2,1
   184b2:	40990733          	sub	a4,s2,s1
   184b6:	16946363          	bltu	s0,s1,1861c <_ZN7testing8internalL21FormatDeathTestOutputERKNSt7__cxx1112basic_stringIcSt11char_traitsIcESaIcEEE+0x1d6>
   184ba:	000a3783          	ld	a5,0(s4)
   184be:	8c05                	sub	s0,s0,s1
   184c0:	e856                	sd	s5,16(sp)
   184c2:	94be                	add	s1,s1,a5
   184c4:	00877363          	bgeu	a4,s0,184ca <_ZN7testing8internalL21FormatDeathTestOutputERKNSt7__cxx1112basic_stringIcSt11char_traitsIcESaIcEEE+0x84>
   184c8:	843a                	mv	s0,a4
   184ca:	e422                	sd	s0,8(sp)
   184cc:	068ce063          	bltu	s9,s0,1852c <_ZN7testing8internalL21FormatDeathTestOutputERKNSt7__cxx1112basic_stringIcSt11char_traitsIcESaIcEEE+0xe6>
   184d0:	4785                	li	a5,1
   184d2:	02f41d63          	bne	s0,a5,1850c <_ZN7testing8internalL21FormatDeathTestOutputERKNSt7__cxx1112basic_stringIcSt11char_traitsIcESaIcEEE+0xc6>
   184d6:	0004c783          	lbu	a5,0(s1)
   184da:	02f10023          	sb	a5,32(sp)
   184de:	87d6                	mv	a5,s5
   184e0:	ec22                	sd	s0,24(sp)
   184e2:	97a2                	add	a5,a5,s0
   184e4:	00078023          	sb	zero,0(a5)
   184e8:	0089b783          	ld	a5,8(s3)
   184ec:	6662                	ld	a2,24(sp)
   184ee:	65c2                	ld	a1,16(sp)
   184f0:	40fb07b3          	sub	a5,s6,a5
   184f4:	14c7e563          	bltu	a5,a2,1863e <_ZN7testing8internalL21FormatDeathTestOutputERKNSt7__cxx1112basic_stringIcSt11char_traitsIcESaIcEEE+0x1f8>
   184f8:	854e                	mv	a0,s3
   184fa:	bd6fd0ef          	jal	158d0 <_ZNSt7__cxx1112basic_stringIcSt11char_traitsIcESaIcEE9_M_appendEPKcm@plt>
   184fe:	6542                	ld	a0,16(sp)
   18500:	01550463          	beq	a0,s5,18508 <_ZN7testing8internalL21FormatDeathTestOutputERKNSt7__cxx1112basic_stringIcSt11char_traitsIcESaIcEEE+0xc2>
   18504:	b2cfd0ef          	jal	15830 <_ZdlPv@plt>
   18508:	84ca                	mv	s1,s2
   1850a:	bf9d                	j	18480 <_ZN7testing8internalL21FormatDeathTestOutputERKNSt7__cxx1112basic_stringIcSt11char_traitsIcESaIcEEE+0x3a>
   1850c:	d869                	beqz	s0,184de <_ZN7testing8internalL21FormatDeathTestOutputERKNSt7__cxx1112basic_stringIcSt11char_traitsIcESaIcEEE+0x98>
   1850e:	8556                	mv	a0,s5
   18510:	87a6                	mv	a5,s1
   18512:	0c347757          	vsetvli	a4,s0,e8,m8,ta,ma
   18516:	02078407          	vle8.v	v8,(a5)
   1851a:	8c19                	sub	s0,s0,a4
   1851c:	97ba                	add	a5,a5,a4
   1851e:	02050427          	vse8.v	v8,(a0)
   18522:	953a                	add	a0,a0,a4
   18524:	f47d                	bnez	s0,18512 <_ZN7testing8internalL21FormatDeathTestOutputERKNSt7__cxx1112basic_stringIcSt11char_traitsIcESaIcEEE+0xcc>
   18526:	6422                	ld	s0,8(sp)
   18528:	67c2                	ld	a5,16(sp)
   1852a:	bf5d                	j	184e0 <_ZN7testing8internalL21FormatDeathTestOutputERKNSt7__cxx1112basic_stringIcSt11char_traitsIcESaIcEEE+0x9a>
   1852c:	4601                	li	a2,0
   1852e:	002c                	addi	a1,sp,8
   18530:	0808                	addi	a0,sp,16
   18532:	8aefd0ef          	jal	155e0 <_ZNSt7__cxx1112basic_stringIcSt11char_traitsIcESaIcEE9_M_createERmm@plt>
   18536:	67a2                	ld	a5,8(sp)
   18538:	e82a                	sd	a0,16(sp)
   1853a:	f03e                	sd	a5,32(sp)
   1853c:	bfd1                	j	18510 <_ZN7testing8internalL21FormatDeathTestOutputERKNSt7__cxx1112basic_stringIcSt11char_traitsIcESaIcEEE+0xca>
   1853e:	0a946363          	bltu	s0,s1,185e4 <_ZN7testing8internalL21FormatDeathTestOutputERKNSt7__cxx1112basic_stringIcSt11char_traitsIcESaIcEEE+0x19e>
   18542:	000a3783          	ld	a5,0(s4)
   18546:	8c05                	sub	s0,s0,s1
   18548:	02010913          	addi	s2,sp,32
   1854c:	e422                	sd	s0,8(sp)
   1854e:	e84a                	sd	s2,16(sp)
   18550:	473d                	li	a4,15
   18552:	94be                	add	s1,s1,a5
   18554:	01010a13          	addi	s4,sp,16
   18558:	06876d63          	bltu	a4,s0,185d2 <_ZN7testing8internalL21FormatDeathTestOutputERKNSt7__cxx1112basic_stringIcSt11char_traitsIcESaIcEEE+0x18c>
   1855c:	4785                	li	a5,1
   1855e:	04f41a63          	bne	s0,a5,185b2 <_ZN7testing8internalL21FormatDeathTestOutputERKNSt7__cxx1112basic_stringIcSt11char_traitsIcESaIcEEE+0x16c>
   18562:	0004c783          	lbu	a5,0(s1)
   18566:	02f10023          	sb	a5,32(sp)
   1856a:	87ca                	mv	a5,s2
   1856c:	ec22                	sd	s0,24(sp)
   1856e:	97a2                	add	a5,a5,s0
   18570:	00078023          	sb	zero,0(a5)
   18574:	0089b703          	ld	a4,8(s3)
   18578:	57fd                	li	a5,-1
   1857a:	6662                	ld	a2,24(sp)
   1857c:	8389                	srli	a5,a5,0x2
   1857e:	8f99                	sub	a5,a5,a4
   18580:	65c2                	ld	a1,16(sp)
   18582:	0cc7e463          	bltu	a5,a2,1864a <_ZN7testing8internalL21FormatDeathTestOutputERKNSt7__cxx1112basic_stringIcSt11char_traitsIcESaIcEEE+0x204>
   18586:	854e                	mv	a0,s3
   18588:	b48fd0ef          	jal	158d0 <_ZNSt7__cxx1112basic_stringIcSt11char_traitsIcESaIcEE9_M_appendEPKcm@plt>
   1858c:	6542                	ld	a0,16(sp)
   1858e:	01250463          	beq	a0,s2,18596 <_ZN7testing8internalL21FormatDeathTestOutputERKNSt7__cxx1112basic_stringIcSt11char_traitsIcESaIcEEE+0x150>
   18592:	a9efd0ef          	jal	15830 <_ZdlPv@plt>
   18596:	60aa                	ld	ra,136(sp)
   18598:	640a                	ld	s0,128(sp)
   1859a:	74e6                	ld	s1,120(sp)
   1859c:	7946                	ld	s2,112(sp)
   1859e:	7a06                	ld	s4,96(sp)
   185a0:	6ae6                	ld	s5,88(sp)
   185a2:	6b46                	ld	s6,80(sp)
   185a4:	6ba6                	ld	s7,72(sp)
   185a6:	6c06                	ld	s8,64(sp)
   185a8:	7ce2                	ld	s9,56(sp)
   185aa:	854e                	mv	a0,s3
   185ac:	79a6                	ld	s3,104(sp)
   185ae:	6149                	addi	sp,sp,144
   185b0:	8082                	ret
   185b2:	dc45                	beqz	s0,1856a <_ZN7testing8internalL21FormatDeathTestOutputERKNSt7__cxx1112basic_stringIcSt11char_traitsIcESaIcEEE+0x124>
   185b4:	854a                	mv	a0,s2
   185b6:	87a6                	mv	a5,s1
   185b8:	0c347757          	vsetvli	a4,s0,e8,m8,ta,ma
   185bc:	02078407          	vle8.v	v8,(a5)
