
/root/workspace/nncase/build/Release/bin/test_ntt_unary_abs_fp16:     file format elf64-littleriscv


Disassembly of section .plt:

0000000000015290 <_PROCEDURE_LINKAGE_TABLE_>:
   15290:	97 63 03 00 33 03 c3 41 03 be 03 d6 13 03 43 fd     .c..3..A......C.
   152a0:	93 82 03 d6 13 53 13 00 83 b2 82 00 67 00 0e 00     .....S......g...

00000000000152b0 <fcntl@plt>:
   152b0:	00036e17          	auipc	t3,0x36
   152b4:	d50e3e03          	ld	t3,-688(t3) # 4b000 <fcntl@GLIBC_2.27>
   152b8:	000e0367          	jalr	t1,t3
   152bc:	00000013          	nop

00000000000152c0 <__errno_location@plt>:
   152c0:	00036e17          	auipc	t3,0x36
   152c4:	d48e3e03          	ld	t3,-696(t3) # 4b008 <__errno_location@GLIBC_2.27>
   152c8:	000e0367          	jalr	t1,t3
   152cc:	00000013          	nop

00000000000152d0 <_ZStrsIcSt11char_traitsIcESaIcEERSt13basic_istreamIT_T0_ES7_RNSt7__cxx1112basic_stringIS4_S5_T1_EE@plt>:
   152d0:	00036e17          	auipc	t3,0x36
   152d4:	d40e3e03          	ld	t3,-704(t3) # 4b010 <_ZStrsIcSt11char_traitsIcESaIcEERSt13basic_istreamIT_T0_ES7_RNSt7__cxx1112basic_stringIS4_S5_T1_EE@Base>
   152d8:	000e0367          	jalr	t1,t3
   152dc:	00000013          	nop

00000000000152e0 <execve@plt>:
   152e0:	00036e17          	auipc	t3,0x36
   152e4:	d38e3e03          	ld	t3,-712(t3) # 4b018 <execve@GLIBC_2.27>
   152e8:	000e0367          	jalr	t1,t3
   152ec:	00000013          	nop

00000000000152f0 <fseek@plt>:
   152f0:	00036e17          	auipc	t3,0x36
   152f4:	d30e3e03          	ld	t3,-720(t3) # 4b020 <fseek@GLIBC_2.27>
   152f8:	000e0367          	jalr	t1,t3
   152fc:	00000013          	nop

0000000000015300 <_ZSt18_Rb_tree_incrementPKSt18_Rb_tree_node_base@plt>:
   15300:	00036e17          	auipc	t3,0x36
   15304:	d28e3e03          	ld	t3,-728(t3) # 4b028 <_ZSt18_Rb_tree_incrementPKSt18_Rb_tree_node_base@Base>
   15308:	000e0367          	jalr	t1,t3
   1530c:	00000013          	nop

0000000000015310 <strcasecmp@plt>:
   15310:	00036e17          	auipc	t3,0x36
   15314:	d20e3e03          	ld	t3,-736(t3) # 4b030 <strcasecmp@GLIBC_2.27>
   15318:	000e0367          	jalr	t1,t3
   1531c:	00000013          	nop

0000000000015320 <strncmp@plt>:
   15320:	00036e17          	auipc	t3,0x36
   15324:	d18e3e03          	ld	t3,-744(t3) # 4b038 <strncmp@GLIBC_2.27>
   15328:	000e0367          	jalr	t1,t3
   1532c:	00000013          	nop

0000000000015330 <_ZNSt13random_device7_M_initERKNSt7__cxx1112basic_stringIcSt11char_traitsIcESaIcEEE@plt>:
   15330:	00036e17          	auipc	t3,0x36
   15334:	d10e3e03          	ld	t3,-752(t3) # 4b040 <_ZNSt13random_device7_M_initERKNSt7__cxx1112basic_stringIcSt11char_traitsIcESaIcEEE@Base>
   15338:	000e0367          	jalr	t1,t3
   1533c:	00000013          	nop

0000000000015340 <fork@plt>:
   15340:	00036e17          	auipc	t3,0x36
   15344:	d08e3e03          	ld	t3,-760(t3) # 4b048 <fork@GLIBC_2.27>
   15348:	000e0367          	jalr	t1,t3
   1534c:	00000013          	nop

0000000000015350 <_ZNSt7__cxx1112basic_stringIcSt11char_traitsIcESaIcEE8_M_eraseEmm@plt>:
   15350:	00036e17          	auipc	t3,0x36
   15354:	d00e3e03          	ld	t3,-768(t3) # 4b050 <_ZNSt7__cxx1112basic_stringIcSt11char_traitsIcESaIcEE8_M_eraseEmm@Base>
   15358:	000e0367          	jalr	t1,t3
   1535c:	00000013          	nop

0000000000015360 <stat@plt>:
   15360:	00036e17          	auipc	t3,0x36
   15364:	cf8e3e03          	ld	t3,-776(t3) # 4b058 <stat@GLIBC_2.33>
   15368:	000e0367          	jalr	t1,t3
   1536c:	00000013          	nop

0000000000015370 <__cxa_guard_abort@plt>:
   15370:	00036e17          	auipc	t3,0x36
   15374:	cf0e3e03          	ld	t3,-784(t3) # 4b060 <__cxa_guard_abort@Base>
   15378:	000e0367          	jalr	t1,t3
   1537c:	00000013          	nop

0000000000015380 <regfree@plt>:
   15380:	00036e17          	auipc	t3,0x36
   15384:	ce8e3e03          	ld	t3,-792(t3) # 4b068 <regfree@GLIBC_2.27>
   15388:	000e0367          	jalr	t1,t3
   1538c:	00000013          	nop

0000000000015390 <_ZNSt7__cxx1118basic_stringstreamIcSt11char_traitsIcESaIcEED1Ev@plt>:
   15390:	00036e17          	auipc	t3,0x36
   15394:	ce0e3e03          	ld	t3,-800(t3) # 4b070 <_ZNSt7__cxx1118basic_stringstreamIcSt11char_traitsIcESaIcEED1Ev@Base>
   15398:	000e0367          	jalr	t1,t3
   1539c:	00000013          	nop

00000000000153a0 <_ZNSt6localeC1Ev@plt>:
   153a0:	00036e17          	auipc	t3,0x36
   153a4:	cd8e3e03          	ld	t3,-808(t3) # 4b078 <_ZNSt6localeC1Ev@Base>
   153a8:	000e0367          	jalr	t1,t3
   153ac:	00000013          	nop

00000000000153b0 <_ZNSt9basic_iosIcSt11char_traitsIcEE4initEPSt15basic_streambufIcS1_E@plt>:
   153b0:	00036e17          	auipc	t3,0x36
   153b4:	cd0e3e03          	ld	t3,-816(t3) # 4b080 <_ZNSt9basic_iosIcSt11char_traitsIcEE4initEPSt15basic_streambufIcS1_E@Base>
   153b8:	000e0367          	jalr	t1,t3
   153bc:	00000013          	nop

00000000000153c0 <fputc@plt>:
   153c0:	00036e17          	auipc	t3,0x36
   153c4:	cc8e3e03          	ld	t3,-824(t3) # 4b088 <fputc@GLIBC_2.27>
   153c8:	000e0367          	jalr	t1,t3
   153cc:	00000013          	nop

00000000000153d0 <fwrite@plt>:
   153d0:	00036e17          	auipc	t3,0x36
   153d4:	cc0e3e03          	ld	t3,-832(t3) # 4b090 <fwrite@GLIBC_2.27>
   153d8:	000e0367          	jalr	t1,t3
   153dc:	00000013          	nop

00000000000153e0 <strchr@plt>:
   153e0:	00036e17          	auipc	t3,0x36
   153e4:	cb8e3e03          	ld	t3,-840(t3) # 4b098 <strchr@GLIBC_2.27>
   153e8:	000e0367          	jalr	t1,t3
   153ec:	00000013          	nop

00000000000153f0 <wcsstr@plt>:
   153f0:	00036e17          	auipc	t3,0x36
   153f4:	cb0e3e03          	ld	t3,-848(t3) # 4b0a0 <wcsstr@GLIBC_2.27>
   153f8:	000e0367          	jalr	t1,t3
   153fc:	00000013          	nop

0000000000015400 <_ZNSt8ios_baseC2Ev@plt>:
   15400:	00036e17          	auipc	t3,0x36
   15404:	ca8e3e03          	ld	t3,-856(t3) # 4b0a8 <_ZNSt8ios_baseC2Ev@Base>
   15408:	000e0367          	jalr	t1,t3
   1540c:	00000013          	nop

0000000000015410 <fprintf@plt>:
   15410:	00036e17          	auipc	t3,0x36
   15414:	ca0e3e03          	ld	t3,-864(t3) # 4b0b0 <fprintf@GLIBC_2.27>
   15418:	000e0367          	jalr	t1,t3
   1541c:	00000013          	nop

0000000000015420 <_ZNSt6localeD1Ev@plt>:
   15420:	00036e17          	auipc	t3,0x36
   15424:	c98e3e03          	ld	t3,-872(t3) # 4b0b8 <_ZNSt6localeD1Ev@Base>
   15428:	000e0367          	jalr	t1,t3
   1542c:	00000013          	nop

0000000000015430 <connect@plt>:
   15430:	00036e17          	auipc	t3,0x36
   15434:	c90e3e03          	ld	t3,-880(t3) # 4b0c0 <connect@GLIBC_2.27>
   15438:	000e0367          	jalr	t1,t3
   1543c:	00000013          	nop

0000000000015440 <_ZNKSt7__cxx1115basic_stringbufIcSt11char_traitsIcESaIcEE3strEv@plt>:
   15440:	00036e17          	auipc	t3,0x36
   15444:	c88e3e03          	ld	t3,-888(t3) # 4b0c8 <_ZNKSt7__cxx1115basic_stringbufIcSt11char_traitsIcESaIcEE3strEv@Base>
   15448:	000e0367          	jalr	t1,t3
   1544c:	00000013          	nop

0000000000015450 <_ZNKSt7__cxx1112basic_stringIcSt11char_traitsIcESaIcEE4findEPKcmm@plt>:
   15450:	00036e17          	auipc	t3,0x36
   15454:	c80e3e03          	ld	t3,-896(t3) # 4b0d0 <_ZNKSt7__cxx1112basic_stringIcSt11char_traitsIcESaIcEE4findEPKcmm@Base>
   15458:	000e0367          	jalr	t1,t3
   1545c:	00000013          	nop

0000000000015460 <strerror@plt>:
   15460:	00036e17          	auipc	t3,0x36
   15464:	c78e3e03          	ld	t3,-904(t3) # 4b0d8 <strerror@GLIBC_2.27>
   15468:	000e0367          	jalr	t1,t3
   1546c:	00000013          	nop

0000000000015470 <getpid@plt>:
   15470:	00036e17          	auipc	t3,0x36
   15474:	c70e3e03          	ld	t3,-912(t3) # 4b0e0 <getpid@GLIBC_2.27>
   15478:	000e0367          	jalr	t1,t3
   1547c:	00000013          	nop

0000000000015480 <getpagesize@plt>:
   15480:	00036e17          	auipc	t3,0x36
   15484:	c68e3e03          	ld	t3,-920(t3) # 4b0e8 <getpagesize@GLIBC_2.27>
   15488:	000e0367          	jalr	t1,t3
   1548c:	00000013          	nop

0000000000015490 <_ZNSt13basic_filebufIcSt11char_traitsIcEE5closeEv@plt>:
   15490:	00036e17          	auipc	t3,0x36
   15494:	c60e3e03          	ld	t3,-928(t3) # 4b0f0 <_ZNSt13basic_filebufIcSt11char_traitsIcEE5closeEv@Base>
   15498:	000e0367          	jalr	t1,t3
   1549c:	00000013          	nop

00000000000154a0 <_ZNSo9_M_insertIdEERSoT_@plt>:
   154a0:	00036e17          	auipc	t3,0x36
   154a4:	c58e3e03          	ld	t3,-936(t3) # 4b0f8 <_ZNSo9_M_insertIdEERSoT_@Base>
   154a8:	000e0367          	jalr	t1,t3
   154ac:	00000013          	nop

00000000000154b0 <wmemcpy@plt>:
   154b0:	00036e17          	auipc	t3,0x36
   154b4:	c50e3e03          	ld	t3,-944(t3) # 4b100 <wmemcpy@GLIBC_2.27>
   154b8:	000e0367          	jalr	t1,t3
   154bc:	00000013          	nop

00000000000154c0 <chdir@plt>:
   154c0:	00036e17          	auipc	t3,0x36
   154c4:	c48e3e03          	ld	t3,-952(t3) # 4b108 <chdir@GLIBC_2.27>
   154c8:	000e0367          	jalr	t1,t3
   154cc:	00000013          	nop

00000000000154d0 <localtime_r@plt>:
   154d0:	00036e17          	auipc	t3,0x36
   154d4:	c40e3e03          	ld	t3,-960(t3) # 4b110 <localtime_r@GLIBC_2.27>
   154d8:	000e0367          	jalr	t1,t3
   154dc:	00000013          	nop

00000000000154e0 <abort@plt>:
   154e0:	00036e17          	auipc	t3,0x36
   154e4:	c38e3e03          	ld	t3,-968(t3) # 4b118 <abort@GLIBC_2.27>
   154e8:	000e0367          	jalr	t1,t3
   154ec:	00000013          	nop

00000000000154f0 <getcwd@plt>:
   154f0:	00036e17          	auipc	t3,0x36
   154f4:	c30e3e03          	ld	t3,-976(t3) # 4b120 <getcwd@GLIBC_2.27>
   154f8:	000e0367          	jalr	t1,t3
   154fc:	00000013          	nop

0000000000015500 <exit@plt>:
   15500:	00036e17          	auipc	t3,0x36
   15504:	c28e3e03          	ld	t3,-984(t3) # 4b128 <exit@GLIBC_2.27>
   15508:	000e0367          	jalr	t1,t3
   1550c:	00000013          	nop

0000000000015510 <_ZNSolsEi@plt>:
   15510:	00036e17          	auipc	t3,0x36
   15514:	c20e3e03          	ld	t3,-992(t3) # 4b130 <_ZNSolsEi@Base>
   15518:	000e0367          	jalr	t1,t3
   1551c:	00000013          	nop

0000000000015520 <_ZNSt13basic_filebufIcSt11char_traitsIcEEC1Ev@plt>:
   15520:	00036e17          	auipc	t3,0x36
   15524:	c18e3e03          	ld	t3,-1000(t3) # 4b138 <_ZNSt13basic_filebufIcSt11char_traitsIcEEC1Ev@Base>
   15528:	000e0367          	jalr	t1,t3
   1552c:	00000013          	nop

0000000000015530 <fopen@plt>:
   15530:	00036e17          	auipc	t3,0x36
   15534:	c10e3e03          	ld	t3,-1008(t3) # 4b140 <fopen@GLIBC_2.27>
   15538:	000e0367          	jalr	t1,t3
   1553c:	00000013          	nop

0000000000015540 <sigemptyset@plt>:
   15540:	00036e17          	auipc	t3,0x36
   15544:	c08e3e03          	ld	t3,-1016(t3) # 4b148 <sigemptyset@GLIBC_2.27>
   15548:	000e0367          	jalr	t1,t3
   1554c:	00000013          	nop

0000000000015550 <remove@plt>:
   15550:	00036e17          	auipc	t3,0x36
   15554:	c00e3e03          	ld	t3,-1024(t3) # 4b150 <remove@GLIBC_2.27>
   15558:	000e0367          	jalr	t1,t3
   1555c:	00000013          	nop

0000000000015560 <strdup@plt>:
   15560:	00036e17          	auipc	t3,0x36
   15564:	bf8e3e03          	ld	t3,-1032(t3) # 4b158 <strdup@GLIBC_2.27>
   15568:	000e0367          	jalr	t1,t3
   1556c:	00000013          	nop

0000000000015570 <pthread_self@plt>:
   15570:	00036e17          	auipc	t3,0x36
   15574:	bf0e3e03          	ld	t3,-1040(t3) # 4b160 <pthread_self@GLIBC_2.27>
   15578:	000e0367          	jalr	t1,t3
   1557c:	00000013          	nop

0000000000015580 <_ZNSt7__cxx1112basic_stringIcSt11char_traitsIcESaIcEE6appendEPKc@plt>:
   15580:	00036e17          	auipc	t3,0x36
   15584:	be8e3e03          	ld	t3,-1048(t3) # 4b168 <_ZNSt7__cxx1112basic_stringIcSt11char_traitsIcESaIcEE6appendEPKc@Base>
   15588:	000e0367          	jalr	t1,t3
   1558c:	00000013          	nop

0000000000015590 <_ZNSt13random_device7_M_finiEv@plt>:
   15590:	00036e17          	auipc	t3,0x36
   15594:	be0e3e03          	ld	t3,-1056(t3) # 4b170 <_ZNSt13random_device7_M_finiEv@Base>
   15598:	000e0367          	jalr	t1,t3
   1559c:	00000013          	nop

00000000000155a0 <_ZSt29_Rb_tree_insert_and_rebalancebPSt18_Rb_tree_node_baseS0_RS_@plt>:
   155a0:	00036e17          	auipc	t3,0x36
   155a4:	bd8e3e03          	ld	t3,-1064(t3) # 4b178 <_ZSt29_Rb_tree_insert_and_rebalancebPSt18_Rb_tree_node_baseS0_RS_@Base>
   155a8:	000e0367          	jalr	t1,t3
   155ac:	00000013          	nop

00000000000155b0 <puts@plt>:
   155b0:	00036e17          	auipc	t3,0x36
   155b4:	bd0e3e03          	ld	t3,-1072(t3) # 4b180 <puts@GLIBC_2.27>
   155b8:	000e0367          	jalr	t1,t3
   155bc:	00000013          	nop

00000000000155c0 <__cxa_begin_catch@plt>:
   155c0:	00036e17          	auipc	t3,0x36
   155c4:	bc8e3e03          	ld	t3,-1080(t3) # 4b188 <__cxa_begin_catch@Base>
   155c8:	000e0367          	jalr	t1,t3
   155cc:	00000013          	nop

00000000000155d0 <wcscasecmp@plt>:
   155d0:	00036e17          	auipc	t3,0x36
   155d4:	bc0e3e03          	ld	t3,-1088(t3) # 4b190 <wcscasecmp@GLIBC_2.27>
   155d8:	000e0367          	jalr	t1,t3
   155dc:	00000013          	nop

00000000000155e0 <_ZNSt8ios_baseD2Ev@plt>:
   155e0:	00036e17          	auipc	t3,0x36
   155e4:	bb8e3e03          	ld	t3,-1096(t3) # 4b198 <_ZNSt8ios_baseD2Ev@Base>
   155e8:	000e0367          	jalr	t1,t3
   155ec:	00000013          	nop

00000000000155f0 <pthread_setspecific@plt>:
   155f0:	00036e17          	auipc	t3,0x36
   155f4:	bb0e3e03          	ld	t3,-1104(t3) # 4b1a0 <pthread_setspecific@GLIBC_2.34>
   155f8:	000e0367          	jalr	t1,t3
   155fc:	00000013          	nop

0000000000015600 <_ZNSt7__cxx1112basic_stringIcSt11char_traitsIcESaIcEEC1EOS4_@plt>:
   15600:	00036e17          	auipc	t3,0x36
   15604:	ba8e3e03          	ld	t3,-1112(t3) # 4b1a8 <_ZNSt7__cxx1112basic_stringIcSt11char_traitsIcESaIcEEC1EOS4_@Base>
   15608:	000e0367          	jalr	t1,t3
   1560c:	00000013          	nop

0000000000015610 <_ZNKSt5ctypeIcE13_M_widen_initEv@plt>:
   15610:	00036e17          	auipc	t3,0x36
   15614:	ba0e3e03          	ld	t3,-1120(t3) # 4b1b0 <_ZNKSt5ctypeIcE13_M_widen_initEv@Base>
   15618:	000e0367          	jalr	t1,t3
   1561c:	00000013          	nop

0000000000015620 <pthread_mutex_destroy@plt>:
   15620:	00036e17          	auipc	t3,0x36
   15624:	b98e3e03          	ld	t3,-1128(t3) # 4b1b8 <pthread_mutex_destroy@GLIBC_2.27>
   15628:	000e0367          	jalr	t1,t3
   1562c:	00000013          	nop

0000000000015630 <_ZStlsISt11char_traitsIcEERSt13basic_ostreamIcT_ES5_PKc@plt>:
   15630:	00036e17          	auipc	t3,0x36
   15634:	b90e3e03          	ld	t3,-1136(t3) # 4b1c0 <_ZStlsISt11char_traitsIcEERSt13basic_ostreamIcT_ES5_PKc@Base>
   15638:	000e0367          	jalr	t1,t3
   1563c:	00000013          	nop

0000000000015640 <_ZStlsISt11char_traitsIcEERSt13basic_ostreamIcT_ES5_c@plt>:
   15640:	00036e17          	auipc	t3,0x36
   15644:	b88e3e03          	ld	t3,-1144(t3) # 4b1c8 <_ZStlsISt11char_traitsIcEERSt13basic_ostreamIcT_ES5_c@Base>
   15648:	000e0367          	jalr	t1,t3
   1564c:	00000013          	nop

0000000000015650 <__cxa_atexit@plt>:
   15650:	00036e17          	auipc	t3,0x36
   15654:	b80e3e03          	ld	t3,-1152(t3) # 4b1d0 <__cxa_atexit@GLIBC_2.27>
   15658:	000e0367          	jalr	t1,t3
   1565c:	00000013          	nop

0000000000015660 <gai_strerror@plt>:
   15660:	00036e17          	auipc	t3,0x36
   15664:	b78e3e03          	ld	t3,-1160(t3) # 4b1d8 <gai_strerror@GLIBC_2.27>
   15668:	000e0367          	jalr	t1,t3
   1566c:	00000013          	nop

0000000000015670 <dup@plt>:
   15670:	00036e17          	auipc	t3,0x36
   15674:	b70e3e03          	ld	t3,-1168(t3) # 4b1e0 <dup@GLIBC_2.27>
   15678:	000e0367          	jalr	t1,t3
   1567c:	00000013          	nop

0000000000015680 <strstr@plt>:
   15680:	00036e17          	auipc	t3,0x36
   15684:	b68e3e03          	ld	t3,-1176(t3) # 4b1e8 <strstr@GLIBC_2.27>
   15688:	000e0367          	jalr	t1,t3
   1568c:	00000013          	nop

0000000000015690 <freeaddrinfo@plt>:
   15690:	00036e17          	auipc	t3,0x36
   15694:	b60e3e03          	ld	t3,-1184(t3) # 4b1f0 <freeaddrinfo@GLIBC_2.27>
   15698:	000e0367          	jalr	t1,t3
   1569c:	00000013          	nop

00000000000156a0 <_exit@plt>:
   156a0:	00036e17          	auipc	t3,0x36
   156a4:	b58e3e03          	ld	t3,-1192(t3) # 4b1f8 <_exit@GLIBC_2.27>
   156a8:	000e0367          	jalr	t1,t3
   156ac:	00000013          	nop

00000000000156b0 <_ZNSt7__cxx1112basic_stringIcSt11char_traitsIcESaIcEE9_M_createERmm@plt>:
   156b0:	00036e17          	auipc	t3,0x36
   156b4:	b50e3e03          	ld	t3,-1200(t3) # 4b200 <_ZNSt7__cxx1112basic_stringIcSt11char_traitsIcESaIcEE9_M_createERmm@Base>
   156b8:	000e0367          	jalr	t1,t3
   156bc:	00000013          	nop

00000000000156c0 <_ZNSt8__detail15_List_node_base7_M_hookEPS0_@plt>:
   156c0:	00036e17          	auipc	t3,0x36
   156c4:	b48e3e03          	ld	t3,-1208(t3) # 4b208 <_ZNSt8__detail15_List_node_base7_M_hookEPS0_@Base>
   156c8:	000e0367          	jalr	t1,t3
   156cc:	00000013          	nop

00000000000156d0 <fileno@plt>:
   156d0:	00036e17          	auipc	t3,0x36
   156d4:	b40e3e03          	ld	t3,-1216(t3) # 4b210 <fileno@GLIBC_2.27>
   156d8:	000e0367          	jalr	t1,t3
   156dc:	00000013          	nop

00000000000156e0 <printf@plt>:
   156e0:	00036e17          	auipc	t3,0x36
   156e4:	b38e3e03          	ld	t3,-1224(t3) # 4b218 <printf@GLIBC_2.27>
   156e8:	000e0367          	jalr	t1,t3
   156ec:	00000013          	nop

00000000000156f0 <_ZSt18_Rb_tree_incrementPSt18_Rb_tree_node_base@plt>:
   156f0:	00036e17          	auipc	t3,0x36
   156f4:	b30e3e03          	ld	t3,-1232(t3) # 4b220 <_ZSt18_Rb_tree_incrementPSt18_Rb_tree_node_base@Base>
   156f8:	000e0367          	jalr	t1,t3
   156fc:	00000013          	nop

0000000000015700 <_ZSt16__ostream_insertIcSt11char_traitsIcEERSt13basic_ostreamIT_T0_ES6_PKS3_l@plt>:
   15700:	00036e17          	auipc	t3,0x36
   15704:	b28e3e03          	ld	t3,-1240(t3) # 4b228 <_ZSt16__ostream_insertIcSt11char_traitsIcEERSt13basic_ostreamIT_T0_ES6_PKS3_l@Base>
   15708:	000e0367          	jalr	t1,t3
   1570c:	00000013          	nop

0000000000015710 <waitpid@plt>:
   15710:	00036e17          	auipc	t3,0x36
   15714:	b20e3e03          	ld	t3,-1248(t3) # 4b230 <waitpid@GLIBC_2.27>
   15718:	000e0367          	jalr	t1,t3
   1571c:	00000013          	nop

0000000000015720 <socket@plt>:
   15720:	00036e17          	auipc	t3,0x36
   15724:	b18e3e03          	ld	t3,-1256(t3) # 4b238 <socket@GLIBC_2.27>
   15728:	000e0367          	jalr	t1,t3
   1572c:	00000013          	nop

0000000000015730 <pthread_mutex_lock@plt>:
   15730:	00036e17          	auipc	t3,0x36
   15734:	b10e3e03          	ld	t3,-1264(t3) # 4b240 <pthread_mutex_lock@GLIBC_2.27>
   15738:	000e0367          	jalr	t1,t3
   1573c:	00000013          	nop

0000000000015740 <_ZdlPvm@plt>:
   15740:	00036e17          	auipc	t3,0x36
   15744:	b08e3e03          	ld	t3,-1272(t3) # 4b248 <_ZdlPvm@Base>
   15748:	000e0367          	jalr	t1,t3
   1574c:	00000013          	nop

0000000000015750 <_ZNSt14basic_ifstreamIcSt11char_traitsIcEED1Ev@plt>:
   15750:	00036e17          	auipc	t3,0x36
   15754:	b00e3e03          	ld	t3,-1280(t3) # 4b250 <_ZNSt14basic_ifstreamIcSt11char_traitsIcEED1Ev@Base>
   15758:	000e0367          	jalr	t1,t3
   1575c:	00000013          	nop

0000000000015760 <_ZNKSt13runtime_error4whatEv@plt>:
   15760:	00036e17          	auipc	t3,0x36
   15764:	af8e3e03          	ld	t3,-1288(t3) # 4b258 <_ZNKSt13runtime_error4whatEv@Base>
   15768:	000e0367          	jalr	t1,t3
   1576c:	00000013          	nop

0000000000015770 <_ZNSt7__cxx1112basic_stringIcSt11char_traitsIcESaIcEE10_M_replaceEmmPKcm@plt>:
   15770:	00036e17          	auipc	t3,0x36
   15774:	af0e3e03          	ld	t3,-1296(t3) # 4b260 <_ZNSt7__cxx1112basic_stringIcSt11char_traitsIcESaIcEE10_M_replaceEmmPKcm@Base>
   15778:	000e0367          	jalr	t1,t3
   1577c:	00000013          	nop

0000000000015780 <__cxa_call_terminate@plt>:
   15780:	00036e17          	auipc	t3,0x36
   15784:	ae8e3e03          	ld	t3,-1304(t3) # 4b268 <__cxa_call_terminate@Base>
   15788:	000e0367          	jalr	t1,t3
   1578c:	00000013          	nop

0000000000015790 <_ZNSt13runtime_errorD2Ev@plt>:
   15790:	00036e17          	auipc	t3,0x36
   15794:	ae0e3e03          	ld	t3,-1312(t3) # 4b270 <_ZNSt13runtime_errorD2Ev@Base>
   15798:	000e0367          	jalr	t1,t3
   1579c:	00000013          	nop

00000000000157a0 <_ZSt16__throw_bad_castv@plt>:
   157a0:	00036e17          	auipc	t3,0x36
   157a4:	ad8e3e03          	ld	t3,-1320(t3) # 4b278 <_ZSt16__throw_bad_castv@Base>
   157a8:	000e0367          	jalr	t1,t3
   157ac:	00000013          	nop

00000000000157b0 <snprintf@plt>:
   157b0:	00036e17          	auipc	t3,0x36
   157b4:	ad0e3e03          	ld	t3,-1328(t3) # 4b280 <snprintf@GLIBC_2.27>
   157b8:	000e0367          	jalr	t1,t3
   157bc:	00000013          	nop

00000000000157c0 <read@plt>:
   157c0:	00036e17          	auipc	t3,0x36
   157c4:	ac8e3e03          	ld	t3,-1336(t3) # 4b288 <read@GLIBC_2.27>
   157c8:	000e0367          	jalr	t1,t3
   157cc:	00000013          	nop

00000000000157d0 <mmap@plt>:
   157d0:	00036e17          	auipc	t3,0x36
   157d4:	ac0e3e03          	ld	t3,-1344(t3) # 4b290 <mmap@GLIBC_2.27>
   157d8:	000e0367          	jalr	t1,t3
   157dc:	00000013          	nop

00000000000157e0 <isxdigit@plt>:
   157e0:	00036e17          	auipc	t3,0x36
   157e4:	ab8e3e03          	ld	t3,-1352(t3) # 4b298 <isxdigit@GLIBC_2.27>
   157e8:	000e0367          	jalr	t1,t3
   157ec:	00000013          	nop

00000000000157f0 <_Unwind_Resume@plt>:
   157f0:	00036e17          	auipc	t3,0x36
   157f4:	ab0e3e03          	ld	t3,-1360(t3) # 4b2a0 <_Unwind_Resume@GCC_3.0>
   157f8:	000e0367          	jalr	t1,t3
   157fc:	00000013          	nop

0000000000015800 <vfprintf@plt>:
   15800:	00036e17          	auipc	t3,0x36
   15804:	aa8e3e03          	ld	t3,-1368(t3) # 4b2a8 <vfprintf@GLIBC_2.27>
   15808:	000e0367          	jalr	t1,t3
   1580c:	00000013          	nop

0000000000015810 <munmap@plt>:
   15810:	00036e17          	auipc	t3,0x36
   15814:	aa0e3e03          	ld	t3,-1376(t3) # 4b2b0 <munmap@GLIBC_2.27>
   15818:	000e0367          	jalr	t1,t3
   1581c:	00000013          	nop

0000000000015820 <_ZNSt7__cxx1112basic_stringIcSt11char_traitsIcESaIcEE9_M_mutateEmmPKcm@plt>:
   15820:	00036e17          	auipc	t3,0x36
   15824:	a98e3e03          	ld	t3,-1384(t3) # 4b2b8 <_ZNSt7__cxx1112basic_stringIcSt11char_traitsIcESaIcEE9_M_mutateEmmPKcm@Base>
   15828:	000e0367          	jalr	t1,t3
   1582c:	00000013          	nop

0000000000015830 <dup2@plt>:
   15830:	00036e17          	auipc	t3,0x36
   15834:	a90e3e03          	ld	t3,-1392(t3) # 4b2c0 <dup2@GLIBC_2.27>
   15838:	000e0367          	jalr	t1,t3
   1583c:	00000013          	nop

0000000000015840 <_ZNSt7__cxx1112basic_stringIcSt11char_traitsIcESaIcEE4swapERS4_@plt>:
   15840:	00036e17          	auipc	t3,0x36
   15844:	a88e3e03          	ld	t3,-1400(t3) # 4b2c8 <_ZNSt7__cxx1112basic_stringIcSt11char_traitsIcESaIcEE4swapERS4_@Base>
   15848:	000e0367          	jalr	t1,t3
   1584c:	00000013          	nop

0000000000015850 <_ZNSo9_M_insertImEERSoT_@plt>:
   15850:	00036e17          	auipc	t3,0x36
   15854:	a80e3e03          	ld	t3,-1408(t3) # 4b2d0 <_ZNSo9_M_insertImEERSoT_@Base>
   15858:	000e0367          	jalr	t1,t3
   1585c:	00000013          	nop

0000000000015860 <toupper@plt>:
   15860:	00036e17          	auipc	t3,0x36
   15864:	a78e3e03          	ld	t3,-1416(t3) # 4b2d8 <toupper@GLIBC_2.27>
   15868:	000e0367          	jalr	t1,t3
   1586c:	00000013          	nop

0000000000015870 <__cxa_rethrow@plt>:
   15870:	00036e17          	auipc	t3,0x36
   15874:	a70e3e03          	ld	t3,-1424(t3) # 4b2e0 <__cxa_rethrow@Base>
   15878:	000e0367          	jalr	t1,t3
   1587c:	00000013          	nop

0000000000015880 <pthread_mutex_unlock@plt>:
   15880:	00036e17          	auipc	t3,0x36
   15884:	a68e3e03          	ld	t3,-1432(t3) # 4b2e8 <pthread_mutex_unlock@GLIBC_2.27>
   15888:	000e0367          	jalr	t1,t3
   1588c:	00000013          	nop

0000000000015890 <_ZSt19__throw_logic_errorPKc@plt>:
   15890:	00036e17          	auipc	t3,0x36
   15894:	a60e3e03          	ld	t3,-1440(t3) # 4b2f0 <_ZSt19__throw_logic_errorPKc@Base>
   15898:	000e0367          	jalr	t1,t3
   1589c:	00000013          	nop

00000000000158a0 <_Znwm@plt>:
   158a0:	00036e17          	auipc	t3,0x36
   158a4:	a58e3e03          	ld	t3,-1448(t3) # 4b2f8 <_Znwm@Base>
   158a8:	000e0367          	jalr	t1,t3
   158ac:	00000013          	nop

00000000000158b0 <_ZNSt7__cxx1119basic_ostringstreamIcSt11char_traitsIcESaIcEED1Ev@plt>:
   158b0:	00036e17          	auipc	t3,0x36
   158b4:	a50e3e03          	ld	t3,-1456(t3) # 4b300 <_ZNSt7__cxx1119basic_ostringstreamIcSt11char_traitsIcESaIcEED1Ev@Base>
   158b8:	000e0367          	jalr	t1,t3
   158bc:	00000013          	nop

00000000000158c0 <fputs@plt>:
   158c0:	00036e17          	auipc	t3,0x36
   158c4:	a48e3e03          	ld	t3,-1464(t3) # 4b308 <fputs@GLIBC_2.27>
   158c8:	000e0367          	jalr	t1,t3
   158cc:	00000013          	nop

00000000000158d0 <fread@plt>:
   158d0:	00036e17          	auipc	t3,0x36
   158d4:	a40e3e03          	ld	t3,-1472(t3) # 4b310 <fread@GLIBC_2.27>
   158d8:	000e0367          	jalr	t1,t3
   158dc:	00000013          	nop

00000000000158e0 <strrchr@plt>:
   158e0:	00036e17          	auipc	t3,0x36
   158e4:	a38e3e03          	ld	t3,-1480(t3) # 4b318 <strrchr@GLIBC_2.27>
   158e8:	000e0367          	jalr	t1,t3
   158ec:	00000013          	nop

00000000000158f0 <_ZSt20__throw_length_errorPKc@plt>:
   158f0:	00036e17          	auipc	t3,0x36
   158f4:	a30e3e03          	ld	t3,-1488(t3) # 4b320 <_ZSt20__throw_length_errorPKc@Base>
   158f8:	000e0367          	jalr	t1,t3
   158fc:	00000013          	nop

0000000000015900 <_ZdlPv@plt>:
   15900:	00036e17          	auipc	t3,0x36
   15904:	a28e3e03          	ld	t3,-1496(t3) # 4b328 <_ZdlPv@Base>
   15908:	000e0367          	jalr	t1,t3
   1590c:	00000013          	nop

0000000000015910 <_ZNSo9_M_insertIPKvEERSoT_@plt>:
   15910:	00036e17          	auipc	t3,0x36
   15914:	a20e3e03          	ld	t3,-1504(t3) # 4b330 <_ZNSo9_M_insertIPKvEERSoT_@Base>
   15918:	000e0367          	jalr	t1,t3
   1591c:	00000013          	nop

0000000000015920 <_ZNSo3putEc@plt>:
   15920:	00036e17          	auipc	t3,0x36
   15924:	a18e3e03          	ld	t3,-1512(t3) # 4b338 <_ZNSo3putEc@Base>
   15928:	000e0367          	jalr	t1,t3
   1592c:	00000013          	nop

0000000000015930 <_ZNSt7__cxx1112basic_stringIwSt11char_traitsIwESaIwEE10_M_disposeEv@plt>:
   15930:	00036e17          	auipc	t3,0x36
   15934:	a10e3e03          	ld	t3,-1520(t3) # 4b340 <_ZNSt7__cxx1112basic_stringIwSt11char_traitsIwESaIwEE10_M_disposeEv@Base>
   15938:	000e0367          	jalr	t1,t3
   1593c:	00000013          	nop

0000000000015940 <__cxa_guard_acquire@plt>:
   15940:	00036e17          	auipc	t3,0x36
   15944:	a08e3e03          	ld	t3,-1528(t3) # 4b348 <__cxa_guard_acquire@Base>
   15948:	000e0367          	jalr	t1,t3
   1594c:	00000013          	nop

0000000000015950 <_ZSt24__throw_out_of_range_fmtPKcz@plt>:
   15950:	00036e17          	auipc	t3,0x36
   15954:	a00e3e03          	ld	t3,-1536(t3) # 4b350 <_ZSt24__throw_out_of_range_fmtPKcz@Base>
   15958:	000e0367          	jalr	t1,t3
   1595c:	00000013          	nop

0000000000015960 <free@plt>:
   15960:	00036e17          	auipc	t3,0x36
   15964:	9f8e3e03          	ld	t3,-1544(t3) # 4b358 <free@GLIBC_2.27>
   15968:	000e0367          	jalr	t1,t3
   1596c:	00000013          	nop

0000000000015970 <_ZNSt7__cxx1118basic_stringstreamIcSt11char_traitsIcESaIcEEC1Ev@plt>:
   15970:	00036e17          	auipc	t3,0x36
   15974:	9f0e3e03          	ld	t3,-1552(t3) # 4b360 <_ZNSt7__cxx1118basic_stringstreamIcSt11char_traitsIcESaIcEEC1Ev@Base>
   15978:	000e0367          	jalr	t1,t3
   1597c:	00000013          	nop

0000000000015980 <mkstemp@plt>:
   15980:	00036e17          	auipc	t3,0x36
   15984:	9e8e3e03          	ld	t3,-1560(t3) # 4b368 <mkstemp@GLIBC_2.27>
   15988:	000e0367          	jalr	t1,t3
   1598c:	00000013          	nop

0000000000015990 <_ZSt18_Rb_tree_decrementPSt18_Rb_tree_node_base@plt>:
   15990:	00036e17          	auipc	t3,0x36
   15994:	9e0e3e03          	ld	t3,-1568(t3) # 4b370 <_ZSt18_Rb_tree_decrementPSt18_Rb_tree_node_base@Base>
   15998:	000e0367          	jalr	t1,t3
   1599c:	00000013          	nop

00000000000159a0 <_ZNSt7__cxx1112basic_stringIcSt11char_traitsIcESaIcEE9_M_appendEPKcm@plt>:
   159a0:	00036e17          	auipc	t3,0x36
   159a4:	9d8e3e03          	ld	t3,-1576(t3) # 4b378 <_ZNSt7__cxx1112basic_stringIcSt11char_traitsIcESaIcEE9_M_appendEPKcm@Base>
   159a8:	000e0367          	jalr	t1,t3
   159ac:	00000013          	nop

00000000000159b0 <_ZNSo9_M_insertIxEERSoT_@plt>:
   159b0:	00036e17          	auipc	t3,0x36
   159b4:	9d0e3e03          	ld	t3,-1584(t3) # 4b380 <_ZNSo9_M_insertIxEERSoT_@Base>
   159b8:	000e0367          	jalr	t1,t3
   159bc:	00000013          	nop

00000000000159c0 <memcmp@plt>:
   159c0:	00036e17          	auipc	t3,0x36
   159c4:	9c8e3e03          	ld	t3,-1592(t3) # 4b388 <memcmp@GLIBC_2.27>
   159c8:	000e0367          	jalr	t1,t3
   159cc:	00000013          	nop

00000000000159d0 <_ZNSt7__cxx1112basic_stringIwSt11char_traitsIwESaIwEE9_M_createERmm@plt>:
   159d0:	00036e17          	auipc	t3,0x36
   159d4:	9c0e3e03          	ld	t3,-1600(t3) # 4b390 <_ZNSt7__cxx1112basic_stringIwSt11char_traitsIwESaIwEE9_M_createERmm@Base>
   159d8:	000e0367          	jalr	t1,t3
   159dc:	00000013          	nop

00000000000159e0 <pthread_mutex_init@plt>:
   159e0:	00036e17          	auipc	t3,0x36
   159e4:	9b8e3e03          	ld	t3,-1608(t3) # 4b398 <pthread_mutex_init@GLIBC_2.27>
   159e8:	000e0367          	jalr	t1,t3
   159ec:	00000013          	nop

00000000000159f0 <_ZNSt7__cxx1112basic_stringIcSt11char_traitsIcESaIcEE7reserveEm@plt>:
   159f0:	00036e17          	auipc	t3,0x36
   159f4:	9b0e3e03          	ld	t3,-1616(t3) # 4b3a0 <_ZNSt7__cxx1112basic_stringIcSt11char_traitsIcESaIcEE7reserveEm@Base>
   159f8:	000e0367          	jalr	t1,t3
   159fc:	00000013          	nop

0000000000015a00 <mkdir@plt>:
   15a00:	00036e17          	auipc	t3,0x36
   15a04:	9a8e3e03          	ld	t3,-1624(t3) # 4b3a8 <mkdir@GLIBC_2.27>
   15a08:	000e0367          	jalr	t1,t3
   15a0c:	00000013          	nop

0000000000015a10 <wcscmp@plt>:
   15a10:	00036e17          	auipc	t3,0x36
   15a14:	9a0e3e03          	ld	t3,-1632(t3) # 4b3b0 <wcscmp@GLIBC_2.27>
   15a18:	000e0367          	jalr	t1,t3
   15a1c:	00000013          	nop

0000000000015a20 <__cxa_bad_typeid@plt>:
   15a20:	00036e17          	auipc	t3,0x36
   15a24:	998e3e03          	ld	t3,-1640(t3) # 4b3b8 <__cxa_bad_typeid@Base>
   15a28:	000e0367          	jalr	t1,t3
   15a2c:	00000013          	nop

0000000000015a30 <pipe@plt>:
   15a30:	00036e17          	auipc	t3,0x36
   15a34:	990e3e03          	ld	t3,-1648(t3) # 4b3c0 <pipe@GLIBC_2.27>
   15a38:	000e0367          	jalr	t1,t3
   15a3c:	00000013          	nop

0000000000015a40 <pthread_key_create@plt>:
   15a40:	00036e17          	auipc	t3,0x36
   15a44:	988e3e03          	ld	t3,-1656(t3) # 4b3c8 <pthread_key_create@GLIBC_2.34>
   15a48:	000e0367          	jalr	t1,t3
   15a4c:	00000013          	nop

0000000000015a50 <_ZNSt9basic_iosIcSt11char_traitsIcEE5clearESt12_Ios_Iostate@plt>:
   15a50:	00036e17          	auipc	t3,0x36
   15a54:	980e3e03          	ld	t3,-1664(t3) # 4b3d0 <_ZNSt9basic_iosIcSt11char_traitsIcEE5clearESt12_Ios_Iostate@Base>
   15a58:	000e0367          	jalr	t1,t3
   15a5c:	00000013          	nop

0000000000015a60 <iscntrl@plt>:
   15a60:	00036e17          	auipc	t3,0x36
   15a64:	978e3e03          	ld	t3,-1672(t3) # 4b3d8 <iscntrl@GLIBC_2.27>
   15a68:	000e0367          	jalr	t1,t3
   15a6c:	00000013          	nop

0000000000015a70 <fclose@plt>:
   15a70:	00036e17          	auipc	t3,0x36
   15a74:	970e3e03          	ld	t3,-1680(t3) # 4b3e0 <fclose@GLIBC_2.27>
   15a78:	000e0367          	jalr	t1,t3
   15a7c:	00000013          	nop

0000000000015a80 <_ZNSo5writeEPKcl@plt>:
   15a80:	00036e17          	auipc	t3,0x36
   15a84:	968e3e03          	ld	t3,-1688(t3) # 4b3e8 <_ZNSo5writeEPKcl@Base>
   15a88:	000e0367          	jalr	t1,t3
   15a8c:	00000013          	nop

0000000000015a90 <memmove@plt>:
   15a90:	00036e17          	auipc	t3,0x36
   15a94:	960e3e03          	ld	t3,-1696(t3) # 4b3f0 <memmove@GLIBC_2.27>
   15a98:	000e0367          	jalr	t1,t3
   15a9c:	00000013          	nop

0000000000015aa0 <__isoc23_strtol@plt>:
   15aa0:	00036e17          	auipc	t3,0x36
   15aa4:	958e3e03          	ld	t3,-1704(t3) # 4b3f8 <__isoc23_strtol@GLIBC_2.38>
   15aa8:	000e0367          	jalr	t1,t3
   15aac:	00000013          	nop

0000000000015ab0 <__cxa_free_exception@plt>:
   15ab0:	00036e17          	auipc	t3,0x36
   15ab4:	950e3e03          	ld	t3,-1712(t3) # 4b400 <__cxa_free_exception@Base>
   15ab8:	000e0367          	jalr	t1,t3
   15abc:	00000013          	nop

0000000000015ac0 <pthread_key_delete@plt>:
   15ac0:	00036e17          	auipc	t3,0x36
   15ac4:	948e3e03          	ld	t3,-1720(t3) # 4b408 <pthread_key_delete@GLIBC_2.34>
   15ac8:	000e0367          	jalr	t1,t3
   15acc:	00000013          	nop

0000000000015ad0 <getenv@plt>:
   15ad0:	00036e17          	auipc	t3,0x36
   15ad4:	940e3e03          	ld	t3,-1728(t3) # 4b410 <getenv@GLIBC_2.27>
   15ad8:	000e0367          	jalr	t1,t3
   15adc:	00000013          	nop

0000000000015ae0 <putchar@plt>:
   15ae0:	00036e17          	auipc	t3,0x36
   15ae4:	938e3e03          	ld	t3,-1736(t3) # 4b418 <putchar@GLIBC_2.27>
   15ae8:	000e0367          	jalr	t1,t3
   15aec:	00000013          	nop

0000000000015af0 <__cxa_pure_virtual@plt>:
   15af0:	00036e17          	auipc	t3,0x36
   15af4:	930e3e03          	ld	t3,-1744(t3) # 4b420 <__cxa_pure_virtual@CXXABI_1.3>
   15af8:	000e0367          	jalr	t1,t3
   15afc:	00000013          	nop

0000000000015b00 <_ZNSt13random_device9_M_getvalEv@plt>:
   15b00:	00036e17          	auipc	t3,0x36
   15b04:	928e3e03          	ld	t3,-1752(t3) # 4b428 <_ZNSt13random_device9_M_getvalEv@Base>
   15b08:	000e0367          	jalr	t1,t3
   15b0c:	00000013          	nop

0000000000015b10 <close@plt>:
   15b10:	00036e17          	auipc	t3,0x36
   15b14:	920e3e03          	ld	t3,-1760(t3) # 4b430 <close@GLIBC_2.27>
   15b18:	000e0367          	jalr	t1,t3
   15b1c:	00000013          	nop

0000000000015b20 <_ZdaPvSt11align_val_t@plt>:
   15b20:	00036e17          	auipc	t3,0x36
   15b24:	918e3e03          	ld	t3,-1768(t3) # 4b438 <_ZdaPvSt11align_val_t@CXXABI_1.3.11>
   15b28:	000e0367          	jalr	t1,t3
   15b2c:	00000013          	nop

0000000000015b30 <clone@plt>:
   15b30:	00036e17          	auipc	t3,0x36
   15b34:	910e3e03          	ld	t3,-1776(t3) # 4b440 <clone@GLIBC_2.27>
   15b38:	000e0367          	jalr	t1,t3
   15b3c:	00000013          	nop

0000000000015b40 <_ZNKSt7__cxx1112basic_stringIcSt11char_traitsIcESaIcEE4findEcm@plt>:
   15b40:	00036e17          	auipc	t3,0x36
   15b44:	908e3e03          	ld	t3,-1784(t3) # 4b448 <_ZNKSt7__cxx1112basic_stringIcSt11char_traitsIcESaIcEE4findEcm@Base>
   15b48:	000e0367          	jalr	t1,t3
   15b4c:	00000013          	nop

0000000000015b50 <__cxa_allocate_exception@plt>:
   15b50:	00036e17          	auipc	t3,0x36
   15b54:	900e3e03          	ld	t3,-1792(t3) # 4b450 <__cxa_allocate_exception@Base>
   15b58:	000e0367          	jalr	t1,t3
   15b5c:	00000013          	nop

0000000000015b60 <isspace@plt>:
   15b60:	00036e17          	auipc	t3,0x36
   15b64:	8f8e3e03          	ld	t3,-1800(t3) # 4b458 <isspace@GLIBC_2.27>
   15b68:	000e0367          	jalr	t1,t3
   15b6c:	00000013          	nop

0000000000015b70 <_ZNSt7__cxx1112basic_stringIcSt11char_traitsIcESaIcEE9_M_assignERKS4_@plt>:
   15b70:	00036e17          	auipc	t3,0x36
   15b74:	8f0e3e03          	ld	t3,-1808(t3) # 4b460 <_ZNSt7__cxx1112basic_stringIcSt11char_traitsIcESaIcEE9_M_assignERKS4_@Base>
   15b78:	000e0367          	jalr	t1,t3
   15b7c:	00000013          	nop

0000000000015b80 <_ZNSt13basic_filebufIcSt11char_traitsIcEE4openEPKcSt13_Ios_Openmode@plt>:
   15b80:	00036e17          	auipc	t3,0x36
   15b84:	8e8e3e03          	ld	t3,-1816(t3) # 4b468 <_ZNSt13basic_filebufIcSt11char_traitsIcEE4openEPKcSt13_Ios_Openmode@Base>
   15b88:	000e0367          	jalr	t1,t3
   15b8c:	00000013          	nop

0000000000015b90 <_Znam@plt>:
   15b90:	00036e17          	auipc	t3,0x36
   15b94:	8e0e3e03          	ld	t3,-1824(t3) # 4b470 <_Znam@Base>
   15b98:	000e0367          	jalr	t1,t3
   15b9c:	00000013          	nop

0000000000015ba0 <_ZNSi10_M_extractImEERSiRT_@plt>:
   15ba0:	00036e17          	auipc	t3,0x36
   15ba4:	8d8e3e03          	ld	t3,-1832(t3) # 4b478 <_ZNSi10_M_extractImEERSiRT_@Base>
   15ba8:	000e0367          	jalr	t1,t3
   15bac:	00000013          	nop

0000000000015bb0 <_ZNSt8__detail15_List_node_base11_M_transferEPS0_S1_@plt>:
   15bb0:	00036e17          	auipc	t3,0x36
   15bb4:	8d0e3e03          	ld	t3,-1840(t3) # 4b480 <_ZNSt8__detail15_List_node_base11_M_transferEPS0_S1_@Base>
   15bb8:	000e0367          	jalr	t1,t3
   15bbc:	00000013          	nop

0000000000015bc0 <strcmp@plt>:
   15bc0:	00036e17          	auipc	t3,0x36
   15bc4:	8c8e3e03          	ld	t3,-1848(t3) # 4b488 <strcmp@GLIBC_2.27>
   15bc8:	000e0367          	jalr	t1,t3
   15bcc:	00000013          	nop

0000000000015bd0 <strlen@plt>:
   15bd0:	00036e17          	auipc	t3,0x36
   15bd4:	8c0e3e03          	ld	t3,-1856(t3) # 4b490 <strlen@GLIBC_2.27>
   15bd8:	000e0367          	jalr	t1,t3
   15bdc:	00000013          	nop

0000000000015be0 <wcslen@plt>:
   15be0:	00036e17          	auipc	t3,0x36
   15be4:	8b8e3e03          	ld	t3,-1864(t3) # 4b498 <wcslen@GLIBC_2.27>
   15be8:	000e0367          	jalr	t1,t3
   15bec:	00000013          	nop

0000000000015bf0 <__cxa_throw@plt>:
   15bf0:	00036e17          	auipc	t3,0x36
   15bf4:	8b0e3e03          	ld	t3,-1872(t3) # 4b4a0 <__cxa_throw@Base>
   15bf8:	000e0367          	jalr	t1,t3
   15bfc:	00000013          	nop

0000000000015c00 <write@plt>:
   15c00:	00036e17          	auipc	t3,0x36
   15c04:	8a8e3e03          	ld	t3,-1880(t3) # 4b4a8 <write@GLIBC_2.27>
   15c08:	000e0367          	jalr	t1,t3
   15c0c:	00000013          	nop

0000000000015c10 <_ZNSt7__cxx1112basic_stringIcSt11char_traitsIcESaIcEE12_M_constructEmc@plt>:
   15c10:	00036e17          	auipc	t3,0x36
   15c14:	8a0e3e03          	ld	t3,-1888(t3) # 4b4b0 <_ZNSt7__cxx1112basic_stringIcSt11char_traitsIcESaIcEE12_M_constructEmc@Base>
   15c18:	000e0367          	jalr	t1,t3
   15c1c:	00000013          	nop

0000000000015c20 <pthread_getspecific@plt>:
   15c20:	00036e17          	auipc	t3,0x36
   15c24:	898e3e03          	ld	t3,-1896(t3) # 4b4b8 <pthread_getspecific@GLIBC_2.34>
   15c28:	000e0367          	jalr	t1,t3
   15c2c:	00000013          	nop

0000000000015c30 <gettimeofday@plt>:
   15c30:	00036e17          	auipc	t3,0x36
   15c34:	890e3e03          	ld	t3,-1904(t3) # 4b4c0 <gettimeofday@GLIBC_2.27>
   15c38:	000e0367          	jalr	t1,t3
   15c3c:	00000013          	nop

0000000000015c40 <fdopen@plt>:
   15c40:	00036e17          	auipc	t3,0x36
   15c44:	888e3e03          	ld	t3,-1912(t3) # 4b4c8 <fdopen@GLIBC_2.27>
   15c48:	000e0367          	jalr	t1,t3
   15c4c:	00000013          	nop

0000000000015c50 <isatty@plt>:
   15c50:	00036e17          	auipc	t3,0x36
   15c54:	880e3e03          	ld	t3,-1920(t3) # 4b4d0 <isatty@GLIBC_2.27>
   15c58:	000e0367          	jalr	t1,t3
   15c5c:	00000013          	nop

0000000000015c60 <__cxa_end_catch@plt>:
   15c60:	00036e17          	auipc	t3,0x36
   15c64:	878e3e03          	ld	t3,-1928(t3) # 4b4d8 <__cxa_end_catch@Base>
   15c68:	000e0367          	jalr	t1,t3
   15c6c:	00000013          	nop

0000000000015c70 <getaddrinfo@plt>:
   15c70:	00036e17          	auipc	t3,0x36
   15c74:	870e3e03          	ld	t3,-1936(t3) # 4b4e0 <getaddrinfo@GLIBC_2.27>
   15c78:	000e0367          	jalr	t1,t3
   15c7c:	00000013          	nop

0000000000015c80 <_ZNSo5flushEv@plt>:
   15c80:	00036e17          	auipc	t3,0x36
   15c84:	868e3e03          	ld	t3,-1944(t3) # 4b4e8 <_ZNSo5flushEv@Base>
   15c88:	000e0367          	jalr	t1,t3
   15c8c:	00000013          	nop

0000000000015c90 <fflush@plt>:
   15c90:	00036e17          	auipc	t3,0x36
   15c94:	860e3e03          	ld	t3,-1952(t3) # 4b4f0 <fflush@GLIBC_2.27>
   15c98:	000e0367          	jalr	t1,t3
   15c9c:	00000013          	nop

0000000000015ca0 <_ZSt28__throw_bad_array_new_lengthv@plt>:
   15ca0:	00036e17          	auipc	t3,0x36
   15ca4:	858e3e03          	ld	t3,-1960(t3) # 4b4f8 <_ZSt28__throw_bad_array_new_lengthv@Base>
   15ca8:	000e0367          	jalr	t1,t3
   15cac:	00000013          	nop

0000000000015cb0 <regexec@plt>:
   15cb0:	00036e17          	auipc	t3,0x36
   15cb4:	850e3e03          	ld	t3,-1968(t3) # 4b500 <regexec@GLIBC_2.27>
   15cb8:	000e0367          	jalr	t1,t3
   15cbc:	00000013          	nop

0000000000015cc0 <_ZNSt13basic_filebufIcSt11char_traitsIcEED1Ev@plt>:
   15cc0:	00036e17          	auipc	t3,0x36
   15cc4:	848e3e03          	ld	t3,-1976(t3) # 4b508 <_ZNSt13basic_filebufIcSt11char_traitsIcEED1Ev@Base>
   15cc8:	000e0367          	jalr	t1,t3
   15ccc:	00000013          	nop

0000000000015cd0 <__dynamic_cast@plt>:
   15cd0:	00036e17          	auipc	t3,0x36
   15cd4:	840e3e03          	ld	t3,-1984(t3) # 4b510 <__dynamic_cast@Base>
   15cd8:	000e0367          	jalr	t1,t3
   15cdc:	00000013          	nop

0000000000015ce0 <memset@plt>:
   15ce0:	00036e17          	auipc	t3,0x36
   15ce4:	838e3e03          	ld	t3,-1992(t3) # 4b518 <memset@GLIBC_2.27>
   15ce8:	000e0367          	jalr	t1,t3
   15cec:	00000013          	nop

0000000000015cf0 <sigaction@plt>:
   15cf0:	00036e17          	auipc	t3,0x36
   15cf4:	830e3e03          	ld	t3,-2000(t3) # 4b520 <sigaction@GLIBC_2.27>
   15cf8:	000e0367          	jalr	t1,t3
   15cfc:	00000013          	nop

0000000000015d00 <_ZnamSt11align_val_t@plt>:
   15d00:	00036e17          	auipc	t3,0x36
   15d04:	828e3e03          	ld	t3,-2008(t3) # 4b528 <_ZnamSt11align_val_t@CXXABI_1.3.11>
   15d08:	000e0367          	jalr	t1,t3
   15d0c:	00000013          	nop

0000000000015d10 <__cxa_guard_release@plt>:
   15d10:	00036e17          	auipc	t3,0x36
   15d14:	820e3e03          	ld	t3,-2016(t3) # 4b530 <__cxa_guard_release@Base>
   15d18:	000e0367          	jalr	t1,t3
   15d1c:	00000013          	nop

0000000000015d20 <__gxx_personality_v0@plt>:
   15d20:	00036e17          	auipc	t3,0x36
   15d24:	818e3e03          	ld	t3,-2024(t3) # 4b538 <__gxx_personality_v0@Base>
   15d28:	000e0367          	jalr	t1,t3
   15d2c:	00000013          	nop

0000000000015d30 <regcomp@plt>:
   15d30:	00036e17          	auipc	t3,0x36
   15d34:	810e3e03          	ld	t3,-2032(t3) # 4b540 <regcomp@GLIBC_2.27>
   15d38:	000e0367          	jalr	t1,t3
   15d3c:	00000013          	nop

0000000000015d40 <_ZNSt7__cxx1112basic_stringIcSt11char_traitsIcESaIcEE6appendEPKcm@plt>:
   15d40:	00036e17          	auipc	t3,0x36
   15d44:	808e3e03          	ld	t3,-2040(t3) # 4b548 <_ZNSt7__cxx1112basic_stringIcSt11char_traitsIcESaIcEE6appendEPKcm@Base>
   15d48:	000e0367          	jalr	t1,t3
   15d4c:	00000013          	nop

0000000000015d50 <_ZNSt12__basic_fileIcED1Ev@plt>:
   15d50:	00036e17          	auipc	t3,0x36
   15d54:	800e3e03          	ld	t3,-2048(t3) # 4b550 <_ZNSt12__basic_fileIcED1Ev@Base>
   15d58:	000e0367          	jalr	t1,t3
   15d5c:	00000013          	nop

0000000000015d60 <_ZNSt13runtime_errorC2EPKc@plt>:
   15d60:	00035e17          	auipc	t3,0x35
   15d64:	7f8e3e03          	ld	t3,2040(t3) # 4b558 <_ZNSt13runtime_errorC2EPKc@Base>
   15d68:	000e0367          	jalr	t1,t3
   15d6c:	00000013          	nop

0000000000015d70 <__isoc23_strtoull@plt>:
   15d70:	00035e17          	auipc	t3,0x35
   15d74:	7f0e3e03          	ld	t3,2032(t3) # 4b560 <__isoc23_strtoull@GLIBC_2.38>
   15d78:	000e0367          	jalr	t1,t3
   15d7c:	00000013          	nop

0000000000015d80 <__libc_start_main@plt>:
   15d80:	00035e17          	auipc	t3,0x35
   15d84:	7e8e3e03          	ld	t3,2024(t3) # 4b568 <__libc_start_main@GLIBC_2.34>
   15d88:	000e0367          	jalr	t1,t3
   15d8c:	00000013          	nop

0000000000015d90 <ftell@plt>:
   15d90:	00035e17          	auipc	t3,0x35
   15d94:	7e0e3e03          	ld	t3,2016(t3) # 4b570 <ftell@GLIBC_2.27>
   15d98:	000e0367          	jalr	t1,t3
   15d9c:	00000013          	nop

0000000000015da0 <_ZNKSt7__cxx1112basic_stringIwSt11char_traitsIwESaIwEE4findEPKwmm@plt>:
   15da0:	00035e17          	auipc	t3,0x35
   15da4:	7d8e3e03          	ld	t3,2008(t3) # 4b578 <_ZNKSt7__cxx1112basic_stringIwSt11char_traitsIwESaIwEE4findEPKwmm@Base>
   15da8:	000e0367          	jalr	t1,t3
   15dac:	00000013          	nop

0000000000015db0 <_ZdaPv@plt>:
   15db0:	00035e17          	auipc	t3,0x35
   15db4:	7d0e3e03          	ld	t3,2000(t3) # 4b580 <_ZdaPv@Base>
   15db8:	000e0367          	jalr	t1,t3
   15dbc:	00000013          	nop

0000000000015dc0 <_ZSt17__throw_bad_allocv@plt>:
   15dc0:	00035e17          	auipc	t3,0x35
   15dc4:	7c8e3e03          	ld	t3,1992(t3) # 4b588 <_ZSt17__throw_bad_allocv@Base>
   15dc8:	000e0367          	jalr	t1,t3
   15dcc:	00000013          	nop

Disassembly of section .text:

0000000000015dd0 <_ZNSt7__cxx1112basic_stringIcSt11char_traitsIcESaIcEEC2EPKcRKS3_.part.0>:
   15dd0:	1141                	addi	sp,sp,-16
   15dd2:	00023517          	auipc	a0,0x23
   15dd6:	a7e50513          	addi	a0,a0,-1410 # 38850 <_IO_stdin_used+0x1f8>
   15dda:	e406                	sd	ra,8(sp)
   15ddc:	ab5ff0ef          	jal	ra,15890 <_ZSt19__throw_logic_errorPKc@plt>

0000000000015de0 <_ZN7testing7MessagelsIKcEERS0_RKPT_.isra.0>:
   15de0:	1101                	addi	sp,sp,-32
   15de2:	e04a                	sd	s2,0(sp)
   15de4:	00053903          	ld	s2,0(a0)
   15de8:	e426                	sd	s1,8(sp)
   15dea:	ec06                	sd	ra,24(sp)
   15dec:	e822                	sd	s0,16(sp)
   15dee:	84aa                	mv	s1,a0
   15df0:	0941                	addi	s2,s2,16
   15df2:	e991                	bnez	a1,15e06 <_ZN7testing7MessagelsIKcEERS0_RKPT_.isra.0+0x26>
   15df4:	854a                	mv	a0,s2
   15df6:	4619                	li	a2,6
   15df8:	00023597          	auipc	a1,0x23
   15dfc:	bf858593          	addi	a1,a1,-1032 # 389f0 <_IO_stdin_used+0x398>
   15e00:	901ff0ef          	jal	ra,15700 <_ZSt16__ostream_insertIcSt11char_traitsIcEERSt13basic_ostreamIT_T0_ES6_PKS3_l@plt>
   15e04:	a811                	j	15e18 <_ZN7testing7MessagelsIKcEERS0_RKPT_.isra.0+0x38>
   15e06:	852e                	mv	a0,a1
   15e08:	842e                	mv	s0,a1
   15e0a:	dc7ff0ef          	jal	ra,15bd0 <strlen@plt>
   15e0e:	862a                	mv	a2,a0
   15e10:	85a2                	mv	a1,s0
   15e12:	854a                	mv	a0,s2
   15e14:	8edff0ef          	jal	ra,15700 <_ZSt16__ostream_insertIcSt11char_traitsIcEERSt13basic_ostreamIT_T0_ES6_PKS3_l@plt>
   15e18:	60e2                	ld	ra,24(sp)
   15e1a:	6442                	ld	s0,16(sp)
   15e1c:	6902                	ld	s2,0(sp)
   15e1e:	8526                	mv	a0,s1
   15e20:	64a2                	ld	s1,8(sp)
   15e22:	6105                	addi	sp,sp,32
   15e24:	8082                	ret

0000000000015e26 <_ZN7testing8internalL25FormatCxxExceptionMessageEPKcS2_>:
   15e26:	7139                	addi	sp,sp,-64
   15e28:	f426                	sd	s1,40(sp)
   15e2a:	0024                	addi	s1,sp,8
   15e2c:	f822                	sd	s0,48(sp)
   15e2e:	842a                	mv	s0,a0
   15e30:	8526                	mv	a0,s1
   15e32:	f04a                	sd	s2,32(sp)
   15e34:	ec4e                	sd	s3,24(sp)
   15e36:	fc06                	sd	ra,56(sp)
   15e38:	892e                	mv	s2,a1
   15e3a:	89b2                	mv	s3,a2
   15e3c:	75d030ef          	jal	ra,19d98 <_ZN7testing7MessageC1Ev>
   15e40:	6522                	ld	a0,8(sp)
   15e42:	0541                	addi	a0,a0,16
   15e44:	02090563          	beqz	s2,15e6e <_ZN7testing8internalL25FormatCxxExceptionMessageEPKcS2_+0x48>
   15e48:	00023597          	auipc	a1,0x23
   15e4c:	c6058593          	addi	a1,a1,-928 # 38aa8 <_IO_stdin_used+0x450>
   15e50:	fe0ff0ef          	jal	ra,15630 <_ZStlsISt11char_traitsIcEERSt13basic_ostreamIcT_ES5_PKc@plt>
   15e54:	85ca                	mv	a1,s2
   15e56:	8526                	mv	a0,s1
   15e58:	f89ff0ef          	jal	ra,15de0 <_ZN7testing7MessagelsIKcEERS0_RKPT_.isra.0>
   15e5c:	6108                	ld	a0,0(a0)
   15e5e:	00023597          	auipc	a1,0x23
   15e62:	b6a58593          	addi	a1,a1,-1174 # 389c8 <_IO_stdin_used+0x370>
   15e66:	0541                	addi	a0,a0,16
   15e68:	fc8ff0ef          	jal	ra,15630 <_ZStlsISt11char_traitsIcEERSt13basic_ostreamIcT_ES5_PKc@plt>
   15e6c:	a039                	j	15e7a <_ZN7testing8internalL25FormatCxxExceptionMessageEPKcS2_+0x54>
   15e6e:	00023597          	auipc	a1,0x23
   15e72:	c6258593          	addi	a1,a1,-926 # 38ad0 <_IO_stdin_used+0x478>
   15e76:	fbaff0ef          	jal	ra,15630 <_ZStlsISt11char_traitsIcEERSt13basic_ostreamIcT_ES5_PKc@plt>
   15e7a:	6522                	ld	a0,8(sp)
   15e7c:	00023597          	auipc	a1,0x23
   15e80:	c6c58593          	addi	a1,a1,-916 # 38ae8 <_IO_stdin_used+0x490>
   15e84:	0541                	addi	a0,a0,16
   15e86:	faaff0ef          	jal	ra,15630 <_ZStlsISt11char_traitsIcEERSt13basic_ostreamIcT_ES5_PKc@plt>
   15e8a:	85ce                	mv	a1,s3
   15e8c:	8526                	mv	a0,s1
   15e8e:	f53ff0ef          	jal	ra,15de0 <_ZN7testing7MessagelsIKcEERS0_RKPT_.isra.0>
   15e92:	6108                	ld	a0,0(a0)
   15e94:	00025597          	auipc	a1,0x25
   15e98:	8ac58593          	addi	a1,a1,-1876 # 3a740 <_IO_stdin_used+0x20e8>
   15e9c:	0541                	addi	a0,a0,16
   15e9e:	f92ff0ef          	jal	ra,15630 <_ZStlsISt11char_traitsIcEERSt13basic_ostreamIcT_ES5_PKc@plt>
   15ea2:	85a6                	mv	a1,s1
   15ea4:	8522                	mv	a0,s0
   15ea6:	31c040ef          	jal	ra,1a1c2 <_ZNK7testing7Message9GetStringB5cxx11Ev>
   15eaa:	6522                	ld	a0,8(sp)
   15eac:	cd19                	beqz	a0,15eca <_ZN7testing8internalL25FormatCxxExceptionMessageEPKcS2_+0xa4>
   15eae:	611c                	ld	a5,0(a0)
   15eb0:	679c                	ld	a5,8(a5)
   15eb2:	9782                	jalr	a5
   15eb4:	a819                	j	15eca <_ZN7testing8internalL25FormatCxxExceptionMessageEPKcS2_+0xa4>
   15eb6:	67a2                	ld	a5,8(sp)
   15eb8:	842a                	mv	s0,a0
   15eba:	c789                	beqz	a5,15ec4 <_ZN7testing8internalL25FormatCxxExceptionMessageEPKcS2_+0x9e>
   15ebc:	6398                	ld	a4,0(a5)
   15ebe:	853e                	mv	a0,a5
   15ec0:	671c                	ld	a5,8(a4)
   15ec2:	9782                	jalr	a5
   15ec4:	8522                	mv	a0,s0
   15ec6:	92bff0ef          	jal	ra,157f0 <_Unwind_Resume@plt>
   15eca:	70e2                	ld	ra,56(sp)
   15ecc:	8522                	mv	a0,s0
   15ece:	7442                	ld	s0,48(sp)
   15ed0:	74a2                	ld	s1,40(sp)
   15ed2:	7902                	ld	s2,32(sp)
   15ed4:	69e2                	ld	s3,24(sp)
   15ed6:	6121                	addi	sp,sp,64
   15ed8:	8082                	ret
	...

0000000000015edc <_ZN7testing8internal16SuiteApiResolverINS_4TestEE19GetSetUpCaseOrSuiteEPKci.part.0.constprop.0>:
   15edc:	fd010113          	addi	sp,sp,-48
   15ee0:	02813023          	sd	s0,32(sp)
   15ee4:	00810413          	addi	s0,sp,8
   15ee8:	01213823          	sd	s2,16(sp)
   15eec:	20400693          	li	a3,516
   15ef0:	00050913          	mv	s2,a0
   15ef4:	00022617          	auipc	a2,0x22
   15ef8:	78c60613          	addi	a2,a2,1932 # 38680 <_IO_stdin_used+0x28>
   15efc:	00040513          	mv	a0,s0
   15f00:	00300593          	li	a1,3
   15f04:	02113423          	sd	ra,40(sp)
   15f08:	00913c23          	sd	s1,24(sp)
   15f0c:	08a0a0ef          	jal	ra,1ff96 <_ZN7testing8internal8GTestLogC1ENS0_16GTestLogSeverityEPKci>
   15f10:	03200613          	li	a2,50
   15f14:	00022597          	auipc	a1,0x22
   15f18:	7bc58593          	addi	a1,a1,1980 # 386d0 <_IO_stdin_used+0x78>
   15f1c:	00035517          	auipc	a0,0x35
   15f20:	07c53503          	ld	a0,124(a0) # 4af98 <_ZSt4cerr@Base>
   15f24:	fdcff0ef          	jal	ra,15700 <_ZSt16__ostream_insertIcSt11char_traitsIcEERSt13basic_ostreamIT_T0_ES6_PKS3_l@plt>
   15f28:	06a00613          	li	a2,106
   15f2c:	00022597          	auipc	a1,0x22
   15f30:	7dc58593          	addi	a1,a1,2012 # 38708 <_IO_stdin_used+0xb0>
   15f34:	00035517          	auipc	a0,0x35
   15f38:	06453503          	ld	a0,100(a0) # 4af98 <_ZSt4cerr@Base>
   15f3c:	fc4ff0ef          	jal	ra,15700 <_ZSt16__ostream_insertIcSt11char_traitsIcEERSt13basic_ostreamIT_T0_ES6_PKS3_l@plt>
   15f40:	00023597          	auipc	a1,0x23
   15f44:	83858593          	addi	a1,a1,-1992 # 38778 <_IO_stdin_used+0x120>
   15f48:	00035517          	auipc	a0,0x35
   15f4c:	05053503          	ld	a0,80(a0) # 4af98 <_ZSt4cerr@Base>
   15f50:	ee0ff0ef          	jal	ra,15630 <_ZStlsISt11char_traitsIcEERSt13basic_ostreamIcT_ES5_PKc@plt>
   15f54:	00100613          	li	a2,1
   15f58:	00023597          	auipc	a1,0x23
   15f5c:	86858593          	addi	a1,a1,-1944 # 387c0 <_IO_stdin_used+0x168>
   15f60:	00050493          	mv	s1,a0
   15f64:	f9cff0ef          	jal	ra,15700 <_ZSt16__ostream_insertIcSt11char_traitsIcEERSt13basic_ostreamIT_T0_ES6_PKS3_l@plt>
   15f68:	00090593          	mv	a1,s2
   15f6c:	00048513          	mv	a0,s1
   15f70:	da0ff0ef          	jal	ra,15510 <_ZNSolsEi@plt>
   15f74:	00040513          	mv	a0,s0
   15f78:	3ae070ef          	jal	ra,1d326 <_ZN7testing8internal8GTestLogD1Ev>
   15f7c:	02813083          	ld	ra,40(sp)
   15f80:	02013403          	ld	s0,32(sp)
   15f84:	01813483          	ld	s1,24(sp)
   15f88:	01013903          	ld	s2,16(sp)
   15f8c:	03010113          	addi	sp,sp,48
   15f90:	00008067          	ret

0000000000015f94 <_ZN7testing8internal16SuiteApiResolverINS_4TestEE22GetTearDownCaseOrSuiteEPKci.part.0.constprop.0>:
   15f94:	fd010113          	addi	sp,sp,-48
   15f98:	02813023          	sd	s0,32(sp)
   15f9c:	00810413          	addi	s0,sp,8
   15fa0:	01213823          	sd	s2,16(sp)
   15fa4:	21300693          	li	a3,531
   15fa8:	00050913          	mv	s2,a0
   15fac:	00022617          	auipc	a2,0x22
   15fb0:	6d460613          	addi	a2,a2,1748 # 38680 <_IO_stdin_used+0x28>
   15fb4:	00040513          	mv	a0,s0
   15fb8:	00300593          	li	a1,3
   15fbc:	02113423          	sd	ra,40(sp)
   15fc0:	00913c23          	sd	s1,24(sp)
   15fc4:	7d3090ef          	jal	ra,1ff96 <_ZN7testing8internal8GTestLogC1ENS0_16GTestLogSeverityEPKci>
   15fc8:	03200613          	li	a2,50
   15fcc:	00022597          	auipc	a1,0x22
   15fd0:	70458593          	addi	a1,a1,1796 # 386d0 <_IO_stdin_used+0x78>
   15fd4:	00035517          	auipc	a0,0x35
   15fd8:	fc453503          	ld	a0,-60(a0) # 4af98 <_ZSt4cerr@Base>
   15fdc:	f24ff0ef          	jal	ra,15700 <_ZSt16__ostream_insertIcSt11char_traitsIcEERSt13basic_ostreamIT_T0_ES6_PKS3_l@plt>
   15fe0:	06f00613          	li	a2,111
   15fe4:	00022597          	auipc	a1,0x22
   15fe8:	7e458593          	addi	a1,a1,2020 # 387c8 <_IO_stdin_used+0x170>
   15fec:	00035517          	auipc	a0,0x35
   15ff0:	fac53503          	ld	a0,-84(a0) # 4af98 <_ZSt4cerr@Base>
   15ff4:	f0cff0ef          	jal	ra,15700 <_ZSt16__ostream_insertIcSt11char_traitsIcEERSt13basic_ostreamIT_T0_ES6_PKS3_l@plt>
   15ff8:	00022597          	auipc	a1,0x22
   15ffc:	78058593          	addi	a1,a1,1920 # 38778 <_IO_stdin_used+0x120>
   16000:	00035517          	auipc	a0,0x35
   16004:	f9853503          	ld	a0,-104(a0) # 4af98 <_ZSt4cerr@Base>
   16008:	e28ff0ef          	jal	ra,15630 <_ZStlsISt11char_traitsIcEERSt13basic_ostreamIcT_ES5_PKc@plt>
   1600c:	00100613          	li	a2,1
   16010:	00022597          	auipc	a1,0x22
   16014:	7b058593          	addi	a1,a1,1968 # 387c0 <_IO_stdin_used+0x168>
   16018:	00050493          	mv	s1,a0
   1601c:	ee4ff0ef          	jal	ra,15700 <_ZSt16__ostream_insertIcSt11char_traitsIcEERSt13basic_ostreamIT_T0_ES6_PKS3_l@plt>
   16020:	00090593          	mv	a1,s2
   16024:	00048513          	mv	a0,s1
   16028:	ce8ff0ef          	jal	ra,15510 <_ZNSolsEi@plt>
   1602c:	00040513          	mv	a0,s0
   16030:	2f6070ef          	jal	ra,1d326 <_ZN7testing8internal8GTestLogD1Ev>
   16034:	02813083          	ld	ra,40(sp)
   16038:	02013403          	ld	s0,32(sp)
   1603c:	01813483          	ld	s1,24(sp)
   16040:	01013903          	ld	s2,16(sp)
   16044:	03010113          	addi	sp,sp,48
   16048:	00008067          	ret

000000000001604c <_ZNSt7__cxx1112basic_stringIcSt11char_traitsIcESaIcEE12_M_constructIPcEEvT_S7_St20forward_iterator_tag.isra.0>:
   1604c:	fe010113          	addi	sp,sp,-32
   16050:	00813823          	sd	s0,16(sp)
   16054:	00913423          	sd	s1,8(sp)
   16058:	01213023          	sd	s2,0(sp)
   1605c:	00113c23          	sd	ra,24(sp)
   16060:	40b60433          	sub	s0,a2,a1
   16064:	00f00793          	li	a5,15
   16068:	00058493          	mv	s1,a1
   1606c:	00050913          	mv	s2,a0
   16070:	0487e663          	bltu	a5,s0,160bc <_ZNSt7__cxx1112basic_stringIcSt11char_traitsIcESaIcEE12_M_constructIPcEEvT_S7_St20forward_iterator_tag.isra.0+0x70>
   16074:	00053783          	ld	a5,0(a0)
   16078:	00100713          	li	a4,1
   1607c:	00078513          	mv	a0,a5
   16080:	02e40663          	beq	s0,a4,160ac <_ZNSt7__cxx1112basic_stringIcSt11char_traitsIcESaIcEE12_M_constructIPcEEvT_S7_St20forward_iterator_tag.isra.0+0x60>
   16084:	04041863          	bnez	s0,160d4 <_ZNSt7__cxx1112basic_stringIcSt11char_traitsIcESaIcEE12_M_constructIPcEEvT_S7_St20forward_iterator_tag.isra.0+0x88>
   16088:	00893423          	sd	s0,8(s2)
   1608c:	008787b3          	add	a5,a5,s0
   16090:	00078023          	sb	zero,0(a5)
   16094:	01813083          	ld	ra,24(sp)
   16098:	01013403          	ld	s0,16(sp)
   1609c:	00813483          	ld	s1,8(sp)
   160a0:	00013903          	ld	s2,0(sp)
   160a4:	02010113          	addi	sp,sp,32
   160a8:	00008067          	ret
   160ac:	0005c703          	lbu	a4,0(a1)
   160b0:	00e78023          	sb	a4,0(a5)
   160b4:	00093783          	ld	a5,0(s2)
   160b8:	fd1ff06f          	j	16088 <_ZNSt7__cxx1112basic_stringIcSt11char_traitsIcESaIcEE12_M_constructIPcEEvT_S7_St20forward_iterator_tag.isra.0+0x3c>
   160bc:	04044263          	bltz	s0,16100 <_ZNSt7__cxx1112basic_stringIcSt11char_traitsIcESaIcEE12_M_constructIPcEEvT_S7_St20forward_iterator_tag.isra.0+0xb4>
   160c0:	00140513          	addi	a0,s0,1
   160c4:	02054c63          	bltz	a0,160fc <_ZNSt7__cxx1112basic_stringIcSt11char_traitsIcESaIcEE12_M_constructIPcEEvT_S7_St20forward_iterator_tag.isra.0+0xb0>
   160c8:	fd8ff0ef          	jal	ra,158a0 <_Znwm@plt>
   160cc:	00a93023          	sd	a0,0(s2)
   160d0:	00893823          	sd	s0,16(s2)
   160d4:	00040713          	mv	a4,s0
   160d8:	0c3777d7          	vsetvli	a5,a4,e8,m8,ta,ma
   160dc:	02048407          	vle8.v	v8,(s1)
   160e0:	40f70733          	sub	a4,a4,a5
   160e4:	00f484b3          	add	s1,s1,a5
   160e8:	02050427          	vse8.v	v8,(a0)
   160ec:	00f50533          	add	a0,a0,a5
   160f0:	fe0714e3          	bnez	a4,160d8 <_ZNSt7__cxx1112basic_stringIcSt11char_traitsIcESaIcEE12_M_constructIPcEEvT_S7_St20forward_iterator_tag.isra.0+0x8c>
   160f4:	00093783          	ld	a5,0(s2)
   160f8:	f91ff06f          	j	16088 <_ZNSt7__cxx1112basic_stringIcSt11char_traitsIcESaIcEE12_M_constructIPcEEvT_S7_St20forward_iterator_tag.isra.0+0x3c>
   160fc:	cc5ff0ef          	jal	ra,15dc0 <_ZSt17__throw_bad_allocv@plt>
   16100:	00022517          	auipc	a0,0x22
   16104:	73850513          	addi	a0,a0,1848 # 38838 <_IO_stdin_used+0x1e0>
   16108:	fe8ff0ef          	jal	ra,158f0 <_ZSt20__throw_length_errorPKc@plt>

000000000001610c <_GLOBAL__sub_I__ZN36UnaryTestAbsFloat16_fixed_fixed_Test10test_info_E>:
   1610c:	8401c783          	lbu	a5,-1984(gp) # 4b5d0 <_ZGVN6nncase3ntt11distributed21topology_synchronizerILNS1_8topologyE2EE9barriers_E>
   16110:	f6010113          	addi	sp,sp,-160
   16114:	08113c23          	sd	ra,152(sp)
   16118:	08813823          	sd	s0,144(sp)
   1611c:	08913423          	sd	s1,136(sp)
   16120:	09213023          	sd	s2,128(sp)
   16124:	07313c23          	sd	s3,120(sp)
   16128:	07413823          	sd	s4,112(sp)
   1612c:	07513423          	sd	s5,104(sp)
   16130:	02079863          	bnez	a5,16160 <_GLOBAL__sub_I__ZN36UnaryTestAbsFloat16_fixed_fixed_Test10test_info_E+0x54>
   16134:	00100593          	li	a1,1
   16138:	84018713          	addi	a4,gp,-1984 # 4b5d0 <_ZGVN6nncase3ntt11distributed21topology_synchronizerILNS1_8topologyE2EE9barriers_E>
   1613c:	00000613          	li	a2,0
   16140:	89818513          	addi	a0,gp,-1896 # 4b628 <_ZN6nncase3ntt11distributed21topology_synchronizerILNS1_8topologyE2EE9barriers_E>
   16144:	00b70023          	sb	a1,0(a4)
   16148:	1dd000ef          	jal	ra,16b24 <_ZNSt14__tree_barrierISt18__empty_completionEC1ElS0_>
   1614c:	82018613          	addi	a2,gp,-2016 # 4b5b0 <__TMC_END__>
   16150:	00000593          	li	a1,0
   16154:	00000517          	auipc	a0,0x0
   16158:	73c50513          	addi	a0,a0,1852 # 16890 <__tcf_0>
   1615c:	cf4ff0ef          	jal	ra,15650 <__cxa_atexit@plt>
   16160:	8381c783          	lbu	a5,-1992(gp) # 4b5c8 <_ZGVN6nncase3ntt11distributed21topology_synchronizerILNS1_8topologyE1EE9barriers_E>
   16164:	83818713          	addi	a4,gp,-1992 # 4b5c8 <_ZGVN6nncase3ntt11distributed21topology_synchronizerILNS1_8topologyE1EE9barriers_E>
   16168:	02079663          	bnez	a5,16194 <_GLOBAL__sub_I__ZN36UnaryTestAbsFloat16_fixed_fixed_Test10test_info_E+0x88>
   1616c:	00100593          	li	a1,1
   16170:	00000613          	li	a2,0
   16174:	87818513          	addi	a0,gp,-1928 # 4b608 <_ZN6nncase3ntt11distributed21topology_synchronizerILNS1_8topologyE1EE9barriers_E>
   16178:	00b70023          	sb	a1,0(a4)
   1617c:	1a9000ef          	jal	ra,16b24 <_ZNSt14__tree_barrierISt18__empty_completionEC1ElS0_>
   16180:	82018613          	addi	a2,gp,-2016 # 4b5b0 <__TMC_END__>
   16184:	00000593          	li	a1,0
   16188:	00000517          	auipc	a0,0x0
   1618c:	71c50513          	addi	a0,a0,1820 # 168a4 <__tcf_1>
   16190:	cc0ff0ef          	jal	ra,15650 <__cxa_atexit@plt>
   16194:	8301c783          	lbu	a5,-2000(gp) # 4b5c0 <_ZGVN6nncase3ntt11distributed21topology_synchronizerILNS1_8topologyE0EE8barrier_E>
   16198:	83018713          	addi	a4,gp,-2000 # 4b5c0 <_ZGVN6nncase3ntt11distributed21topology_synchronizerILNS1_8topologyE0EE8barrier_E>
   1619c:	1a078063          	beqz	a5,1633c <_GLOBAL__sub_I__ZN36UnaryTestAbsFloat16_fixed_fixed_Test10test_info_E+0x230>
   161a0:	01010a13          	addi	s4,sp,16
   161a4:	01810493          	addi	s1,sp,24
   161a8:	000a0613          	mv	a2,s4
   161ac:	00048513          	mv	a0,s1
   161b0:	00022597          	auipc	a1,0x22
   161b4:	5c858593          	addi	a1,a1,1480 # 38778 <_IO_stdin_used+0x120>
   161b8:	085000ef          	jal	ra,16a3c <_ZNSt7__cxx1112basic_stringIcSt11char_traitsIcESaIcEEC1IS3_EEPKcRKS3_>
   161bc:	01813583          	ld	a1,24(sp)
   161c0:	02013603          	ld	a2,32(sp)
   161c4:	03810413          	addi	s0,sp,56
   161c8:	00040513          	mv	a0,s0
   161cc:	00c58633          	add	a2,a1,a2
   161d0:	04810993          	addi	s3,sp,72
   161d4:	03313c23          	sd	s3,56(sp)
   161d8:	00600a93          	li	s5,6
   161dc:	e71ff0ef          	jal	ra,1604c <_ZNSt7__cxx1112basic_stringIcSt11char_traitsIcESaIcEE12_M_constructIPcEEvT_S7_St20forward_iterator_tag.isra.0>
   161e0:	05512c23          	sw	s5,88(sp)
   161e4:	155030ef          	jal	ra,19b38 <_ZN7testing8internal13GetTestTypeIdEv>
   161e8:	00050913          	mv	s2,a0
   161ec:	00100513          	li	a0,1
   161f0:	57f050ef          	jal	ra,1bf6e <_ZN7testing8internal6IsTrueEb>
   161f4:	18050c63          	beqz	a0,1638c <_GLOBAL__sub_I__ZN36UnaryTestAbsFloat16_fixed_fixed_Test10test_info_E+0x280>
   161f8:	00100513          	li	a0,1
   161fc:	573050ef          	jal	ra,1bf6e <_ZN7testing8internal6IsTrueEb>
   16200:	18050063          	beqz	a0,16380 <_GLOBAL__sub_I__ZN36UnaryTestAbsFloat16_fixed_fixed_Test10test_info_E+0x274>
   16204:	00800513          	li	a0,8
   16208:	e98ff0ef          	jal	ra,158a0 <_Znwm@plt>
   1620c:	00050313          	mv	t1,a0
   16210:	00034e17          	auipc	t3,0x34
   16214:	968e0e13          	addi	t3,t3,-1688 # 49b78 <_ZTVN7testing8internal15TestFactoryImplI36UnaryTestAbsFloat16_fixed_fixed_TestEE+0x10>
   16218:	00a13023          	sd	a0,0(sp)
   1621c:	00040713          	mv	a4,s0
   16220:	00000893          	li	a7,0
   16224:	00000813          	li	a6,0
   16228:	00000693          	li	a3,0
   1622c:	01c33023          	sd	t3,0(t1)
   16230:	00000613          	li	a2,0
   16234:	00022597          	auipc	a1,0x22
   16238:	67c58593          	addi	a1,a1,1660 # 388b0 <_IO_stdin_used+0x258>
   1623c:	00090793          	mv	a5,s2
   16240:	00022517          	auipc	a0,0x22
   16244:	68050513          	addi	a0,a0,1664 # 388c0 <_IO_stdin_used+0x268>
   16248:	1e7180ef          	jal	ra,2ec2e <_ZN7testing8internal23MakeAndRegisterTestInfoEPKcS2_S2_S2_NS0_12CodeLocationEPKvPFvvES7_PNS0_15TestFactoryBaseE>
   1624c:	00050793          	mv	a5,a0
   16250:	00040513          	mv	a0,s0
   16254:	84f1b823          	sd	a5,-1968(gp) # 4b5e0 <_ZN36UnaryTestAbsFloat16_fixed_fixed_Test10test_info_E>
   16258:	0ad000ef          	jal	ra,16b04 <_ZNSt7__cxx1112basic_stringIcSt11char_traitsIcESaIcEE10_M_disposeEv>
   1625c:	00048513          	mv	a0,s1
   16260:	0a5000ef          	jal	ra,16b04 <_ZNSt7__cxx1112basic_stringIcSt11char_traitsIcESaIcEE10_M_disposeEv>
   16264:	000a0613          	mv	a2,s4
   16268:	00048513          	mv	a0,s1
   1626c:	00022597          	auipc	a1,0x22
   16270:	50c58593          	addi	a1,a1,1292 # 38778 <_IO_stdin_used+0x120>
   16274:	7c8000ef          	jal	ra,16a3c <_ZNSt7__cxx1112basic_stringIcSt11char_traitsIcESaIcEEC1IS3_EEPKcRKS3_>
   16278:	01813583          	ld	a1,24(sp)
   1627c:	02013603          	ld	a2,32(sp)
   16280:	00040513          	mv	a0,s0
   16284:	03313c23          	sd	s3,56(sp)
   16288:	00c58633          	add	a2,a1,a2
   1628c:	dc1ff0ef          	jal	ra,1604c <_ZNSt7__cxx1112basic_stringIcSt11char_traitsIcESaIcEE12_M_constructIPcEEvT_S7_St20forward_iterator_tag.isra.0>
   16290:	01300993          	li	s3,19
   16294:	05312c23          	sw	s3,88(sp)
   16298:	0a1030ef          	jal	ra,19b38 <_ZN7testing8internal13GetTestTypeIdEv>
   1629c:	00050913          	mv	s2,a0
   162a0:	00100513          	li	a0,1
   162a4:	4cb050ef          	jal	ra,1bf6e <_ZN7testing8internal6IsTrueEb>
   162a8:	0c050663          	beqz	a0,16374 <_GLOBAL__sub_I__ZN36UnaryTestAbsFloat16_fixed_fixed_Test10test_info_E+0x268>
   162ac:	00100513          	li	a0,1
   162b0:	4bf050ef          	jal	ra,1bf6e <_ZN7testing8internal6IsTrueEb>
   162b4:	0a050a63          	beqz	a0,16368 <_GLOBAL__sub_I__ZN36UnaryTestAbsFloat16_fixed_fixed_Test10test_info_E+0x25c>
   162b8:	00800513          	li	a0,8
   162bc:	de4ff0ef          	jal	ra,158a0 <_Znwm@plt>
   162c0:	00050313          	mv	t1,a0
   162c4:	00a13023          	sd	a0,0(sp)
   162c8:	00034e17          	auipc	t3,0x34
   162cc:	8d8e0e13          	addi	t3,t3,-1832 # 49ba0 <_ZTVN7testing8internal15TestFactoryImplI19UnaryTestAbs_v_TestEE+0x10>
   162d0:	00040713          	mv	a4,s0
   162d4:	00090793          	mv	a5,s2
   162d8:	00000893          	li	a7,0
   162dc:	00000813          	li	a6,0
   162e0:	00000693          	li	a3,0
   162e4:	00000613          	li	a2,0
   162e8:	00022597          	auipc	a1,0x22
   162ec:	5f058593          	addi	a1,a1,1520 # 388d8 <_IO_stdin_used+0x280>
   162f0:	01c33023          	sd	t3,0(t1)
   162f4:	00022517          	auipc	a0,0x22
   162f8:	5ec50513          	addi	a0,a0,1516 # 388e0 <_IO_stdin_used+0x288>
   162fc:	133180ef          	jal	ra,2ec2e <_ZN7testing8internal23MakeAndRegisterTestInfoEPKcS2_S2_S2_NS0_12CodeLocationEPKvPFvvES7_PNS0_15TestFactoryBaseE>
   16300:	00050793          	mv	a5,a0
   16304:	00040513          	mv	a0,s0
   16308:	84f1b423          	sd	a5,-1976(gp) # 4b5d8 <_ZN19UnaryTestAbs_v_Test10test_info_E>
   1630c:	7f8000ef          	jal	ra,16b04 <_ZNSt7__cxx1112basic_stringIcSt11char_traitsIcESaIcEE10_M_disposeEv>
   16310:	00048513          	mv	a0,s1
   16314:	7f0000ef          	jal	ra,16b04 <_ZNSt7__cxx1112basic_stringIcSt11char_traitsIcESaIcEE10_M_disposeEv>
   16318:	09813083          	ld	ra,152(sp)
   1631c:	09013403          	ld	s0,144(sp)
   16320:	08813483          	ld	s1,136(sp)
   16324:	08013903          	ld	s2,128(sp)
   16328:	07813983          	ld	s3,120(sp)
   1632c:	07013a03          	ld	s4,112(sp)
   16330:	06813a83          	ld	s5,104(sp)
   16334:	0a010113          	addi	sp,sp,160
   16338:	00008067          	ret
   1633c:	00100593          	li	a1,1
   16340:	00000613          	li	a2,0
   16344:	85818513          	addi	a0,gp,-1960 # 4b5e8 <_ZN6nncase3ntt11distributed21topology_synchronizerILNS1_8topologyE0EE8barrier_E>
   16348:	00b70023          	sb	a1,0(a4)
   1634c:	7d8000ef          	jal	ra,16b24 <_ZNSt14__tree_barrierISt18__empty_completionEC1ElS0_>
   16350:	82018613          	addi	a2,gp,-2016 # 4b5b0 <__TMC_END__>
   16354:	85818593          	addi	a1,gp,-1960 # 4b5e8 <_ZN6nncase3ntt11distributed21topology_synchronizerILNS1_8topologyE0EE8barrier_E>
   16358:	00000517          	auipc	a0,0x0
   1635c:	52450513          	addi	a0,a0,1316 # 1687c <_ZN6nncase3ntt11distributed6detail12chip_barrierD1Ev>
   16360:	af0ff0ef          	jal	ra,15650 <__cxa_atexit@plt>
   16364:	e3dff06f          	j	161a0 <_GLOBAL__sub_I__ZN36UnaryTestAbsFloat16_fixed_fixed_Test10test_info_E+0x94>
   16368:	01300513          	li	a0,19
   1636c:	c29ff0ef          	jal	ra,15f94 <_ZN7testing8internal16SuiteApiResolverINS_4TestEE22GetTearDownCaseOrSuiteEPKci.part.0.constprop.0>
   16370:	f49ff06f          	j	162b8 <_GLOBAL__sub_I__ZN36UnaryTestAbsFloat16_fixed_fixed_Test10test_info_E+0x1ac>
   16374:	00098513          	mv	a0,s3
   16378:	b65ff0ef          	jal	ra,15edc <_ZN7testing8internal16SuiteApiResolverINS_4TestEE19GetSetUpCaseOrSuiteEPKci.part.0.constprop.0>
   1637c:	f31ff06f          	j	162ac <_GLOBAL__sub_I__ZN36UnaryTestAbsFloat16_fixed_fixed_Test10test_info_E+0x1a0>
   16380:	00600513          	li	a0,6
   16384:	c11ff0ef          	jal	ra,15f94 <_ZN7testing8internal16SuiteApiResolverINS_4TestEE22GetTearDownCaseOrSuiteEPKci.part.0.constprop.0>
   16388:	e7dff06f          	j	16204 <_GLOBAL__sub_I__ZN36UnaryTestAbsFloat16_fixed_fixed_Test10test_info_E+0xf8>
   1638c:	000a8513          	mv	a0,s5
   16390:	b4dff0ef          	jal	ra,15edc <_ZN7testing8internal16SuiteApiResolverINS_4TestEE19GetSetUpCaseOrSuiteEPKci.part.0.constprop.0>
   16394:	e65ff06f          	j	161f8 <_GLOBAL__sub_I__ZN36UnaryTestAbsFloat16_fixed_fixed_Test10test_info_E+0xec>

0000000000016398 <main>:
   16398:	1101                	addi	sp,sp,-32
   1639a:	e822                	sd	s0,16(sp)
   1639c:	87aa                	mv	a5,a0
   1639e:	842e                	mv	s0,a1
   163a0:	00022517          	auipc	a0,0x22
   163a4:	59850513          	addi	a0,a0,1432 # 38938 <_IO_stdin_used+0x2e0>
   163a8:	00022597          	auipc	a1,0x22
   163ac:	54858593          	addi	a1,a1,1352 # 388f0 <_IO_stdin_used+0x298>
   163b0:	ec06                	sd	ra,24(sp)
   163b2:	c63e                	sw	a5,12(sp)
   163b4:	b2cff0ef          	jal	ra,156e0 <printf@plt>
   163b8:	85a2                	mv	a1,s0
   163ba:	0068                	addi	a0,sp,12
   163bc:	444170ef          	jal	ra,2d800 <_ZN7testing14InitGoogleTestEPiPPc>
   163c0:	1eb130ef          	jal	ra,29daa <_ZN7testing8UnitTest11GetInstanceEv>
   163c4:	7701b0ef          	jal	ra,31b34 <_ZN7testing8UnitTest3RunEv>
   163c8:	60e2                	ld	ra,24(sp)
   163ca:	6442                	ld	s0,16(sp)
   163cc:	6105                	addi	sp,sp,32
   163ce:	8082                	ret

00000000000163d0 <_GLOBAL__sub_I_gtest_all.cc>:
   163d0:	7179                	addi	sp,sp,-48
   163d2:	4581                	li	a1,0
   163d4:	00025517          	auipc	a0,0x25
   163d8:	acc50513          	addi	a0,a0,-1332 # 3aea0 <_IO_stdin_used+0x2848>
   163dc:	f406                	sd	ra,40(sp)
   163de:	f022                	sd	s0,32(sp)
   163e0:	0ec080ef          	jal	ra,1e4cc <_ZN7testing8internal16BoolFromGTestEnvEPKcb>
   163e4:	872a                	mv	a4,a0
   163e6:	00035797          	auipc	a5,0x35
   163ea:	8e27b783          	ld	a5,-1822(a5) # 4acc8 <_GLOBAL_OFFSET_TABLE_+0x178>
   163ee:	4581                	li	a1,0
   163f0:	00025517          	auipc	a0,0x25
   163f4:	ac850513          	addi	a0,a0,-1336 # 3aeb8 <_IO_stdin_used+0x2860>
   163f8:	00e78023          	sb	a4,0(a5)
   163fc:	0d0080ef          	jal	ra,1e4cc <_ZN7testing8internal16BoolFromGTestEnvEPKcb>
   16400:	872a                	mv	a4,a0
   16402:	00035797          	auipc	a5,0x35
   16406:	84e7b783          	ld	a5,-1970(a5) # 4ac50 <_GLOBAL_OFFSET_TABLE_+0x100>
   1640a:	4585                	li	a1,1
   1640c:	00025517          	auipc	a0,0x25
   16410:	ac450513          	addi	a0,a0,-1340 # 3aed0 <_IO_stdin_used+0x2878>
   16414:	00e78023          	sb	a4,0(a5)
   16418:	0b4080ef          	jal	ra,1e4cc <_ZN7testing8internal16BoolFromGTestEnvEPKcb>
   1641c:	872a                	mv	a4,a0
   1641e:	00035797          	auipc	a5,0x35
   16422:	9827b783          	ld	a5,-1662(a5) # 4ada0 <_GLOBAL_OFFSET_TABLE_+0x250>
   16426:	00022597          	auipc	a1,0x22
   1642a:	72258593          	addi	a1,a1,1826 # 38b48 <_IO_stdin_used+0x4f0>
   1642e:	00022517          	auipc	a0,0x22
   16432:	7a250513          	addi	a0,a0,1954 # 38bd0 <_IO_stdin_used+0x578>
   16436:	00e78023          	sb	a4,0(a5)
   1643a:	34e080ef          	jal	ra,1e788 <_ZN7testing8internal18StringFromGTestEnvEPKcS2_>
   1643e:	85aa                	mv	a1,a0
   16440:	00035517          	auipc	a0,0x35
   16444:	9a053503          	ld	a0,-1632(a0) # 4ade0 <_GLOBAL_OFFSET_TABLE_+0x290>
   16448:	5c0020ef          	jal	ra,18a08 <_ZNSt7__cxx1112basic_stringIcSt11char_traitsIcESaIcEEC2EPKcRKS3_.isra.0>
   1644c:	00035597          	auipc	a1,0x35
   16450:	9945b583          	ld	a1,-1644(a1) # 4ade0 <_GLOBAL_OFFSET_TABLE_+0x290>
   16454:	82018613          	addi	a2,gp,-2016 # 4b5b0 <__TMC_END__>
   16458:	00035517          	auipc	a0,0x35
   1645c:	90053503          	ld	a0,-1792(a0) # 4ad58 <_ZNSt7__cxx1112basic_stringIcSt11char_traitsIcESaIcEED1Ev@Base>
   16460:	9f0ff0ef          	jal	ra,15650 <__cxa_atexit@plt>
   16464:	00025517          	auipc	a0,0x25
   16468:	a8450513          	addi	a0,a0,-1404 # 3aee8 <_IO_stdin_used+0x2890>
   1646c:	e64ff0ef          	jal	ra,15ad0 <getenv@plt>
   16470:	00025597          	auipc	a1,0x25
   16474:	3c058593          	addi	a1,a1,960 # 3b830 <_ZN7testingL16kUniversalFilterE>
   16478:	c111                	beqz	a0,1647c <_GLOBAL__sub_I_gtest_all.cc+0xac>
   1647a:	85aa                	mv	a1,a0
   1647c:	00025517          	auipc	a0,0x25
   16480:	a8450513          	addi	a0,a0,-1404 # 3af00 <_IO_stdin_used+0x28a8>
   16484:	304080ef          	jal	ra,1e788 <_ZN7testing8internal18StringFromGTestEnvEPKcS2_>
   16488:	85aa                	mv	a1,a0
   1648a:	00035517          	auipc	a0,0x35
   1648e:	ade53503          	ld	a0,-1314(a0) # 4af68 <_GLOBAL_OFFSET_TABLE_+0x418>
   16492:	576020ef          	jal	ra,18a08 <_ZNSt7__cxx1112basic_stringIcSt11char_traitsIcESaIcEEC2EPKcRKS3_.isra.0>
   16496:	82018613          	addi	a2,gp,-2016 # 4b5b0 <__TMC_END__>
   1649a:	00035597          	auipc	a1,0x35
   1649e:	ace5b583          	ld	a1,-1330(a1) # 4af68 <_GLOBAL_OFFSET_TABLE_+0x418>
   164a2:	00035517          	auipc	a0,0x35
   164a6:	8b653503          	ld	a0,-1866(a0) # 4ad58 <_ZNSt7__cxx1112basic_stringIcSt11char_traitsIcESaIcEED1Ev@Base>
   164aa:	9a6ff0ef          	jal	ra,15650 <__cxa_atexit@plt>
   164ae:	4581                	li	a1,0
   164b0:	00025517          	auipc	a0,0x25
   164b4:	a5850513          	addi	a0,a0,-1448 # 3af08 <_IO_stdin_used+0x28b0>
   164b8:	014080ef          	jal	ra,1e4cc <_ZN7testing8internal16BoolFromGTestEnvEPKcb>
   164bc:	872a                	mv	a4,a0
   164be:	00035797          	auipc	a5,0x35
   164c2:	a3a7b783          	ld	a5,-1478(a5) # 4aef8 <_GLOBAL_OFFSET_TABLE_+0x3a8>
   164c6:	850a                	mv	a0,sp
   164c8:	00e78023          	sb	a4,0(a5)
   164cc:	14c080ef          	jal	ra,1e618 <_ZN7testing8internal25OutputFlagAlsoCheckEnvVarB5cxx11Ev>
   164d0:	6582                	ld	a1,0(sp)
   164d2:	00025517          	auipc	a0,0x25
   164d6:	a5650513          	addi	a0,a0,-1450 # 3af28 <_IO_stdin_used+0x28d0>
   164da:	840a                	mv	s0,sp
   164dc:	2ac080ef          	jal	ra,1e788 <_ZN7testing8internal18StringFromGTestEnvEPKcS2_>
   164e0:	85aa                	mv	a1,a0
   164e2:	00034517          	auipc	a0,0x34
   164e6:	6c653503          	ld	a0,1734(a0) # 4aba8 <_GLOBAL_OFFSET_TABLE_+0x58>
   164ea:	51e020ef          	jal	ra,18a08 <_ZNSt7__cxx1112basic_stringIcSt11char_traitsIcESaIcEEC2EPKcRKS3_.isra.0>
   164ee:	850a                	mv	a0,sp
   164f0:	614000ef          	jal	ra,16b04 <_ZNSt7__cxx1112basic_stringIcSt11char_traitsIcESaIcEE10_M_disposeEv>
   164f4:	82018613          	addi	a2,gp,-2016 # 4b5b0 <__TMC_END__>
   164f8:	00034597          	auipc	a1,0x34
   164fc:	6b05b583          	ld	a1,1712(a1) # 4aba8 <_GLOBAL_OFFSET_TABLE_+0x58>
   16500:	00035517          	auipc	a0,0x35
   16504:	85853503          	ld	a0,-1960(a0) # 4ad58 <_ZNSt7__cxx1112basic_stringIcSt11char_traitsIcESaIcEED1Ev@Base>
   16508:	948ff0ef          	jal	ra,15650 <__cxa_atexit@plt>
   1650c:	4585                	li	a1,1
   1650e:	00025517          	auipc	a0,0x25
   16512:	a2250513          	addi	a0,a0,-1502 # 3af30 <_IO_stdin_used+0x28d8>
   16516:	7b7070ef          	jal	ra,1e4cc <_ZN7testing8internal16BoolFromGTestEnvEPKcb>
   1651a:	872a                	mv	a4,a0
   1651c:	00035797          	auipc	a5,0x35
   16520:	9047b783          	ld	a5,-1788(a5) # 4ae20 <_GLOBAL_OFFSET_TABLE_+0x2d0>
   16524:	4585                	li	a1,1
   16526:	00025517          	auipc	a0,0x25
   1652a:	a1a50513          	addi	a0,a0,-1510 # 3af40 <_IO_stdin_used+0x28e8>
   1652e:	00e78023          	sb	a4,0(a5)
   16532:	79b070ef          	jal	ra,1e4cc <_ZN7testing8internal16BoolFromGTestEnvEPKcb>
   16536:	872a                	mv	a4,a0
   16538:	00035797          	auipc	a5,0x35
   1653c:	8307b783          	ld	a5,-2000(a5) # 4ad68 <_GLOBAL_OFFSET_TABLE_+0x218>
   16540:	4581                	li	a1,0
   16542:	00024517          	auipc	a0,0x24
   16546:	88650513          	addi	a0,a0,-1914 # 39dc8 <_IO_stdin_used+0x1770>
   1654a:	00e78023          	sb	a4,0(a5)
   1654e:	7c7070ef          	jal	ra,1e514 <_ZN7testing8internal17Int32FromGTestEnvEPKci>
   16552:	872a                	mv	a4,a0
   16554:	00034797          	auipc	a5,0x34
   16558:	7447b783          	ld	a5,1860(a5) # 4ac98 <_GLOBAL_OFFSET_TABLE_+0x148>
   1655c:	4585                	li	a1,1
   1655e:	00025517          	auipc	a0,0x25
   16562:	9f250513          	addi	a0,a0,-1550 # 3af50 <_IO_stdin_used+0x28f8>
   16566:	c398                	sw	a4,0(a5)
   16568:	7ad070ef          	jal	ra,1e514 <_ZN7testing8internal17Int32FromGTestEnvEPKci>
   1656c:	872a                	mv	a4,a0
   1656e:	00035797          	auipc	a5,0x35
   16572:	9b27b783          	ld	a5,-1614(a5) # 4af20 <_GLOBAL_OFFSET_TABLE_+0x3d0>
   16576:	4581                	li	a1,0
   16578:	00025517          	auipc	a0,0x25
   1657c:	9e050513          	addi	a0,a0,-1568 # 3af58 <_IO_stdin_used+0x2900>
   16580:	c398                	sw	a4,0(a5)
   16582:	74b070ef          	jal	ra,1e4cc <_ZN7testing8internal16BoolFromGTestEnvEPKcb>
   16586:	872a                	mv	a4,a0
   16588:	00035797          	auipc	a5,0x35
   1658c:	9787b783          	ld	a5,-1672(a5) # 4af00 <_GLOBAL_OFFSET_TABLE_+0x3b0>
   16590:	06400593          	li	a1,100
   16594:	00025517          	auipc	a0,0x25
   16598:	9cc50513          	addi	a0,a0,-1588 # 3af60 <_IO_stdin_used+0x2908>
   1659c:	00e78023          	sb	a4,0(a5)
   165a0:	775070ef          	jal	ra,1e514 <_ZN7testing8internal17Int32FromGTestEnvEPKci>
   165a4:	872a                	mv	a4,a0
   165a6:	00035797          	auipc	a5,0x35
   165aa:	8227b783          	ld	a5,-2014(a5) # 4adc8 <_GLOBAL_OFFSET_TABLE_+0x278>
   165ae:	00024597          	auipc	a1,0x24
   165b2:	e4a58593          	addi	a1,a1,-438 # 3a3f8 <_IO_stdin_used+0x1da0>
   165b6:	00025517          	auipc	a0,0x25
   165ba:	9c250513          	addi	a0,a0,-1598 # 3af78 <_IO_stdin_used+0x2920>
   165be:	c398                	sw	a4,0(a5)
   165c0:	1c8080ef          	jal	ra,1e788 <_ZN7testing8internal18StringFromGTestEnvEPKcS2_>
   165c4:	85aa                	mv	a1,a0
   165c6:	00034517          	auipc	a0,0x34
   165ca:	7fa53503          	ld	a0,2042(a0) # 4adc0 <_GLOBAL_OFFSET_TABLE_+0x270>
   165ce:	43a020ef          	jal	ra,18a08 <_ZNSt7__cxx1112basic_stringIcSt11char_traitsIcESaIcEEC2EPKcRKS3_.isra.0>
   165d2:	82018613          	addi	a2,gp,-2016 # 4b5b0 <__TMC_END__>
   165d6:	00034597          	auipc	a1,0x34
   165da:	7ea5b583          	ld	a1,2026(a1) # 4adc0 <_GLOBAL_OFFSET_TABLE_+0x270>
   165de:	00034517          	auipc	a0,0x34
   165e2:	77a53503          	ld	a0,1914(a0) # 4ad58 <_ZNSt7__cxx1112basic_stringIcSt11char_traitsIcESaIcEED1Ev@Base>
   165e6:	86aff0ef          	jal	ra,15650 <__cxa_atexit@plt>
   165ea:	4581                	li	a1,0
   165ec:	00025517          	auipc	a0,0x25
   165f0:	9a450513          	addi	a0,a0,-1628 # 3af90 <_IO_stdin_used+0x2938>
   165f4:	6d9070ef          	jal	ra,1e4cc <_ZN7testing8internal16BoolFromGTestEnvEPKcb>
   165f8:	872a                	mv	a4,a0
   165fa:	00034797          	auipc	a5,0x34
   165fe:	7de7b783          	ld	a5,2014(a5) # 4add8 <_GLOBAL_OFFSET_TABLE_+0x288>
   16602:	00024597          	auipc	a1,0x24
   16606:	df658593          	addi	a1,a1,-522 # 3a3f8 <_IO_stdin_used+0x1da0>
   1660a:	00025517          	auipc	a0,0x25
   1660e:	99e50513          	addi	a0,a0,-1634 # 3afa8 <_IO_stdin_used+0x2950>
   16612:	00e78023          	sb	a4,0(a5)
   16616:	172080ef          	jal	ra,1e788 <_ZN7testing8internal18StringFromGTestEnvEPKcS2_>
   1661a:	85aa                	mv	a1,a0
   1661c:	00035517          	auipc	a0,0x35
   16620:	8ac53503          	ld	a0,-1876(a0) # 4aec8 <_GLOBAL_OFFSET_TABLE_+0x378>
   16624:	3e4020ef          	jal	ra,18a08 <_ZNSt7__cxx1112basic_stringIcSt11char_traitsIcESaIcEEC2EPKcRKS3_.isra.0>
   16628:	82018613          	addi	a2,gp,-2016 # 4b5b0 <__TMC_END__>
   1662c:	00035597          	auipc	a1,0x35
   16630:	89c5b583          	ld	a1,-1892(a1) # 4aec8 <_GLOBAL_OFFSET_TABLE_+0x378>
   16634:	00034517          	auipc	a0,0x34
   16638:	72453503          	ld	a0,1828(a0) # 4ad58 <_ZNSt7__cxx1112basic_stringIcSt11char_traitsIcESaIcEED1Ev@Base>
   1663c:	814ff0ef          	jal	ra,15650 <__cxa_atexit@plt>
   16640:	cd817057          	vsetivli	zero,2,e64,m1,ta,ma
   16644:	5e0030d7          	vmv.v.i	v1,0
   16648:	82018613          	addi	a2,gp,-2016 # 4b5b0 <__TMC_END__>
   1664c:	8b818593          	addi	a1,gp,-1864 # 4b648 <_ZN7testing8internalL7g_argvsE>
   16650:	00034517          	auipc	a0,0x34
   16654:	59053503          	ld	a0,1424(a0) # 4abe0 <_GLOBAL_OFFSET_TABLE_+0x90>
   16658:	0205f0a7          	vse64.v	v1,(a1)
   1665c:	8c01b423          	sd	zero,-1848(gp) # 4b658 <_ZN7testing8internalL7g_argvsE+0x10>
   16660:	ff1fe0ef          	jal	ra,15650 <__cxa_atexit@plt>
   16664:	4d4030ef          	jal	ra,19b38 <_ZN7testing8internal13GetTestTypeIdEv>
   16668:	872a                	mv	a4,a0
   1666a:	00035797          	auipc	a5,0x35
   1666e:	8367b783          	ld	a5,-1994(a5) # 4aea0 <_GLOBAL_OFFSET_TABLE_+0x350>
   16672:	00025597          	auipc	a1,0x25
   16676:	3de58593          	addi	a1,a1,990 # 3ba50 <_ZN7testingL22kDefaultDeathTestStyleE>
   1667a:	00025517          	auipc	a0,0x25
   1667e:	93e50513          	addi	a0,a0,-1730 # 3afb8 <_IO_stdin_used+0x2960>
   16682:	e398                	sd	a4,0(a5)
   16684:	104080ef          	jal	ra,1e788 <_ZN7testing8internal18StringFromGTestEnvEPKcS2_>
   16688:	85aa                	mv	a1,a0
   1668a:	00034517          	auipc	a0,0x34
   1668e:	54653503          	ld	a0,1350(a0) # 4abd0 <_GLOBAL_OFFSET_TABLE_+0x80>
   16692:	376020ef          	jal	ra,18a08 <_ZNSt7__cxx1112basic_stringIcSt11char_traitsIcESaIcEEC2EPKcRKS3_.isra.0>
   16696:	82018613          	addi	a2,gp,-2016 # 4b5b0 <__TMC_END__>
   1669a:	00034597          	auipc	a1,0x34
   1669e:	5365b583          	ld	a1,1334(a1) # 4abd0 <_GLOBAL_OFFSET_TABLE_+0x80>
   166a2:	00034517          	auipc	a0,0x34
   166a6:	6b653503          	ld	a0,1718(a0) # 4ad58 <_ZNSt7__cxx1112basic_stringIcSt11char_traitsIcESaIcEED1Ev@Base>
   166aa:	fa7fe0ef          	jal	ra,15650 <__cxa_atexit@plt>
   166ae:	4581                	li	a1,0
   166b0:	00025517          	auipc	a0,0x25
   166b4:	92050513          	addi	a0,a0,-1760 # 3afd0 <_IO_stdin_used+0x2978>
   166b8:	615070ef          	jal	ra,1e4cc <_ZN7testing8internal16BoolFromGTestEnvEPKcb>
   166bc:	872a                	mv	a4,a0
   166be:	00035797          	auipc	a5,0x35
   166c2:	90a7b783          	ld	a5,-1782(a5) # 4afc8 <_GLOBAL_OFFSET_TABLE_+0x478>
   166c6:	00024597          	auipc	a1,0x24
   166ca:	d3258593          	addi	a1,a1,-718 # 3a3f8 <_IO_stdin_used+0x1da0>
   166ce:	00034517          	auipc	a0,0x34
   166d2:	71a53503          	ld	a0,1818(a0) # 4ade8 <_GLOBAL_OFFSET_TABLE_+0x298>
   166d6:	00e78023          	sb	a4,0(a5)
   166da:	32e020ef          	jal	ra,18a08 <_ZNSt7__cxx1112basic_stringIcSt11char_traitsIcESaIcEEC2EPKcRKS3_.isra.0>
   166de:	82018613          	addi	a2,gp,-2016 # 4b5b0 <__TMC_END__>
   166e2:	00034597          	auipc	a1,0x34
   166e6:	7065b583          	ld	a1,1798(a1) # 4ade8 <_GLOBAL_OFFSET_TABLE_+0x298>
   166ea:	00034517          	auipc	a0,0x34
   166ee:	66e53503          	ld	a0,1646(a0) # 4ad58 <_ZNSt7__cxx1112basic_stringIcSt11char_traitsIcESaIcEED1Ev@Base>
   166f2:	f5ffe0ef          	jal	ra,15650 <__cxa_atexit@plt>
   166f6:	00035597          	auipc	a1,0x35
   166fa:	8c25b583          	ld	a1,-1854(a1) # 4afb8 <_GLOBAL_OFFSET_TABLE_+0x468>
   166fe:	00058823          	sb	zero,16(a1)
   16702:	7402                	ld	s0,32(sp)
   16704:	70a2                	ld	ra,40(sp)
   16706:	01058793          	addi	a5,a1,16
   1670a:	0005b423          	sd	zero,8(a1)
   1670e:	e19c                	sd	a5,0(a1)
   16710:	82018613          	addi	a2,gp,-2016 # 4b5b0 <__TMC_END__>
   16714:	00034517          	auipc	a0,0x34
   16718:	64453503          	ld	a0,1604(a0) # 4ad58 <_ZNSt7__cxx1112basic_stringIcSt11char_traitsIcESaIcEED1Ev@Base>
   1671c:	6145                	addi	sp,sp,48
   1671e:	f33fe06f          	j	15650 <__cxa_atexit@plt>
   16722:	87aa                	mv	a5,a0
   16724:	8522                	mv	a0,s0
   16726:	843e                	mv	s0,a5
   16728:	3dc000ef          	jal	ra,16b04 <_ZNSt7__cxx1112basic_stringIcSt11char_traitsIcESaIcEE10_M_disposeEv>
   1672c:	8522                	mv	a0,s0
   1672e:	8c2ff0ef          	jal	ra,157f0 <_Unwind_Resume@plt>
	...

0000000000016734 <_start>:
   16734:	024000ef          	jal	ra,16758 <load_gp>
   16738:	87aa                	mv	a5,a0
   1673a:	00000517          	auipc	a0,0x0
   1673e:	01c50513          	addi	a0,a0,28 # 16756 <__wrap_main>
   16742:	6582                	ld	a1,0(sp)
   16744:	0030                	addi	a2,sp,8
   16746:	ff017113          	andi	sp,sp,-16
   1674a:	4681                	li	a3,0
   1674c:	4701                	li	a4,0
   1674e:	880a                	mv	a6,sp
   16750:	e30ff0ef          	jal	ra,15d80 <__libc_start_main@plt>
   16754:	9002                	ebreak

0000000000016756 <__wrap_main>:
   16756:	b189                	j	16398 <main>

0000000000016758 <load_gp>:
   16758:	00035197          	auipc	gp,0x35
   1675c:	63818193          	addi	gp,gp,1592 # 4bd90 <__global_pointer$>
   16760:	8082                	ret
	...

0000000000016764 <_dl_relocate_static_pie>:
   16764:	8082                	ret

0000000000016766 <deregister_tm_clones>:
   16766:	82018513          	addi	a0,gp,-2016 # 4b5b0 <__TMC_END__>
   1676a:	82018793          	addi	a5,gp,-2016 # 4b5b0 <__TMC_END__>
   1676e:	00a78663          	beq	a5,a0,1677a <deregister_tm_clones+0x14>
   16772:	00000793          	li	a5,0
   16776:	c391                	beqz	a5,1677a <deregister_tm_clones+0x14>
   16778:	8782                	jr	a5
   1677a:	8082                	ret

000000000001677c <register_tm_clones>:
   1677c:	82018513          	addi	a0,gp,-2016 # 4b5b0 <__TMC_END__>
   16780:	82018593          	addi	a1,gp,-2016 # 4b5b0 <__TMC_END__>
   16784:	8d89                	sub	a1,a1,a0
   16786:	4035d793          	srai	a5,a1,0x3
   1678a:	91fd                	srli	a1,a1,0x3f
   1678c:	95be                	add	a1,a1,a5
   1678e:	8585                	srai	a1,a1,0x1
   16790:	c589                	beqz	a1,1679a <register_tm_clones+0x1e>
   16792:	00000793          	li	a5,0
   16796:	c391                	beqz	a5,1679a <register_tm_clones+0x1e>
   16798:	8782                	jr	a5
   1679a:	8082                	ret

000000000001679c <__do_global_dtors_aux>:
   1679c:	8281c783          	lbu	a5,-2008(gp) # 4b5b8 <completed.0>
   167a0:	ef99                	bnez	a5,167be <__do_global_dtors_aux+0x22>
   167a2:	1141                	addi	sp,sp,-16
   167a4:	e022                	sd	s0,0(sp)
   167a6:	e406                	sd	ra,8(sp)
   167a8:	fbfff0ef          	jal	ra,16766 <deregister_tm_clones>
   167ac:	82818413          	addi	s0,gp,-2008 # 4b5b8 <completed.0>
   167b0:	4785                	li	a5,1
   167b2:	60a2                	ld	ra,8(sp)
   167b4:	00f40023          	sb	a5,0(s0)
   167b8:	6402                	ld	s0,0(sp)
   167ba:	0141                	addi	sp,sp,16
   167bc:	8082                	ret
   167be:	8082                	ret

00000000000167c0 <frame_dummy>:
   167c0:	bf75                	j	1677c <register_tm_clones>
	...

00000000000167c4 <_ZNKSt5ctypeIcE8do_widenEc>:
   167c4:	00058513          	mv	a0,a1
   167c8:	00008067          	ret

00000000000167cc <_ZN7testing4Test5SetupEv>:
   167cc:	00000513          	li	a0,0
   167d0:	00008067          	ret

00000000000167d4 <_ZN7testing8internal15TestFactoryImplI19UnaryTestAbs_v_TestED1Ev>:
   167d4:	00008067          	ret

00000000000167d8 <_ZN7testing8internal15TestFactoryImplI36UnaryTestAbsFloat16_fixed_fixed_TestED1Ev>:
   167d8:	00008067          	ret

00000000000167dc <_ZN7testing8internal15TestFactoryImplI36UnaryTestAbsFloat16_fixed_fixed_TestED0Ev>:
   167dc:	00800593          	li	a1,8
   167e0:	f61fe06f          	j	15740 <_ZdlPvm@plt>

00000000000167e4 <_ZN7testing8internal15TestFactoryImplI19UnaryTestAbs_v_TestED0Ev>:
   167e4:	00800593          	li	a1,8
   167e8:	f59fe06f          	j	15740 <_ZdlPvm@plt>

00000000000167ec <_ZN19UnaryTestAbs_v_TestD1Ev>:
   167ec:	00033797          	auipc	a5,0x33
   167f0:	4f478793          	addi	a5,a5,1268 # 49ce0 <_ZTV19UnaryTestAbs_v_Test+0x10>
   167f4:	00f53023          	sd	a5,0(a0)
   167f8:	69e0406f          	j	1ae96 <_ZN7testing4TestD1Ev>

00000000000167fc <_ZN19UnaryTestAbs_v_TestD0Ev>:
   167fc:	ff010113          	addi	sp,sp,-16
   16800:	00813023          	sd	s0,0(sp)
   16804:	00113423          	sd	ra,8(sp)
   16808:	00033797          	auipc	a5,0x33
   1680c:	4d878793          	addi	a5,a5,1240 # 49ce0 <_ZTV19UnaryTestAbs_v_Test+0x10>
   16810:	00f53023          	sd	a5,0(a0)
   16814:	00050413          	mv	s0,a0
   16818:	67e040ef          	jal	ra,1ae96 <_ZN7testing4TestD1Ev>
   1681c:	00040513          	mv	a0,s0
   16820:	00013403          	ld	s0,0(sp)
   16824:	00813083          	ld	ra,8(sp)
   16828:	01000593          	li	a1,16
   1682c:	01010113          	addi	sp,sp,16
   16830:	f11fe06f          	j	15740 <_ZdlPvm@plt>

0000000000016834 <_ZN36UnaryTestAbsFloat16_fixed_fixed_TestD1Ev>:
   16834:	00033797          	auipc	a5,0x33
   16838:	46c78793          	addi	a5,a5,1132 # 49ca0 <_ZTV36UnaryTestAbsFloat16_fixed_fixed_Test+0x10>
   1683c:	00f53023          	sd	a5,0(a0)
   16840:	6560406f          	j	1ae96 <_ZN7testing4TestD1Ev>

0000000000016844 <_ZN36UnaryTestAbsFloat16_fixed_fixed_TestD0Ev>:
   16844:	ff010113          	addi	sp,sp,-16
   16848:	00813023          	sd	s0,0(sp)
   1684c:	00113423          	sd	ra,8(sp)
   16850:	00033797          	auipc	a5,0x33
   16854:	45078793          	addi	a5,a5,1104 # 49ca0 <_ZTV36UnaryTestAbsFloat16_fixed_fixed_Test+0x10>
   16858:	00f53023          	sd	a5,0(a0)
   1685c:	00050413          	mv	s0,a0
   16860:	636040ef          	jal	ra,1ae96 <_ZN7testing4TestD1Ev>
   16864:	00040513          	mv	a0,s0
   16868:	00013403          	ld	s0,0(sp)
   1686c:	00813083          	ld	ra,8(sp)
   16870:	01000593          	li	a1,16
   16874:	01010113          	addi	sp,sp,16
   16878:	ec9fe06f          	j	15740 <_ZdlPvm@plt>

000000000001687c <_ZN6nncase3ntt11distributed6detail12chip_barrierD1Ev>:
   1687c:	00853503          	ld	a0,8(a0)
   16880:	00050663          	beqz	a0,1688c <_ZN6nncase3ntt11distributed6detail12chip_barrierD1Ev+0x10>
   16884:	04000593          	li	a1,64
   16888:	a98ff06f          	j	15b20 <_ZdaPvSt11align_val_t@plt>
   1688c:	00008067          	ret

0000000000016890 <__tcf_0>:
   16890:	8a01b503          	ld	a0,-1888(gp) # 4b630 <_ZN6nncase3ntt11distributed21topology_synchronizerILNS1_8topologyE2EE9barriers_E+0x8>
   16894:	00050663          	beqz	a0,168a0 <__tcf_0+0x10>
   16898:	04000593          	li	a1,64
   1689c:	a84ff06f          	j	15b20 <_ZdaPvSt11align_val_t@plt>
   168a0:	00008067          	ret

00000000000168a4 <__tcf_1>:
   168a4:	8801b503          	ld	a0,-1920(gp) # 4b610 <_ZN6nncase3ntt11distributed21topology_synchronizerILNS1_8topologyE1EE9barriers_E+0x8>
   168a8:	00050663          	beqz	a0,168b4 <__tcf_1+0x10>
   168ac:	04000593          	li	a1,64
   168b0:	a70ff06f          	j	15b20 <_ZdaPvSt11align_val_t@plt>
   168b4:	00008067          	ret

00000000000168b8 <_ZN7testing8internal15TestFactoryImplI36UnaryTestAbsFloat16_fixed_fixed_TestE10CreateTestEv>:
   168b8:	ff010113          	addi	sp,sp,-16
   168bc:	01000513          	li	a0,16
   168c0:	00113423          	sd	ra,8(sp)
   168c4:	00813023          	sd	s0,0(sp)
   168c8:	fd9fe0ef          	jal	ra,158a0 <_Znwm@plt>
   168cc:	00050413          	mv	s0,a0
   168d0:	3c8040ef          	jal	ra,1ac98 <_ZN7testing4TestC1Ev>
   168d4:	00033797          	auipc	a5,0x33
   168d8:	3cc78793          	addi	a5,a5,972 # 49ca0 <_ZTV36UnaryTestAbsFloat16_fixed_fixed_Test+0x10>
   168dc:	00813083          	ld	ra,8(sp)
   168e0:	00f43023          	sd	a5,0(s0)
   168e4:	00040513          	mv	a0,s0
   168e8:	00013403          	ld	s0,0(sp)
   168ec:	01010113          	addi	sp,sp,16
   168f0:	00008067          	ret

00000000000168f4 <_ZN7testing8internal15TestFactoryImplI19UnaryTestAbs_v_TestE10CreateTestEv>:
   168f4:	ff010113          	addi	sp,sp,-16
   168f8:	01000513          	li	a0,16
   168fc:	00113423          	sd	ra,8(sp)
   16900:	00813023          	sd	s0,0(sp)
   16904:	f9dfe0ef          	jal	ra,158a0 <_Znwm@plt>
   16908:	00050413          	mv	s0,a0
   1690c:	38c040ef          	jal	ra,1ac98 <_ZN7testing4TestC1Ev>
   16910:	00033797          	auipc	a5,0x33
   16914:	3d078793          	addi	a5,a5,976 # 49ce0 <_ZTV19UnaryTestAbs_v_Test+0x10>
   16918:	00813083          	ld	ra,8(sp)
   1691c:	00f43023          	sd	a5,0(s0)
   16920:	00040513          	mv	a0,s0
   16924:	00013403          	ld	s0,0(sp)
   16928:	01010113          	addi	sp,sp,16
   1692c:	00008067          	ret

0000000000016930 <_ZN9__gnu_cxx12__to_xstringINSt7__cxx1112basic_stringIcSt11char_traitsIcESaIcEEEcEET_PFiPT0_mPKS8_PvEmSB_z>:
   16930:	fa010113          	addi	sp,sp,-96
   16934:	00060313          	mv	t1,a2
   16938:	00f60613          	addi	a2,a2,15
   1693c:	02813823          	sd	s0,48(sp)
   16940:	02913423          	sd	s1,40(sp)
   16944:	03213023          	sd	s2,32(sp)
   16948:	01313c23          	sd	s3,24(sp)
   1694c:	04010413          	addi	s0,sp,64
   16950:	02113c23          	sd	ra,56(sp)
   16954:	ff067613          	andi	a2,a2,-16
   16958:	40c10133          	sub	sp,sp,a2
   1695c:	00050493          	mv	s1,a0
   16960:	00068613          	mv	a2,a3
   16964:	00058e93          	mv	t4,a1
   16968:	00e43023          	sd	a4,0(s0)
   1696c:	00f43423          	sd	a5,8(s0)
   16970:	00010513          	mv	a0,sp
   16974:	00030593          	mv	a1,t1
   16978:	00040693          	mv	a3,s0
   1697c:	01043823          	sd	a6,16(s0)
   16980:	01143c23          	sd	a7,24(s0)
   16984:	fc843423          	sd	s0,-56(s0)
   16988:	000e80e7          	jalr	t4
   1698c:	01048793          	addi	a5,s1,16
   16990:	0004b423          	sd	zero,8(s1)
   16994:	00f4b023          	sd	a5,0(s1)
   16998:	00f00713          	li	a4,15
   1699c:	00010993          	mv	s3,sp
   169a0:	00050913          	mv	s2,a0
   169a4:	04a76663          	bltu	a4,a0,169f0 <_ZN9__gnu_cxx12__to_xstringINSt7__cxx1112basic_stringIcSt11char_traitsIcESaIcEEEcEET_PFiPT0_mPKS8_PvEmSB_z+0xc0>
   169a8:	00100713          	li	a4,1
   169ac:	02e50c63          	beq	a0,a4,169e4 <_ZN9__gnu_cxx12__to_xstringINSt7__cxx1112basic_stringIcSt11char_traitsIcESaIcEEEcEET_PFiPT0_mPKS8_PvEmSB_z+0xb4>
   169b0:	04051c63          	bnez	a0,16a08 <_ZN9__gnu_cxx12__to_xstringINSt7__cxx1112basic_stringIcSt11char_traitsIcESaIcEEEcEET_PFiPT0_mPKS8_PvEmSB_z+0xd8>
   169b4:	0124b423          	sd	s2,8(s1)
   169b8:	012787b3          	add	a5,a5,s2
   169bc:	00078023          	sb	zero,0(a5)
   169c0:	fc040113          	addi	sp,s0,-64
   169c4:	03813083          	ld	ra,56(sp)
   169c8:	00048513          	mv	a0,s1
   169cc:	03013403          	ld	s0,48(sp)
   169d0:	02813483          	ld	s1,40(sp)
   169d4:	02013903          	ld	s2,32(sp)
   169d8:	01813983          	ld	s3,24(sp)
   169dc:	06010113          	addi	sp,sp,96
   169e0:	00008067          	ret
   169e4:	00014703          	lbu	a4,0(sp)
   169e8:	00e48823          	sb	a4,16(s1)
   169ec:	fc9ff06f          	j	169b4 <_ZN9__gnu_cxx12__to_xstringINSt7__cxx1112basic_stringIcSt11char_traitsIcESaIcEEEcEET_PFiPT0_mPKS8_PvEmSB_z+0x84>
   169f0:	04054063          	bltz	a0,16a30 <_ZN9__gnu_cxx12__to_xstringINSt7__cxx1112basic_stringIcSt11char_traitsIcESaIcEEEcEET_PFiPT0_mPKS8_PvEmSB_z+0x100>
   169f4:	00150513          	addi	a0,a0,1
   169f8:	ea9fe0ef          	jal	ra,158a0 <_Znwm@plt>
   169fc:	00050793          	mv	a5,a0
   16a00:	0124b823          	sd	s2,16(s1)
   16a04:	00a4b023          	sd	a0,0(s1)
   16a08:	00090693          	mv	a3,s2
   16a0c:	0c36f757          	vsetvli	a4,a3,e8,m8,ta,ma
   16a10:	02098407          	vle8.v	v8,(s3)
   16a14:	40e686b3          	sub	a3,a3,a4
   16a18:	00e989b3          	add	s3,s3,a4
   16a1c:	02078427          	vse8.v	v8,(a5)
   16a20:	00e787b3          	add	a5,a5,a4
   16a24:	fe0694e3          	bnez	a3,16a0c <_ZN9__gnu_cxx12__to_xstringINSt7__cxx1112basic_stringIcSt11char_traitsIcESaIcEEEcEET_PFiPT0_mPKS8_PvEmSB_z+0xdc>
   16a28:	0004b783          	ld	a5,0(s1)
   16a2c:	f89ff06f          	j	169b4 <_ZN9__gnu_cxx12__to_xstringINSt7__cxx1112basic_stringIcSt11char_traitsIcESaIcEEEcEET_PFiPT0_mPKS8_PvEmSB_z+0x84>
   16a30:	00022517          	auipc	a0,0x22
   16a34:	e0850513          	addi	a0,a0,-504 # 38838 <_IO_stdin_used+0x1e0>
   16a38:	eb9fe0ef          	jal	ra,158f0 <_ZSt20__throw_length_errorPKc@plt>

0000000000016a3c <_ZNSt7__cxx1112basic_stringIcSt11char_traitsIcESaIcEEC1IS3_EEPKcRKS3_>:
   16a3c:	fd010113          	addi	sp,sp,-48
   16a40:	02813023          	sd	s0,32(sp)
   16a44:	02113423          	sd	ra,40(sp)
   16a48:	00913c23          	sd	s1,24(sp)
   16a4c:	01213823          	sd	s2,16(sp)
   16a50:	01313423          	sd	s3,8(sp)
   16a54:	01050413          	addi	s0,a0,16
   16a58:	00853023          	sd	s0,0(a0)
   16a5c:	08058e63          	beqz	a1,16af8 <_ZNSt7__cxx1112basic_stringIcSt11char_traitsIcESaIcEEC1IS3_EEPKcRKS3_+0xbc>
   16a60:	00050913          	mv	s2,a0
   16a64:	00058513          	mv	a0,a1
   16a68:	00058993          	mv	s3,a1
   16a6c:	964ff0ef          	jal	ra,15bd0 <strlen@plt>
   16a70:	00f00793          	li	a5,15
   16a74:	00050493          	mv	s1,a0
   16a78:	04a7e263          	bltu	a5,a0,16abc <_ZNSt7__cxx1112basic_stringIcSt11char_traitsIcESaIcEEC1IS3_EEPKcRKS3_+0x80>
   16a7c:	00100793          	li	a5,1
   16a80:	02f50863          	beq	a0,a5,16ab0 <_ZNSt7__cxx1112basic_stringIcSt11char_traitsIcESaIcEEC1IS3_EEPKcRKS3_+0x74>
   16a84:	04051663          	bnez	a0,16ad0 <_ZNSt7__cxx1112basic_stringIcSt11char_traitsIcESaIcEEC1IS3_EEPKcRKS3_+0x94>
   16a88:	00993423          	sd	s1,8(s2)
   16a8c:	00940433          	add	s0,s0,s1
   16a90:	00040023          	sb	zero,0(s0)
   16a94:	02813083          	ld	ra,40(sp)
   16a98:	02013403          	ld	s0,32(sp)
   16a9c:	01813483          	ld	s1,24(sp)
   16aa0:	01013903          	ld	s2,16(sp)
   16aa4:	00813983          	ld	s3,8(sp)
   16aa8:	03010113          	addi	sp,sp,48
   16aac:	00008067          	ret
   16ab0:	0009c783          	lbu	a5,0(s3)
   16ab4:	00f90823          	sb	a5,16(s2)
   16ab8:	fd1ff06f          	j	16a88 <_ZNSt7__cxx1112basic_stringIcSt11char_traitsIcESaIcEEC1IS3_EEPKcRKS3_+0x4c>
   16abc:	00150513          	addi	a0,a0,1
   16ac0:	de1fe0ef          	jal	ra,158a0 <_Znwm@plt>
   16ac4:	00050413          	mv	s0,a0
   16ac8:	00993823          	sd	s1,16(s2)
   16acc:	00a93023          	sd	a0,0(s2)
   16ad0:	00048713          	mv	a4,s1
   16ad4:	0c3777d7          	vsetvli	a5,a4,e8,m8,ta,ma
   16ad8:	02098407          	vle8.v	v8,(s3)
   16adc:	40f70733          	sub	a4,a4,a5
   16ae0:	00f989b3          	add	s3,s3,a5
   16ae4:	02040427          	vse8.v	v8,(s0)
   16ae8:	00f40433          	add	s0,s0,a5
   16aec:	fe0714e3          	bnez	a4,16ad4 <_ZNSt7__cxx1112basic_stringIcSt11char_traitsIcESaIcEEC1IS3_EEPKcRKS3_+0x98>
   16af0:	00093403          	ld	s0,0(s2)
   16af4:	f95ff06f          	j	16a88 <_ZNSt7__cxx1112basic_stringIcSt11char_traitsIcESaIcEEC1IS3_EEPKcRKS3_+0x4c>
   16af8:	00022517          	auipc	a0,0x22
   16afc:	d5850513          	addi	a0,a0,-680 # 38850 <_IO_stdin_used+0x1f8>
   16b00:	d91fe0ef          	jal	ra,15890 <_ZSt19__throw_logic_errorPKc@plt>

0000000000016b04 <_ZNSt7__cxx1112basic_stringIcSt11char_traitsIcESaIcEE10_M_disposeEv>:
   16b04:	00050793          	mv	a5,a0
   16b08:	00053503          	ld	a0,0(a0)
   16b0c:	01078713          	addi	a4,a5,16
   16b10:	00e50863          	beq	a0,a4,16b20 <_ZNSt7__cxx1112basic_stringIcSt11char_traitsIcESaIcEE10_M_disposeEv+0x1c>
   16b14:	0107b583          	ld	a1,16(a5)
   16b18:	00158593          	addi	a1,a1,1
   16b1c:	c25fe06f          	j	15740 <_ZdlPvm@plt>
   16b20:	00008067          	ret

0000000000016b24 <_ZNSt14__tree_barrierISt18__empty_completionEC1ElS0_>:
   16b24:	fe010113          	addi	sp,sp,-32
   16b28:	00813823          	sd	s0,16(sp)
   16b2c:	00913423          	sd	s1,8(sp)
   16b30:	00050413          	mv	s0,a0
   16b34:	00113c23          	sd	ra,24(sp)
   16b38:	01213023          	sd	s2,0(sp)
   16b3c:	00158493          	addi	s1,a1,1
   16b40:	fff00513          	li	a0,-1
   16b44:	00b43023          	sd	a1,0(s0)
   16b48:	4014d493          	srai	s1,s1,0x1
   16b4c:	00043423          	sd	zero,8(s0)
   16b50:	00043823          	sd	zero,16(s0)
   16b54:	00040ca3          	sb	zero,25(s0)
   16b58:	00755793          	srli	a5,a0,0x7
   16b5c:	0097e463          	bltu	a5,s1,16b64 <_ZNSt14__tree_barrierISt18__empty_completionEC1ElS0_+0x40>
   16b60:	00649513          	slli	a0,s1,0x6
   16b64:	04000593          	li	a1,64
   16b68:	998ff0ef          	jal	ra,15d00 <_ZnamSt11align_val_t@plt>
   16b6c:	fff48793          	addi	a5,s1,-1
   16b70:	00050913          	mv	s2,a0
   16b74:	0007c863          	bltz	a5,16b84 <_ZNSt14__tree_barrierISt18__empty_completionEC1ElS0_+0x60>
   16b78:	00649613          	slli	a2,s1,0x6
   16b7c:	00000593          	li	a1,0
   16b80:	960ff0ef          	jal	ra,15ce0 <memset@plt>
   16b84:	00843503          	ld	a0,8(s0)
   16b88:	01243423          	sd	s2,8(s0)
   16b8c:	02050063          	beqz	a0,16bac <_ZNSt14__tree_barrierISt18__empty_completionEC1ElS0_+0x88>
   16b90:	01013403          	ld	s0,16(sp)
   16b94:	01813083          	ld	ra,24(sp)
   16b98:	00813483          	ld	s1,8(sp)
   16b9c:	00013903          	ld	s2,0(sp)
   16ba0:	04000593          	li	a1,64
   16ba4:	02010113          	addi	sp,sp,32
   16ba8:	f79fe06f          	j	15b20 <_ZdaPvSt11align_val_t@plt>
   16bac:	01813083          	ld	ra,24(sp)
   16bb0:	01013403          	ld	s0,16(sp)
   16bb4:	00813483          	ld	s1,8(sp)
   16bb8:	00013903          	ld	s2,0(sp)
   16bbc:	02010113          	addi	sp,sp,32
   16bc0:	00008067          	ret

0000000000016bc4 <_ZNSt23mersenne_twister_engineImLm32ELm624ELm397ELm31ELm2567483615ELm11ELm4294967295ELm7ELm2636928640ELm15ELm4022730752ELm18ELm1812433253EE11_M_gen_randEv>:
   16bc4:	000997b7          	lui	a5,0x99
   16bc8:	08b78793          	addi	a5,a5,139 # 9908b <__global_pointer$+0x4d2fb>
   16bcc:	00c79793          	slli	a5,a5,0xc
   16bd0:	cd817057          	vsetivli	zero,2,e64,m1,ta,ma
   16bd4:	0df78793          	addi	a5,a5,223
   16bd8:	5e07c357          	vmv.v.x	v6,a5
   16bdc:	80000737          	lui	a4,0x80000
   16be0:	000017b7          	lui	a5,0x1
   16be4:	fff74713          	not	a4,a4
   16be8:	800006b7          	lui	a3,0x80000
   16bec:	c6878793          	addi	a5,a5,-920 # c68 <__abi_tag-0xf62c>
   16bf0:	5e0741d7          	vmv.v.x	v3,a4
   16bf4:	5e06c257          	vmv.v.x	v4,a3
   16bf8:	00850593          	addi	a1,a0,8
   16bfc:	00f50633          	add	a2,a0,a5
   16c00:	00050693          	mv	a3,a0
   16c04:	0e300713          	li	a4,227
   16c08:	00200893          	li	a7,2
   16c0c:	fff00813          	li	a6,-1
   16c10:	00070793          	mv	a5,a4
   16c14:	00e8f463          	bgeu	a7,a4,16c1c <_ZNSt23mersenne_twister_engineImLm32ELm624ELm397ELm31ELm2567483615ELm11ELm4294967295ELm7ELm2636928640ELm15ELm4022730752ELm18ELm1812433253EE11_M_gen_randEv+0x58>
   16c18:	00200793          	li	a5,2
   16c1c:	0d87f057          	vsetvli	zero,a5,e64,m1,ta,ma
   16c20:	0206f087          	vle64.v	v1,(a3)
   16c24:	0205f107          	vle64.v	v2,(a1)
   16c28:	02067287          	vle64.v	v5,(a2)
   16c2c:	cd817057          	vsetivli	zero,2,e64,m1,ta,ma
   16c30:	ffe70713          	addi	a4,a4,-2 # ffffffff7ffffffe <__global_pointer$+0xffffffff7ffb426e>
   16c34:	01058593          	addi	a1,a1,16
   16c38:	261200d7          	vand.vv	v1,v1,v4
   16c3c:	26218157          	vand.vv	v2,v2,v3
   16c40:	01060613          	addi	a2,a2,16
   16c44:	2a1100d7          	vor.vv	v1,v1,v2
   16c48:	2610b157          	vand.vi	v2,v1,1
   16c4c:	a210b0d7          	vsrl.vi	v1,v1,1
   16c50:	96232157          	vmul.vv	v2,v2,v6
   16c54:	2e1280d7          	vxor.vv	v1,v1,v5
   16c58:	2e1100d7          	vxor.vv	v1,v1,v2
   16c5c:	0d87f057          	vsetvli	zero,a5,e64,m1,ta,ma
   16c60:	0206f0a7          	vse64.v	v1,(a3)
   16c64:	01068693          	addi	a3,a3,16 # ffffffff80000010 <__global_pointer$+0xffffffff7ffb4280>
   16c68:	fb0714e3          	bne	a4,a6,16c10 <_ZNSt23mersenne_twister_engineImLm32ELm624ELm397ELm31ELm2567483615ELm11ELm4294967295ELm7ELm2636928640ELm15ELm4022730752ELm18ELm1812433253EE11_M_gen_randEv+0x4c>
   16c6c:	000995b7          	lui	a1,0x99
   16c70:	08b58593          	addi	a1,a1,139 # 9908b <__global_pointer$+0x4d2fb>
   16c74:	00c59593          	slli	a1,a1,0xc
   16c78:	0df58593          	addi	a1,a1,223
   16c7c:	cd817057          	vsetivli	zero,2,e64,m1,ta,ma
   16c80:	00001637          	lui	a2,0x1
   16c84:	5e05c357          	vmv.v.x	v6,a1
   16c88:	37860613          	addi	a2,a2,888 # 1378 <__abi_tag-0xef1c>
   16c8c:	00c50633          	add	a2,a0,a2
   16c90:	71850793          	addi	a5,a0,1816
   16c94:	72050693          	addi	a3,a0,1824
   16c98:	00050713          	mv	a4,a0
   16c9c:	0287f087          	vl1re64.v	v1,(a5)
   16ca0:	0286f107          	vl1re64.v	v2,(a3)
   16ca4:	02877287          	vl1re64.v	v5,(a4)
   16ca8:	01068693          	addi	a3,a3,16
   16cac:	01070713          	addi	a4,a4,16
   16cb0:	261200d7          	vand.vv	v1,v1,v4
   16cb4:	26218157          	vand.vv	v2,v2,v3
   16cb8:	2a1100d7          	vor.vv	v1,v1,v2
   16cbc:	2610b157          	vand.vi	v2,v1,1
   16cc0:	a210b0d7          	vsrl.vi	v1,v1,1
   16cc4:	96232157          	vmul.vv	v2,v2,v6
   16cc8:	2e1280d7          	vxor.vv	v1,v1,v5
   16ccc:	2e1100d7          	vxor.vv	v1,v1,v2
   16cd0:	028780a7          	vs1r.v	v1,(a5)
   16cd4:	01078793          	addi	a5,a5,16
   16cd8:	fcf612e3          	bne	a2,a5,16c9c <_ZNSt23mersenne_twister_engineImLm32ELm624ELm397ELm31ELm2567483615ELm11ELm4294967295ELm7ELm2636928640ELm15ELm4022730752ELm18ELm1812433253EE11_M_gen_randEv+0xd8>
   16cdc:	00001737          	lui	a4,0x1
   16ce0:	00e50733          	add	a4,a0,a4
   16ce4:	00053683          	ld	a3,0(a0)
   16ce8:	37873783          	ld	a5,888(a4) # 1378 <__abi_tag-0xef1c>
   16cec:	80000637          	lui	a2,0x80000
   16cf0:	fff64513          	not	a0,a2
   16cf4:	00a6f6b3          	and	a3,a3,a0
   16cf8:	00c7f7b3          	and	a5,a5,a2
   16cfc:	00d7e7b3          	or	a5,a5,a3
   16d00:	c6073603          	ld	a2,-928(a4)
   16d04:	0017f693          	andi	a3,a5,1
   16d08:	40d006b3          	neg	a3,a3
   16d0c:	0017d793          	srli	a5,a5,0x1
   16d10:	00b6f6b3          	and	a3,a3,a1
   16d14:	00c7c7b3          	xor	a5,a5,a2
   16d18:	00d7c7b3          	xor	a5,a5,a3
   16d1c:	38073023          	sd	zero,896(a4)
   16d20:	36f73c23          	sd	a5,888(a4)
   16d24:	00008067          	ret

0000000000016d28 <_ZN6nncase7NttTest11init_tensorINS_4halfENS_3ntt12basic_vectorIS2_JLm16EEEEEEvRT0_T_S8_>:
   16d28:	88010113          	addi	sp,sp,-1920
   16d2c:	00001837          	lui	a6,0x1
   16d30:	ffffe2b7          	lui	t0,0xffffe
   16d34:	76813823          	sd	s0,1904(sp)
   16d38:	76913423          	sd	s1,1896(sp)
   16d3c:	77213023          	sd	s2,1888(sp)
   16d40:	75313c23          	sd	s3,1880(sp)
   16d44:	75413823          	sd	s4,1872(sp)
   16d48:	76113c23          	sd	ra,1912(sp)
   16d4c:	75513423          	sd	s5,1864(sp)
   16d50:	75613023          	sd	s6,1856(sp)
   16d54:	72813c27          	fsd	fs0,1848(sp)
   16d58:	72913827          	fsd	fs1,1840(sp)
   16d5c:	73213427          	fsd	fs2,1832(sp)
   16d60:	73313027          	fsd	fs3,1824(sp)
   16d64:	71413c27          	fsd	fs4,1816(sp)
   16d68:	71513827          	fsd	fs5,1808(sp)
   16d6c:	38880793          	addi	a5,a6,904 # 1388 <__abi_tag-0xef0c>
   16d70:	00510133          	add	sp,sp,t0
   16d74:	616666b7          	lui	a3,0x61666
   16d78:	00007737          	lui	a4,0x7
   16d7c:	00f107b3          	add	a5,sp,a5
   16d80:	56468693          	addi	a3,a3,1380 # 61666564 <__global_pointer$+0x6161a7d4>
   16d84:	c7570713          	addi	a4,a4,-907 # 6c75 <__abi_tag-0x961f>
   16d88:	07400313          	li	t1,116
   16d8c:	00050413          	mv	s0,a0
   16d90:	71080513          	addi	a0,a6,1808
   16d94:	00a109b3          	add	s3,sp,a0
   16d98:	00d7a823          	sw	a3,16(a5)
   16d9c:	00e79a23          	sh	a4,20(a5)
   16da0:	00678b23          	sb	t1,22(a5)
   16da4:	01078a13          	addi	s4,a5,16
   16da8:	00700893          	li	a7,7
   16dac:	00010513          	mv	a0,sp
   16db0:	00058913          	mv	s2,a1
   16db4:	c749bc23          	sd	s4,-904(s3)
   16db8:	00078593          	mv	a1,a5
   16dbc:	c80987a3          	sb	zero,-881(s3)
   16dc0:	c919b023          	sd	a7,-896(s3)
   16dc4:	00060493          	mv	s1,a2
   16dc8:	d68fe0ef          	jal	ra,15330 <_ZNSt13random_device7_M_initERKNSt7__cxx1112basic_stringIcSt11char_traitsIcESaIcEEE@plt>
   16dcc:	c789b503          	ld	a0,-904(s3)
   16dd0:	01450863          	beq	a0,s4,16de0 <_ZN6nncase7NttTest11init_tensorINS_4halfENS_3ntt12basic_vectorIS2_JLm16EEEEEEvRT0_T_S8_+0xb8>
   16dd4:	c889b583          	ld	a1,-888(s3)
   16dd8:	00158593          	addi	a1,a1,1
   16ddc:	965fe0ef          	jal	ra,15740 <_ZdlPvm@plt>
   16de0:	00010513          	mv	a0,sp
   16de4:	d1dfe0ef          	jal	ra,15b00 <_ZNSt13random_device9_M_getvalEv@plt>
   16de8:	00001737          	lui	a4,0x1
   16dec:	02051693          	slli	a3,a0,0x20
   16df0:	00e107b3          	add	a5,sp,a4
   16df4:	0206d693          	srli	a3,a3,0x20
   16df8:	6c079637          	lui	a2,0x6c079
   16dfc:	38d7b423          	sd	a3,904(a5)
   16e00:	39070793          	addi	a5,a4,912 # 1390 <__abi_tag-0xef04>
   16e04:	00f10833          	add	a6,sp,a5
   16e08:	96560613          	addi	a2,a2,-1691 # 6c078965 <__global_pointer$+0x6c02cbd5>
   16e0c:	00100713          	li	a4,1
   16e10:	27000593          	li	a1,624
   16e14:	01e6d793          	srli	a5,a3,0x1e
   16e18:	00d7c7b3          	xor	a5,a5,a3
   16e1c:	02c787b3          	mul	a5,a5,a2
   16e20:	00880813          	addi	a6,a6,8
   16e24:	00f707b3          	add	a5,a4,a5
   16e28:	02079693          	slli	a3,a5,0x20
   16e2c:	0206d693          	srli	a3,a3,0x20
   16e30:	fed83c23          	sd	a3,-8(a6)
   16e34:	00170713          	addi	a4,a4,1
   16e38:	fcb71ee3          	bne	a4,a1,16e14 <_ZN6nncase7NttTest11init_tensorINS_4halfENS_3ntt12basic_vectorIS2_JLm16EEEEEEvRT0_T_S8_+0xec>
   16e3c:	000027b7          	lui	a5,0x2
   16e40:	0109191b          	slliw	s2,s2,0x10
   16e44:	70878793          	addi	a5,a5,1800 # 2708 <__abi_tag-0xdb8c>
   16e48:	002787b3          	add	a5,a5,sp
   16e4c:	0109591b          	srliw	s2,s2,0x10
   16e50:	0f800637          	lui	a2,0xf800
   16e54:	00e7b023          	sd	a4,0(a5)
   16e58:	00d9179b          	slliw	a5,s2,0xd
   16e5c:	0fffe6b7          	lui	a3,0xfffe
   16e60:	00c7f5b3          	and	a1,a5,a2
   16e64:	00d7f6b3          	and	a3,a5,a3
   16e68:	2ec58863          	beq	a1,a2,17158 <_ZN6nncase7NttTest11init_tensorINS_4halfENS_3ntt12basic_vectorIS2_JLm16EEEEEEvRT0_T_S8_+0x430>
   16e6c:	1c058e63          	beqz	a1,17048 <_ZN6nncase7NttTest11init_tensorINS_4halfENS_3ntt12basic_vectorIS2_JLm16EEEEEEvRT0_T_S8_+0x320>
   16e70:	380007b7          	lui	a5,0x38000
   16e74:	00f686bb          	addw	a3,a3,a5
   16e78:	80000637          	lui	a2,0x80000
   16e7c:	0109179b          	slliw	a5,s2,0x10
   16e80:	00c7f7b3          	and	a5,a5,a2
   16e84:	00d7e7b3          	or	a5,a5,a3
   16e88:	f00787d3          	fmv.w.x	fa5,a5
   16e8c:	0104949b          	slliw	s1,s1,0x10
   16e90:	0104d49b          	srliw	s1,s1,0x10
   16e94:	4407f4d3          	.4byte	0x4407f4d3
   16e98:	00d4979b          	slliw	a5,s1,0xd
   16e9c:	0f800637          	lui	a2,0xf800
   16ea0:	0fffe6b7          	lui	a3,0xfffe
   16ea4:	00c7f5b3          	and	a1,a5,a2
   16ea8:	402484d3          	.4byte	0x402484d3
   16eac:	00d7f6b3          	and	a3,a5,a3
   16eb0:	2ac58a63          	beq	a1,a2,17164 <_ZN6nncase7NttTest11init_tensorINS_4halfENS_3ntt12basic_vectorIS2_JLm16EEEEEEvRT0_T_S8_+0x43c>
   16eb4:	2a058e63          	beqz	a1,17170 <_ZN6nncase7NttTest11init_tensorINS_4halfENS_3ntt12basic_vectorIS2_JLm16EEEEEEvRT0_T_S8_+0x448>
   16eb8:	380007b7          	lui	a5,0x38000
   16ebc:	00f686bb          	addw	a3,a3,a5
   16ec0:	0104979b          	slliw	a5,s1,0x10
   16ec4:	80000937          	lui	s2,0x80000
   16ec8:	0127f7b3          	and	a5,a5,s2
   16ecc:	00d7e7b3          	or	a5,a5,a3
   16ed0:	f00787d3          	fmv.w.x	fa5,a5
   16ed4:	000017b7          	lui	a5,0x1
   16ed8:	38878693          	addi	a3,a5,904 # 1388 <__abi_tag-0xef0c>
   16edc:	4407f453          	.4byte	0x4407f453
   16ee0:	71078793          	addi	a5,a5,1808
   16ee4:	00f104b3          	add	s1,sp,a5
   16ee8:	40240453          	.4byte	0x40240453
   16eec:	00021797          	auipc	a5,0x21
   16ef0:	7787a987          	flw	fs3,1912(a5) # 38664 <_IO_stdin_used+0xc>
   16ef4:	00021797          	auipc	a5,0x21
   16ef8:	7747a907          	flw	fs2,1908(a5) # 38668 <_IO_stdin_used+0x10>
   16efc:	08947453          	fsub.s	fs0,fs0,fs1
   16f00:	00021797          	auipc	a5,0x21
   16f04:	76c7aa87          	flw	fs5,1900(a5) # 3866c <_IO_stdin_used+0x14>
   16f08:	00021797          	auipc	a5,0x21
   16f0c:	7587aa07          	flw	fs4,1880(a5) # 38660 <_IO_stdin_used+0x8>
   16f10:	00d10b33          	add	s6,sp,a3
   16f14:	02040a93          	addi	s5,s0,32
   16f18:	fff94a13          	not	s4,s2
   16f1c:	26f00993          	li	s3,623
   16f20:	1ae9e063          	bltu	s3,a4,170c0 <_ZN6nncase7NttTest11init_tensorINS_4halfENS_3ntt12basic_vectorIS2_JLm16EEEEEEvRT0_T_S8_+0x398>
   16f24:	00371793          	slli	a5,a4,0x3
   16f28:	00f487b3          	add	a5,s1,a5
   16f2c:	c787b783          	ld	a5,-904(a5)
   16f30:	013a66b7          	lui	a3,0x13a6
   16f34:	8ad68693          	addi	a3,a3,-1875 # 13a58ad <__global_pointer$+0x1359b1d>
   16f38:	00b7d593          	srli	a1,a5,0xb
   16f3c:	02059593          	slli	a1,a1,0x20
   16f40:	0205d593          	srli	a1,a1,0x20
   16f44:	00b7c7b3          	xor	a5,a5,a1
   16f48:	00779593          	slli	a1,a5,0x7
   16f4c:	00769693          	slli	a3,a3,0x7
   16f50:	00d5f6b3          	and	a3,a1,a3
   16f54:	00d7c7b3          	xor	a5,a5,a3
   16f58:	077e3637          	lui	a2,0x77e3
   16f5c:	00f79693          	slli	a3,a5,0xf
   16f60:	00561613          	slli	a2,a2,0x5
   16f64:	00c6f6b3          	and	a3,a3,a2
   16f68:	00d7c7b3          	xor	a5,a5,a3
   16f6c:	0127d693          	srli	a3,a5,0x12
   16f70:	00d7c7b3          	xor	a5,a5,a3
   16f74:	d037f7d3          	fcvt.s.lu	fa5,a5
   16f78:	f0000753          	fmv.w.x	fa4,zero
   16f7c:	000027b7          	lui	a5,0x2
   16f80:	70878793          	addi	a5,a5,1800 # 2708 <__abi_tag-0xdb8c>
   16f84:	00e7f7d3          	fadd.s	fa5,fa5,fa4
   16f88:	002787b3          	add	a5,a5,sp
   16f8c:	00170713          	addi	a4,a4,1
   16f90:	00e7b023          	sd	a4,0(a5)
   16f94:	1137f7d3          	fmul.s	fa5,fa5,fs3
   16f98:	a0f907d3          	fle.s	a5,fs2,fa5
   16f9c:	1a079263          	bnez	a5,17140 <_ZN6nncase7NttTest11init_tensorINS_4halfENS_3ntt12basic_vectorIS2_JLm16EEEEEEvRT0_T_S8_+0x418>
   16fa0:	48f477c3          	fmadd.s	fa5,fs0,fa5,fs1
   16fa4:	000085b7          	lui	a1,0x8
   16fa8:	47800637          	lui	a2,0x47800
   16fac:	e00787d3          	fmv.x.w	a5,fa5
   16fb0:	0007879b          	sext.w	a5,a5
   16fb4:	0107d69b          	srliw	a3,a5,0x10
   16fb8:	0147f7b3          	and	a5,a5,s4
   16fbc:	00b6f6b3          	and	a3,a3,a1
   16fc0:	0ac7e663          	bltu	a5,a2,1706c <_ZN6nncase7NttTest11init_tensorINS_4halfENS_3ntt12basic_vectorIS2_JLm16EEEEEEvRT0_T_S8_+0x344>
   16fc4:	7f800637          	lui	a2,0x7f800
   16fc8:	10f67a63          	bgeu	a2,a5,170dc <_ZN6nncase7NttTest11init_tensorINS_4halfENS_3ntt12basic_vectorIS2_JLm16EEEEEEvRT0_T_S8_+0x3b4>
   16fcc:	e0058793          	addi	a5,a1,-512 # 7e00 <__abi_tag-0x8494>
   16fd0:	00f6e7b3          	or	a5,a3,a5
   16fd4:	7fc00637          	lui	a2,0x7fc00
   16fd8:	0107979b          	slliw	a5,a5,0x10
   16fdc:	0127f7b3          	and	a5,a5,s2
   16fe0:	00c7e7b3          	or	a5,a5,a2
   16fe4:	f00787d3          	fmv.w.x	fa5,a5
   16fe8:	00240413          	addi	s0,s0,2
   16fec:	4407f7d3          	.4byte	0x4407f7d3
   16ff0:	fef41f27          	.4byte	0xfef41f27
   16ff4:	f35416e3          	bne	s0,s5,16f20 <_ZN6nncase7NttTest11init_tensorINS_4halfENS_3ntt12basic_vectorIS2_JLm16EEEEEEvRT0_T_S8_+0x1f8>
   16ff8:	00010513          	mv	a0,sp
   16ffc:	d94fe0ef          	jal	ra,15590 <_ZNSt13random_device7_M_finiEv@plt>
   17000:	000022b7          	lui	t0,0x2
   17004:	00510133          	add	sp,sp,t0
   17008:	77813083          	ld	ra,1912(sp)
   1700c:	77013403          	ld	s0,1904(sp)
   17010:	76813483          	ld	s1,1896(sp)
   17014:	76013903          	ld	s2,1888(sp)
   17018:	75813983          	ld	s3,1880(sp)
   1701c:	75013a03          	ld	s4,1872(sp)
   17020:	74813a83          	ld	s5,1864(sp)
   17024:	74013b03          	ld	s6,1856(sp)
   17028:	73813407          	fld	fs0,1848(sp)
   1702c:	73013487          	fld	fs1,1840(sp)
   17030:	72813907          	fld	fs2,1832(sp)
   17034:	72013987          	fld	fs3,1824(sp)
   17038:	71813a07          	fld	fs4,1816(sp)
   1703c:	71013a87          	fld	fs5,1808(sp)
   17040:	78010113          	addi	sp,sp,1920
   17044:	00008067          	ret
   17048:	00021797          	auipc	a5,0x21
   1704c:	6187a787          	flw	fa5,1560(a5) # 38660 <_IO_stdin_used+0x8>
   17050:	388007b7          	lui	a5,0x38800
   17054:	00f686b3          	add	a3,a3,a5
   17058:	f0068753          	fmv.w.x	fa4,a3
   1705c:	08f777d3          	fsub.s	fa5,fa4,fa5
   17060:	e00786d3          	fmv.x.w	a3,fa5
   17064:	0006869b          	sext.w	a3,a3
   17068:	e11ff06f          	j	16e78 <_ZN6nncase7NttTest11init_tensorINS_4halfENS_3ntt12basic_vectorIS2_JLm16EEEEEEvRT0_T_S8_+0x150>
   1706c:	388005b7          	lui	a1,0x38800
   17070:	06b7fe63          	bgeu	a5,a1,170ec <_ZN6nncase7NttTest11init_tensorINS_4halfENS_3ntt12basic_vectorIS2_JLm16EEEEEEvRT0_T_S8_+0x3c4>
   17074:	f00787d3          	fmv.w.x	fa5,a5
   17078:	0f800537          	lui	a0,0xf800
   1707c:	0fffe837          	lui	a6,0xfffe
   17080:	0157f7d3          	fadd.s	fa5,fa5,fs5
   17084:	e00787d3          	fmv.x.w	a5,fa5
   17088:	00f6e7b3          	or	a5,a3,a5
   1708c:	0107979b          	slliw	a5,a5,0x10
   17090:	0107d79b          	srliw	a5,a5,0x10
   17094:	00d7961b          	slliw	a2,a5,0xd
   17098:	00a676b3          	and	a3,a2,a0
   1709c:	01067633          	and	a2,a2,a6
   170a0:	0ea68a63          	beq	a3,a0,17194 <_ZN6nncase7NttTest11init_tensorINS_4halfENS_3ntt12basic_vectorIS2_JLm16EEEEEEvRT0_T_S8_+0x46c>
   170a4:	0a069463          	bnez	a3,1714c <_ZN6nncase7NttTest11init_tensorINS_4halfENS_3ntt12basic_vectorIS2_JLm16EEEEEEvRT0_T_S8_+0x424>
   170a8:	00b6063b          	addw	a2,a2,a1
   170ac:	f00607d3          	fmv.w.x	fa5,a2
   170b0:	0947f7d3          	fsub.s	fa5,fa5,fs4
   170b4:	e0078653          	fmv.x.w	a2,fa5
   170b8:	0006061b          	sext.w	a2,a2
   170bc:	f1dff06f          	j	16fd8 <_ZN6nncase7NttTest11init_tensorINS_4halfENS_3ntt12basic_vectorIS2_JLm16EEEEEEvRT0_T_S8_+0x2b0>
   170c0:	000b0513          	mv	a0,s6
   170c4:	b01ff0ef          	jal	ra,16bc4 <_ZNSt23mersenne_twister_engineImLm32ELm624ELm397ELm31ELm2567483615ELm11ELm4294967295ELm7ELm2636928640ELm15ELm4022730752ELm18ELm1812433253EE11_M_gen_randEv>
   170c8:	000027b7          	lui	a5,0x2
   170cc:	70878793          	addi	a5,a5,1800 # 2708 <__abi_tag-0xdb8c>
   170d0:	002787b3          	add	a5,a5,sp
   170d4:	0007b703          	ld	a4,0(a5)
   170d8:	e4dff06f          	j	16f24 <_ZN6nncase7NttTest11init_tensorINS_4halfENS_3ntt12basic_vectorIS2_JLm16EEEEEEvRT0_T_S8_+0x1fc>
   170dc:	000087b7          	lui	a5,0x8
   170e0:	c0078793          	addi	a5,a5,-1024 # 7c00 <__abi_tag-0x8694>
   170e4:	00f6e7b3          	or	a5,a3,a5
   170e8:	ef1ff06f          	j	16fd8 <_ZN6nncase7NttTest11init_tensorINS_4halfENS_3ntt12basic_vectorIS2_JLm16EEEEEEvRT0_T_S8_+0x2b0>
   170ec:	c80015b7          	lui	a1,0xc8001
   170f0:	fff5859b          	addiw	a1,a1,-1 # ffffffffc8000fff <__global_pointer$+0xffffffffc7fb526f>
   170f4:	00d7d61b          	srliw	a2,a5,0xd
   170f8:	00167613          	andi	a2,a2,1
   170fc:	00b787bb          	addw	a5,a5,a1
   17100:	00c787bb          	addw	a5,a5,a2
   17104:	00d7d79b          	srliw	a5,a5,0xd
   17108:	00f6e7b3          	or	a5,a3,a5
   1710c:	0107979b          	slliw	a5,a5,0x10
   17110:	0107d79b          	srliw	a5,a5,0x10
   17114:	00d7969b          	slliw	a3,a5,0xd
   17118:	0fffe5b7          	lui	a1,0xfffe
   1711c:	0f800537          	lui	a0,0xf800
   17120:	00b6f5b3          	and	a1,a3,a1
   17124:	38000637          	lui	a2,0x38000
   17128:	00a6f6b3          	and	a3,a3,a0
   1712c:	00c5863b          	addw	a2,a1,a2
   17130:	eaa694e3          	bne	a3,a0,16fd8 <_ZN6nncase7NttTest11init_tensorINS_4halfENS_3ntt12basic_vectorIS2_JLm16EEEEEEvRT0_T_S8_+0x2b0>
   17134:	70000637          	lui	a2,0x70000
   17138:	00c5863b          	addw	a2,a1,a2
   1713c:	e9dff06f          	j	16fd8 <_ZN6nncase7NttTest11init_tensorINS_4halfENS_3ntt12basic_vectorIS2_JLm16EEEEEEvRT0_T_S8_+0x2b0>
   17140:	00021797          	auipc	a5,0x21
   17144:	51c7a787          	flw	fa5,1308(a5) # 3865c <_IO_stdin_used+0x4>
   17148:	e59ff06f          	j	16fa0 <_ZN6nncase7NttTest11init_tensorINS_4halfENS_3ntt12basic_vectorIS2_JLm16EEEEEEvRT0_T_S8_+0x278>
   1714c:	380006b7          	lui	a3,0x38000
   17150:	00d6063b          	addw	a2,a2,a3
   17154:	e85ff06f          	j	16fd8 <_ZN6nncase7NttTest11init_tensorINS_4halfENS_3ntt12basic_vectorIS2_JLm16EEEEEEvRT0_T_S8_+0x2b0>
   17158:	700007b7          	lui	a5,0x70000
   1715c:	00f686bb          	addw	a3,a3,a5
   17160:	d19ff06f          	j	16e78 <_ZN6nncase7NttTest11init_tensorINS_4halfENS_3ntt12basic_vectorIS2_JLm16EEEEEEvRT0_T_S8_+0x150>
   17164:	700007b7          	lui	a5,0x70000
   17168:	00f686bb          	addw	a3,a3,a5
   1716c:	d55ff06f          	j	16ec0 <_ZN6nncase7NttTest11init_tensorINS_4halfENS_3ntt12basic_vectorIS2_JLm16EEEEEEvRT0_T_S8_+0x198>
   17170:	00021797          	auipc	a5,0x21
   17174:	4f07a787          	flw	fa5,1264(a5) # 38660 <_IO_stdin_used+0x8>
   17178:	388007b7          	lui	a5,0x38800
   1717c:	00f686b3          	add	a3,a3,a5
   17180:	f0068753          	fmv.w.x	fa4,a3
   17184:	08f777d3          	fsub.s	fa5,fa4,fa5
   17188:	e00786d3          	fmv.x.w	a3,fa5
   1718c:	0006869b          	sext.w	a3,a3
   17190:	d31ff06f          	j	16ec0 <_ZN6nncase7NttTest11init_tensorINS_4halfENS_3ntt12basic_vectorIS2_JLm16EEEEEEvRT0_T_S8_+0x198>
   17194:	700006b7          	lui	a3,0x70000
   17198:	00d6063b          	addw	a2,a2,a3
   1719c:	e3dff06f          	j	16fd8 <_ZN6nncase7NttTest11init_tensorINS_4halfENS_3ntt12basic_vectorIS2_JLm16EEEEEEvRT0_T_S8_+0x2b0>

00000000000171a0 <_ZN19UnaryTestAbs_v_Test8TestBodyEv>:
   171a0:	f9010113          	addi	sp,sp,-112
   171a4:	ffffd5b7          	lui	a1,0xffffd
   171a8:	00005637          	lui	a2,0x5
   171ac:	9005859b          	addiw	a1,a1,-1792 # ffffffffffffc900 <__global_pointer$+0xfffffffffffb0b70>
   171b0:	9006061b          	addiw	a2,a2,-1792 # 4900 <__abi_tag-0xb994>
   171b4:	00010513          	mv	a0,sp
   171b8:	06113423          	sd	ra,104(sp)
   171bc:	06813023          	sd	s0,96(sp)
   171c0:	04913c23          	sd	s1,88(sp)
   171c4:	05213823          	sd	s2,80(sp)
   171c8:	05313423          	sd	s3,72(sp)
   171cc:	b5dff0ef          	jal	ra,16d28 <_ZN6nncase7NttTest11init_tensorINS_4halfENS_3ntt12basic_vectorIS2_JLm16EEEEEEvRT0_T_S8_>
   171d0:	22815107          	vl2re16.v	v2,(sp)
   171d4:	cc987057          	vsetivli	zero,16,e16,m2,ta,ma
   171d8:	000085b7          	lui	a1,0x8
   171dc:	47800637          	lui	a2,0x47800
   171e0:	2a211157          	vfabs.v	v2,v2
   171e4:	422017d7          	vfmv.f.s	fa5,v2
   171e8:	402787d3          	.4byte	0x402787d3
   171ec:	c00797d3          	fcvt.w.s	a5,fa5,rtz
   171f0:	d007f7d3          	fcvt.s.w	fa5,a5
   171f4:	e0078753          	fmv.x.w	a4,fa5
   171f8:	02171693          	slli	a3,a4,0x21
   171fc:	0216d693          	srli	a3,a3,0x21
   17200:	0107571b          	srliw	a4,a4,0x10
   17204:	00b77733          	and	a4,a4,a1
   17208:	00c6ee63          	bltu	a3,a2,17224 <_ZN19UnaryTestAbs_v_Test8TestBodyEv+0x84>
   1720c:	7f8007b7          	lui	a5,0x7f800
   17210:	24d7f663          	bgeu	a5,a3,1745c <_ZN19UnaryTestAbs_v_Test8TestBodyEv+0x2bc>
   17214:	e0058793          	addi	a5,a1,-512 # 7e00 <__abi_tag-0x8494>
   17218:	00f76733          	or	a4,a4,a5
   1721c:	7fc007b7          	lui	a5,0x7fc00
   17220:	0540006f          	j	17274 <_ZN19UnaryTestAbs_v_Test8TestBodyEv+0xd4>
   17224:	38800637          	lui	a2,0x38800
   17228:	1cc6ec63          	bltu	a3,a2,17400 <_ZN19UnaryTestAbs_v_Test8TestBodyEv+0x260>
   1722c:	c8001637          	lui	a2,0xc8001
   17230:	fff6061b          	addiw	a2,a2,-1 # ffffffffc8000fff <__global_pointer$+0xffffffffc7fb526f>
   17234:	00d6d79b          	srliw	a5,a3,0xd
   17238:	0017f793          	andi	a5,a5,1
   1723c:	00c686bb          	addw	a3,a3,a2
   17240:	00f686bb          	addw	a3,a3,a5
   17244:	00d6d69b          	srliw	a3,a3,0xd
   17248:	00d76733          	or	a4,a4,a3
   1724c:	0107171b          	slliw	a4,a4,0x10
   17250:	0107571b          	srliw	a4,a4,0x10
   17254:	00d7169b          	slliw	a3,a4,0xd
   17258:	0fffe637          	lui	a2,0xfffe
   1725c:	0f8005b7          	lui	a1,0xf800
   17260:	00c6f633          	and	a2,a3,a2
   17264:	380007b7          	lui	a5,0x38000
   17268:	00b6f6b3          	and	a3,a3,a1
   1726c:	00f607bb          	addw	a5,a2,a5
   17270:	34b68463          	beq	a3,a1,175b8 <_ZN19UnaryTestAbs_v_Test8TestBodyEv+0x418>
   17274:	800006b7          	lui	a3,0x80000
   17278:	0107171b          	slliw	a4,a4,0x10
   1727c:	00d77733          	and	a4,a4,a3
   17280:	00f76733          	or	a4,a4,a5
   17284:	f00707d3          	fmv.w.x	fa5,a4
   17288:	02010493          	addi	s1,sp,32
   1728c:	00048513          	mv	a0,s1
   17290:	420787d3          	fcvt.d.s	fa5,fa5
   17294:	00021697          	auipc	a3,0x21
   17298:	5f468693          	addi	a3,a3,1524 # 38888 <_IO_stdin_used+0x230>
   1729c:	03a00613          	li	a2,58
   172a0:	e2078753          	fmv.x.d	a4,fa5
   172a4:	00034597          	auipc	a1,0x34
   172a8:	a4c5b583          	ld	a1,-1460(a1) # 4acf0 <vsnprintf@GLIBC_2.27>
   172ac:	03010413          	addi	s0,sp,48
   172b0:	e80ff0ef          	jal	ra,16930 <_ZN9__gnu_cxx12__to_xstringINSt7__cxx1112basic_stringIcSt11char_traitsIcESaIcEEEcEET_PFiPT0_mPKS8_PvEmSB_z>
   172b4:	02813603          	ld	a2,40(sp)
   172b8:	02013583          	ld	a1,32(sp)
   172bc:	00034517          	auipc	a0,0x34
   172c0:	90c53503          	ld	a0,-1780(a0) # 4abc8 <_ZSt4cout@Base>
   172c4:	c3cfe0ef          	jal	ra,15700 <_ZSt16__ostream_insertIcSt11char_traitsIcEERSt13basic_ostreamIT_T0_ES6_PKS3_l@plt>
   172c8:	02013503          	ld	a0,32(sp)
   172cc:	00850863          	beq	a0,s0,172dc <_ZN19UnaryTestAbs_v_Test8TestBodyEv+0x13c>
   172d0:	03013583          	ld	a1,48(sp)
   172d4:	00158593          	addi	a1,a1,1
   172d8:	c68fe0ef          	jal	ra,15740 <_ZdlPvm@plt>
   172dc:	00034917          	auipc	s2,0x34
   172e0:	8ec93903          	ld	s2,-1812(s2) # 4abc8 <_ZSt4cout@Base>
   172e4:	00093783          	ld	a5,0(s2)
   172e8:	fe87b783          	ld	a5,-24(a5) # 37ffffe8 <__global_pointer$+0x37fb4258>
   172ec:	00f907b3          	add	a5,s2,a5
   172f0:	0f07b983          	ld	s3,240(a5)
   172f4:	2c098e63          	beqz	s3,175d0 <_ZN19UnaryTestAbs_v_Test8TestBodyEv+0x430>
   172f8:	0389c783          	lbu	a5,56(s3)
   172fc:	1c078a63          	beqz	a5,174d0 <_ZN19UnaryTestAbs_v_Test8TestBodyEv+0x330>
   17300:	0439c583          	lbu	a1,67(s3)
   17304:	00034517          	auipc	a0,0x34
   17308:	8c453503          	ld	a0,-1852(a0) # 4abc8 <_ZSt4cout@Base>
   1730c:	e14fe0ef          	jal	ra,15920 <_ZNSo3putEc@plt>
   17310:	971fe0ef          	jal	ra,15c80 <_ZNSo5flushEv@plt>
   17314:	00011787          	.4byte	0x11787
   17318:	000085b7          	lui	a1,0x8
   1731c:	47800637          	lui	a2,0x47800
   17320:	402787d3          	.4byte	0x402787d3
   17324:	c00797d3          	fcvt.w.s	a5,fa5,rtz
   17328:	d007f7d3          	fcvt.s.w	fa5,a5
   1732c:	e0078753          	fmv.x.w	a4,fa5
   17330:	02171693          	slli	a3,a4,0x21
   17334:	0216d693          	srli	a3,a3,0x21
   17338:	0107571b          	srliw	a4,a4,0x10
   1733c:	00b77733          	and	a4,a4,a1
   17340:	12c6e663          	bltu	a3,a2,1746c <_ZN19UnaryTestAbs_v_Test8TestBodyEv+0x2cc>
   17344:	7f8007b7          	lui	a5,0x7f800
   17348:	1ed7f463          	bgeu	a5,a3,17530 <_ZN19UnaryTestAbs_v_Test8TestBodyEv+0x390>
   1734c:	e0058793          	addi	a5,a1,-512 # 7e00 <__abi_tag-0x8494>
   17350:	00f76733          	or	a4,a4,a5
   17354:	7fc007b7          	lui	a5,0x7fc00
   17358:	800006b7          	lui	a3,0x80000
   1735c:	0107171b          	slliw	a4,a4,0x10
   17360:	00d77733          	and	a4,a4,a3
   17364:	00f76733          	or	a4,a4,a5
   17368:	f00707d3          	fmv.w.x	fa5,a4
   1736c:	00048513          	mv	a0,s1
   17370:	00021697          	auipc	a3,0x21
   17374:	51868693          	addi	a3,a3,1304 # 38888 <_IO_stdin_used+0x230>
   17378:	420787d3          	fcvt.d.s	fa5,fa5
   1737c:	03a00613          	li	a2,58
   17380:	00034597          	auipc	a1,0x34
   17384:	9705b583          	ld	a1,-1680(a1) # 4acf0 <vsnprintf@GLIBC_2.27>
   17388:	e2078753          	fmv.x.d	a4,fa5
   1738c:	da4ff0ef          	jal	ra,16930 <_ZN9__gnu_cxx12__to_xstringINSt7__cxx1112basic_stringIcSt11char_traitsIcESaIcEEEcEET_PFiPT0_mPKS8_PvEmSB_z>
   17390:	02813603          	ld	a2,40(sp)
   17394:	02013583          	ld	a1,32(sp)
   17398:	00034517          	auipc	a0,0x34
   1739c:	83053503          	ld	a0,-2000(a0) # 4abc8 <_ZSt4cout@Base>
   173a0:	b60fe0ef          	jal	ra,15700 <_ZSt16__ostream_insertIcSt11char_traitsIcEERSt13basic_ostreamIT_T0_ES6_PKS3_l@plt>
   173a4:	02013503          	ld	a0,32(sp)
   173a8:	00850863          	beq	a0,s0,173b8 <_ZN19UnaryTestAbs_v_Test8TestBodyEv+0x218>
   173ac:	03013583          	ld	a1,48(sp)
   173b0:	00158593          	addi	a1,a1,1
   173b4:	b8cfe0ef          	jal	ra,15740 <_ZdlPvm@plt>
   173b8:	00093783          	ld	a5,0(s2)
   173bc:	fe87b783          	ld	a5,-24(a5) # 7fbfffe8 <__global_pointer$+0x7fbb4258>
   173c0:	00f90933          	add	s2,s2,a5
   173c4:	0f093403          	ld	s0,240(s2)
   173c8:	20040463          	beqz	s0,175d0 <_ZN19UnaryTestAbs_v_Test8TestBodyEv+0x430>
   173cc:	03844783          	lbu	a5,56(s0)
   173d0:	12078863          	beqz	a5,17500 <_ZN19UnaryTestAbs_v_Test8TestBodyEv+0x360>
   173d4:	04344583          	lbu	a1,67(s0)
   173d8:	00033517          	auipc	a0,0x33
   173dc:	7f053503          	ld	a0,2032(a0) # 4abc8 <_ZSt4cout@Base>
   173e0:	d40fe0ef          	jal	ra,15920 <_ZNSo3putEc@plt>
   173e4:	06013403          	ld	s0,96(sp)
   173e8:	06813083          	ld	ra,104(sp)
   173ec:	05813483          	ld	s1,88(sp)
   173f0:	05013903          	ld	s2,80(sp)
   173f4:	04813983          	ld	s3,72(sp)
   173f8:	07010113          	addi	sp,sp,112
   173fc:	885fe06f          	j	15c80 <_ZNSo5flushEv@plt>
   17400:	00021797          	auipc	a5,0x21
   17404:	26c7a787          	flw	fa5,620(a5) # 3866c <_IO_stdin_used+0x14>
   17408:	f0068753          	fmv.w.x	fa4,a3
   1740c:	0f8005b7          	lui	a1,0xf800
   17410:	0fffe537          	lui	a0,0xfffe
   17414:	00f777d3          	fadd.s	fa5,fa4,fa5
   17418:	e00786d3          	fmv.x.w	a3,fa5
   1741c:	00d76733          	or	a4,a4,a3
   17420:	0107171b          	slliw	a4,a4,0x10
   17424:	0107571b          	srliw	a4,a4,0x10
   17428:	00d7179b          	slliw	a5,a4,0xd
   1742c:	00b7f6b3          	and	a3,a5,a1
   17430:	00a7f7b3          	and	a5,a5,a0
   17434:	16b68c63          	beq	a3,a1,175ac <_ZN19UnaryTestAbs_v_Test8TestBodyEv+0x40c>
   17438:	14069e63          	bnez	a3,17594 <_ZN19UnaryTestAbs_v_Test8TestBodyEv+0x3f4>
   1743c:	00c787bb          	addw	a5,a5,a2
   17440:	f0078753          	fmv.w.x	fa4,a5
   17444:	00021697          	auipc	a3,0x21
   17448:	21c6a787          	flw	fa5,540(a3) # 38660 <_IO_stdin_used+0x8>
   1744c:	08f777d3          	fsub.s	fa5,fa4,fa5
   17450:	e00787d3          	fmv.x.w	a5,fa5
   17454:	0007879b          	sext.w	a5,a5
   17458:	e1dff06f          	j	17274 <_ZN19UnaryTestAbs_v_Test8TestBodyEv+0xd4>
   1745c:	000086b7          	lui	a3,0x8
   17460:	c0068693          	addi	a3,a3,-1024 # 7c00 <__abi_tag-0x8694>
   17464:	00d76733          	or	a4,a4,a3
   17468:	e0dff06f          	j	17274 <_ZN19UnaryTestAbs_v_Test8TestBodyEv+0xd4>
   1746c:	38800637          	lui	a2,0x38800
   17470:	0cc6f863          	bgeu	a3,a2,17540 <_ZN19UnaryTestAbs_v_Test8TestBodyEv+0x3a0>
   17474:	00021797          	auipc	a5,0x21
   17478:	1f87a787          	flw	fa5,504(a5) # 3866c <_IO_stdin_used+0x14>
   1747c:	f0068753          	fmv.w.x	fa4,a3
   17480:	0f8005b7          	lui	a1,0xf800
   17484:	0fffe537          	lui	a0,0xfffe
   17488:	00f777d3          	fadd.s	fa5,fa4,fa5
   1748c:	e00786d3          	fmv.x.w	a3,fa5
   17490:	00d76733          	or	a4,a4,a3
   17494:	0107171b          	slliw	a4,a4,0x10
   17498:	0107571b          	srliw	a4,a4,0x10
   1749c:	00d7179b          	slliw	a5,a4,0xd
   174a0:	00b7f6b3          	and	a3,a5,a1
   174a4:	00a7f7b3          	and	a5,a5,a0
   174a8:	10b68e63          	beq	a3,a1,175c4 <_ZN19UnaryTestAbs_v_Test8TestBodyEv+0x424>
   174ac:	0e069a63          	bnez	a3,175a0 <_ZN19UnaryTestAbs_v_Test8TestBodyEv+0x400>
   174b0:	00c787bb          	addw	a5,a5,a2
   174b4:	f0078753          	fmv.w.x	fa4,a5
   174b8:	00021697          	auipc	a3,0x21
   174bc:	1a86a787          	flw	fa5,424(a3) # 38660 <_IO_stdin_used+0x8>
   174c0:	08f777d3          	fsub.s	fa5,fa4,fa5
   174c4:	e00787d3          	fmv.x.w	a5,fa5
   174c8:	0007879b          	sext.w	a5,a5
   174cc:	e8dff06f          	j	17358 <_ZN19UnaryTestAbs_v_Test8TestBodyEv+0x1b8>
   174d0:	00098513          	mv	a0,s3
   174d4:	93cfe0ef          	jal	ra,15610 <_ZNKSt5ctypeIcE13_M_widen_initEv@plt>
   174d8:	0009b783          	ld	a5,0(s3)
   174dc:	fffff717          	auipc	a4,0xfffff
   174e0:	2e870713          	addi	a4,a4,744 # 167c4 <_ZNKSt5ctypeIcE8do_widenEc>
   174e4:	00a00593          	li	a1,10
   174e8:	0307b783          	ld	a5,48(a5)
   174ec:	e0e78ce3          	beq	a5,a4,17304 <_ZN19UnaryTestAbs_v_Test8TestBodyEv+0x164>
   174f0:	00098513          	mv	a0,s3
   174f4:	000780e7          	jalr	a5
   174f8:	00050593          	mv	a1,a0
   174fc:	e09ff06f          	j	17304 <_ZN19UnaryTestAbs_v_Test8TestBodyEv+0x164>
   17500:	00040513          	mv	a0,s0
   17504:	90cfe0ef          	jal	ra,15610 <_ZNKSt5ctypeIcE13_M_widen_initEv@plt>
   17508:	00043783          	ld	a5,0(s0)
   1750c:	fffff717          	auipc	a4,0xfffff
   17510:	2b870713          	addi	a4,a4,696 # 167c4 <_ZNKSt5ctypeIcE8do_widenEc>
   17514:	00a00593          	li	a1,10
   17518:	0307b783          	ld	a5,48(a5)
   1751c:	eae78ee3          	beq	a5,a4,173d8 <_ZN19UnaryTestAbs_v_Test8TestBodyEv+0x238>
   17520:	00040513          	mv	a0,s0
   17524:	000780e7          	jalr	a5
   17528:	00050593          	mv	a1,a0
   1752c:	eadff06f          	j	173d8 <_ZN19UnaryTestAbs_v_Test8TestBodyEv+0x238>
   17530:	000086b7          	lui	a3,0x8
   17534:	c0068693          	addi	a3,a3,-1024 # 7c00 <__abi_tag-0x8694>
   17538:	00d76733          	or	a4,a4,a3
   1753c:	e1dff06f          	j	17358 <_ZN19UnaryTestAbs_v_Test8TestBodyEv+0x1b8>
   17540:	c8001637          	lui	a2,0xc8001
   17544:	fff6061b          	addiw	a2,a2,-1 # ffffffffc8000fff <__global_pointer$+0xffffffffc7fb526f>
   17548:	00d6d79b          	srliw	a5,a3,0xd
   1754c:	0017f793          	andi	a5,a5,1
   17550:	00c686bb          	addw	a3,a3,a2
   17554:	00f686bb          	addw	a3,a3,a5
   17558:	00d6d69b          	srliw	a3,a3,0xd
   1755c:	00d76733          	or	a4,a4,a3
   17560:	0107171b          	slliw	a4,a4,0x10
   17564:	0107571b          	srliw	a4,a4,0x10
   17568:	00d7169b          	slliw	a3,a4,0xd
   1756c:	0fffe637          	lui	a2,0xfffe
   17570:	0f8005b7          	lui	a1,0xf800
   17574:	00c6f633          	and	a2,a3,a2
   17578:	380007b7          	lui	a5,0x38000
   1757c:	00b6f6b3          	and	a3,a3,a1
   17580:	00f607bb          	addw	a5,a2,a5
   17584:	dcb69ae3          	bne	a3,a1,17358 <_ZN19UnaryTestAbs_v_Test8TestBodyEv+0x1b8>
   17588:	700007b7          	lui	a5,0x70000
   1758c:	00f607bb          	addw	a5,a2,a5
   17590:	dc9ff06f          	j	17358 <_ZN19UnaryTestAbs_v_Test8TestBodyEv+0x1b8>
   17594:	380006b7          	lui	a3,0x38000
   17598:	00d787bb          	addw	a5,a5,a3
   1759c:	cd9ff06f          	j	17274 <_ZN19UnaryTestAbs_v_Test8TestBodyEv+0xd4>
   175a0:	380006b7          	lui	a3,0x38000
   175a4:	00d787bb          	addw	a5,a5,a3
   175a8:	db1ff06f          	j	17358 <_ZN19UnaryTestAbs_v_Test8TestBodyEv+0x1b8>
   175ac:	700006b7          	lui	a3,0x70000
   175b0:	00d787bb          	addw	a5,a5,a3
   175b4:	cc1ff06f          	j	17274 <_ZN19UnaryTestAbs_v_Test8TestBodyEv+0xd4>
   175b8:	700007b7          	lui	a5,0x70000
   175bc:	00f607bb          	addw	a5,a2,a5
   175c0:	cb5ff06f          	j	17274 <_ZN19UnaryTestAbs_v_Test8TestBodyEv+0xd4>
   175c4:	700006b7          	lui	a3,0x70000
   175c8:	00d787bb          	addw	a5,a5,a3
   175cc:	d8dff06f          	j	17358 <_ZN19UnaryTestAbs_v_Test8TestBodyEv+0x1b8>
   175d0:	9d0fe0ef          	jal	ra,157a0 <_ZSt16__throw_bad_castv@plt>

00000000000175d4 <_ZN6nncase7NttTest11init_tensorIfNS_3ntt12basic_tensorINS_4halfENS2_11fixed_shapeIJLm1ELm3ELm16ELm16EEEENS2_13fixed_stridesIJLm768ELm256ELm16ELm1EEEELm768ELb0EEEEEvRT0_T_SC_>:
   175d4:	87010113          	addi	sp,sp,-1936
   175d8:	ffffe2b7          	lui	t0,0xffffe
   175dc:	000016b7          	lui	a3,0x1
   175e0:	78813023          	sd	s0,1920(sp)
   175e4:	76913c23          	sd	s1,1912(sp)
   175e8:	77213823          	sd	s2,1904(sp)
   175ec:	72813c27          	fsd	fs0,1848(sp)
   175f0:	72913827          	fsd	fs1,1840(sp)
   175f4:	78113423          	sd	ra,1928(sp)
   175f8:	77313423          	sd	s3,1896(sp)
   175fc:	77413023          	sd	s4,1888(sp)
   17600:	75513c23          	sd	s5,1880(sp)
   17604:	75613823          	sd	s6,1872(sp)
   17608:	75713423          	sd	s7,1864(sp)
   1760c:	75813023          	sd	s8,1856(sp)
   17610:	73213427          	fsd	fs2,1832(sp)
   17614:	73313027          	fsd	fs3,1824(sp)
   17618:	71413c27          	fsd	fs4,1816(sp)
   1761c:	71513827          	fsd	fs5,1808(sp)
   17620:	38868793          	addi	a5,a3,904 # 1388 <__abi_tag-0xef0c>
   17624:	00510133          	add	sp,sp,t0
   17628:	00f105b3          	add	a1,sp,a5
   1762c:	61666737          	lui	a4,0x61666
   17630:	000077b7          	lui	a5,0x7
   17634:	56470713          	addi	a4,a4,1380 # 61666564 <__global_pointer$+0x6161a7d4>
   17638:	c7578793          	addi	a5,a5,-907 # 6c75 <__abi_tag-0x961f>
   1763c:	07400813          	li	a6,116
   17640:	71068693          	addi	a3,a3,1808
   17644:	00d10433          	add	s0,sp,a3
   17648:	00e5a823          	sw	a4,16(a1) # f800010 <__global_pointer$+0xf7b4280>
   1764c:	00f59a23          	sh	a5,20(a1)
   17650:	01058b23          	sb	a6,22(a1)
   17654:	01058913          	addi	s2,a1,16
   17658:	00700613          	li	a2,7
   1765c:	00050493          	mv	s1,a0
   17660:	c7243c23          	sd	s2,-904(s0)
   17664:	00010513          	mv	a0,sp
   17668:	c80407a3          	sb	zero,-881(s0)
   1766c:	c8c43023          	sd	a2,-896(s0)
   17670:	20a504d3          	fmv.s	fs1,fa0
   17674:	20b58453          	fmv.s	fs0,fa1
   17678:	cb9fd0ef          	jal	ra,15330 <_ZNSt13random_device7_M_initERKNSt7__cxx1112basic_stringIcSt11char_traitsIcESaIcEEE@plt>
   1767c:	c7843503          	ld	a0,-904(s0)
   17680:	01250863          	beq	a0,s2,17690 <_ZN6nncase7NttTest11init_tensorIfNS_3ntt12basic_tensorINS_4halfENS2_11fixed_shapeIJLm1ELm3ELm16ELm16EEEENS2_13fixed_stridesIJLm768ELm256ELm16ELm1EEEELm768ELb0EEEEEvRT0_T_SC_+0xbc>
   17684:	c8843583          	ld	a1,-888(s0)
   17688:	00158593          	addi	a1,a1,1
   1768c:	8b4fe0ef          	jal	ra,15740 <_ZdlPvm@plt>
   17690:	00010513          	mv	a0,sp
   17694:	c6cfe0ef          	jal	ra,15b00 <_ZNSt13random_device9_M_getvalEv@plt>
   17698:	00001737          	lui	a4,0x1
   1769c:	02051693          	slli	a3,a0,0x20
   176a0:	00e107b3          	add	a5,sp,a4
   176a4:	0206d693          	srli	a3,a3,0x20
   176a8:	6c0795b7          	lui	a1,0x6c079
   176ac:	38d7b423          	sd	a3,904(a5)
   176b0:	39070793          	addi	a5,a4,912 # 1390 <__abi_tag-0xef04>
   176b4:	00f10633          	add	a2,sp,a5
   176b8:	96558593          	addi	a1,a1,-1691 # 6c078965 <__global_pointer$+0x6c02cbd5>
   176bc:	00100713          	li	a4,1
   176c0:	27000513          	li	a0,624
   176c4:	01e6d793          	srli	a5,a3,0x1e
   176c8:	00d7c7b3          	xor	a5,a5,a3
   176cc:	02b787b3          	mul	a5,a5,a1
   176d0:	00860613          	addi	a2,a2,8 # fffe008 <__global_pointer$+0xffb2278>
   176d4:	00f707b3          	add	a5,a4,a5
   176d8:	02079693          	slli	a3,a5,0x20
   176dc:	0206d693          	srli	a3,a3,0x20
   176e0:	fed63c23          	sd	a3,-8(a2)
   176e4:	00170713          	addi	a4,a4,1
   176e8:	fca71ee3          	bne	a4,a0,176c4 <_ZN6nncase7NttTest11init_tensorIfNS_3ntt12basic_tensorINS_4halfENS2_11fixed_shapeIJLm1ELm3ELm16ELm16EEEENS2_13fixed_stridesIJLm768ELm256ELm16ELm1EEEELm768ELb0EEEEEvRT0_T_SC_+0xf0>
   176ec:	00021797          	auipc	a5,0x21
   176f0:	f787a987          	flw	fs3,-136(a5) # 38664 <_IO_stdin_used+0xc>
   176f4:	00021797          	auipc	a5,0x21
   176f8:	f747a907          	flw	fs2,-140(a5) # 38668 <_IO_stdin_used+0x10>
   176fc:	00021797          	auipc	a5,0x21
   17700:	f707aa07          	flw	fs4,-144(a5) # 3866c <_IO_stdin_used+0x14>
   17704:	00021797          	auipc	a5,0x21
   17708:	f587aa87          	flw	fs5,-168(a5) # 3865c <_IO_stdin_used+0x4>
   1770c:	08947453          	fsub.s	fs0,fs0,fs1
   17710:	000027b7          	lui	a5,0x2
   17714:	70878793          	addi	a5,a5,1800 # 2708 <__abi_tag-0xdb8c>
   17718:	002787b3          	add	a5,a5,sp
   1771c:	00e7b023          	sd	a4,0(a5)
   17720:	000017b7          	lui	a5,0x1
   17724:	38878693          	addi	a3,a5,904 # 1388 <__abi_tag-0xef0c>
   17728:	71078793          	addi	a5,a5,1808
   1772c:	22048493          	addi	s1,s1,544
   17730:	00d10433          	add	s0,sp,a3
   17734:	00f10c33          	add	s8,sp,a5
   17738:	00000913          	li	s2,0
   1773c:	e0048a93          	addi	s5,s1,-512
   17740:	013a6a37          	lui	s4,0x13a6
   17744:	8ada0a13          	addi	s4,s4,-1875 # 13a58ad <__global_pointer$+0x1359b1d>
   17748:	80000b37          	lui	s6,0x80000
   1774c:	007a1a13          	slli	s4,s4,0x7
   17750:	fffb4b13          	not	s6,s6
   17754:	fe0a8993          	addi	s3,s5,-32
   17758:	26f00b93          	li	s7,623
   1775c:	14ebe863          	bltu	s7,a4,178ac <_ZN6nncase7NttTest11init_tensorIfNS_3ntt12basic_tensorINS_4halfENS2_11fixed_shapeIJLm1ELm3ELm16ELm16EEEENS2_13fixed_stridesIJLm768ELm256ELm16ELm1EEEELm768ELb0EEEEEvRT0_T_SC_+0x2d8>
   17760:	00371793          	slli	a5,a4,0x3
   17764:	00fc07b3          	add	a5,s8,a5
   17768:	c787b783          	ld	a5,-904(a5)
   1776c:	077e3637          	lui	a2,0x77e3
   17770:	00561613          	slli	a2,a2,0x5
   17774:	00b7d693          	srli	a3,a5,0xb
   17778:	02069693          	slli	a3,a3,0x20
   1777c:	0206d693          	srli	a3,a3,0x20
   17780:	00d7c7b3          	xor	a5,a5,a3
   17784:	00779693          	slli	a3,a5,0x7
   17788:	0146f6b3          	and	a3,a3,s4
   1778c:	00d7c7b3          	xor	a5,a5,a3
   17790:	00f79693          	slli	a3,a5,0xf
   17794:	00c6f6b3          	and	a3,a3,a2
   17798:	00d7c7b3          	xor	a5,a5,a3
   1779c:	0127d693          	srli	a3,a5,0x12
   177a0:	00d7c7b3          	xor	a5,a5,a3
   177a4:	d037f7d3          	fcvt.s.lu	fa5,a5
   177a8:	f0000753          	fmv.w.x	fa4,zero
   177ac:	000027b7          	lui	a5,0x2
   177b0:	70878793          	addi	a5,a5,1800 # 2708 <__abi_tag-0xdb8c>
   177b4:	00e7f7d3          	fadd.s	fa5,fa5,fa4
   177b8:	002787b3          	add	a5,a5,sp
   177bc:	00170713          	addi	a4,a4,1
   177c0:	00e7b023          	sd	a4,0(a5)
   177c4:	1137f7d3          	fmul.s	fa5,fa5,fs3
   177c8:	a0f907d3          	fle.s	a5,fs2,fa5
   177cc:	12079263          	bnez	a5,178f0 <_ZN6nncase7NttTest11init_tensorIfNS_3ntt12basic_tensorINS_4halfENS2_11fixed_shapeIJLm1ELm3ELm16ELm16EEEENS2_13fixed_stridesIJLm768ELm256ELm16ELm1EEEELm768ELb0EEEEEvRT0_T_SC_+0x31c>
   177d0:	48f477c3          	fmadd.s	fa5,fs0,fa5,fs1
   177d4:	47800637          	lui	a2,0x47800
   177d8:	e00787d3          	fmv.x.w	a5,fa5
   177dc:	0007879b          	sext.w	a5,a5
   177e0:	0167f6b3          	and	a3,a5,s6
   177e4:	0ac6e463          	bltu	a3,a2,1788c <_ZN6nncase7NttTest11init_tensorIfNS_3ntt12basic_tensorINS_4halfENS2_11fixed_shapeIJLm1ELm3ELm16ELm16EEEENS2_13fixed_stridesIJLm768ELm256ELm16ELm1EEEELm768ELb0EEEEEvRT0_T_SC_+0x2b8>
   177e8:	00008637          	lui	a2,0x8
   177ec:	7f8005b7          	lui	a1,0x7f800
   177f0:	c0060613          	addi	a2,a2,-1024 # 7c00 <__abi_tag-0x8694>
   177f4:	00d5f663          	bgeu	a1,a3,17800 <_ZN6nncase7NttTest11init_tensorIfNS_3ntt12basic_tensorINS_4halfENS2_11fixed_shapeIJLm1ELm3ELm16ELm16EEEENS2_13fixed_stridesIJLm768ELm256ELm16ELm1EEEELm768ELb0EEEEEvRT0_T_SC_+0x22c>
   177f8:	00008637          	lui	a2,0x8
   177fc:	e0060613          	addi	a2,a2,-512 # 7e00 <__abi_tag-0x8494>
   17800:	0107d79b          	srliw	a5,a5,0x10
   17804:	000086b7          	lui	a3,0x8
   17808:	00d7f7b3          	and	a5,a5,a3
   1780c:	00f66633          	or	a2,a2,a5
   17810:	00c99023          	sh	a2,0(s3)
   17814:	00298993          	addi	s3,s3,2
   17818:	f55992e3          	bne	s3,s5,1775c <_ZN6nncase7NttTest11init_tensorIfNS_3ntt12basic_tensorINS_4halfENS2_11fixed_shapeIJLm1ELm3ELm16ELm16EEEENS2_13fixed_stridesIJLm768ELm256ELm16ELm1EEEELm768ELb0EEEEEvRT0_T_SC_+0x188>
   1781c:	02098a93          	addi	s5,s3,32
   17820:	f29a90e3          	bne	s5,s1,17740 <_ZN6nncase7NttTest11init_tensorIfNS_3ntt12basic_tensorINS_4halfENS2_11fixed_shapeIJLm1ELm3ELm16ELm16EEEENS2_13fixed_stridesIJLm768ELm256ELm16ELm1EEEELm768ELb0EEEEEvRT0_T_SC_+0x16c>
   17824:	10090913          	addi	s2,s2,256
   17828:	30000793          	li	a5,768
   1782c:	22098493          	addi	s1,s3,544
   17830:	f0f916e3          	bne	s2,a5,1773c <_ZN6nncase7NttTest11init_tensorIfNS_3ntt12basic_tensorINS_4halfENS2_11fixed_shapeIJLm1ELm3ELm16ELm16EEEENS2_13fixed_stridesIJLm768ELm256ELm16ELm1EEEELm768ELb0EEEEEvRT0_T_SC_+0x168>
   17834:	00010513          	mv	a0,sp
   17838:	d59fd0ef          	jal	ra,15590 <_ZNSt13random_device7_M_finiEv@plt>
   1783c:	000022b7          	lui	t0,0x2
   17840:	00510133          	add	sp,sp,t0
   17844:	78813083          	ld	ra,1928(sp)
   17848:	78013403          	ld	s0,1920(sp)
   1784c:	77813483          	ld	s1,1912(sp)
   17850:	77013903          	ld	s2,1904(sp)
   17854:	76813983          	ld	s3,1896(sp)
   17858:	76013a03          	ld	s4,1888(sp)
   1785c:	75813a83          	ld	s5,1880(sp)
   17860:	75013b03          	ld	s6,1872(sp)
   17864:	74813b83          	ld	s7,1864(sp)
   17868:	74013c03          	ld	s8,1856(sp)
   1786c:	73813407          	fld	fs0,1848(sp)
   17870:	73013487          	fld	fs1,1840(sp)
   17874:	72813907          	fld	fs2,1832(sp)
   17878:	72013987          	fld	fs3,1824(sp)
   1787c:	71813a07          	fld	fs4,1816(sp)
   17880:	71013a87          	fld	fs5,1808(sp)
   17884:	79010113          	addi	sp,sp,1936
   17888:	00008067          	ret
   1788c:	38800637          	lui	a2,0x38800
   17890:	02c6fc63          	bgeu	a3,a2,178c8 <_ZN6nncase7NttTest11init_tensorIfNS_3ntt12basic_tensorINS_4halfENS2_11fixed_shapeIJLm1ELm3ELm16ELm16EEEENS2_13fixed_stridesIJLm768ELm256ELm16ELm1EEEELm768ELb0EEEEEvRT0_T_SC_+0x2f4>
   17894:	f00687d3          	fmv.w.x	fa5,a3
   17898:	00fa77d3          	fadd.s	fa5,fs4,fa5
   1789c:	e00786d3          	fmv.x.w	a3,fa5
   178a0:	03069613          	slli	a2,a3,0x30
   178a4:	03065613          	srli	a2,a2,0x30
   178a8:	f59ff06f          	j	17800 <_ZN6nncase7NttTest11init_tensorIfNS_3ntt12basic_tensorINS_4halfENS2_11fixed_shapeIJLm1ELm3ELm16ELm16EEEENS2_13fixed_stridesIJLm768ELm256ELm16ELm1EEEELm768ELb0EEEEEvRT0_T_SC_+0x22c>
   178ac:	00040513          	mv	a0,s0
   178b0:	b14ff0ef          	jal	ra,16bc4 <_ZNSt23mersenne_twister_engineImLm32ELm624ELm397ELm31ELm2567483615ELm11ELm4294967295ELm7ELm2636928640ELm15ELm4022730752ELm18ELm1812433253EE11_M_gen_randEv>
   178b4:	000027b7          	lui	a5,0x2
   178b8:	70878793          	addi	a5,a5,1800 # 2708 <__abi_tag-0xdb8c>
   178bc:	002787b3          	add	a5,a5,sp
   178c0:	0007b703          	ld	a4,0(a5)
   178c4:	e9dff06f          	j	17760 <_ZN6nncase7NttTest11init_tensorIfNS_3ntt12basic_tensorINS_4halfENS2_11fixed_shapeIJLm1ELm3ELm16ELm16EEEENS2_13fixed_stridesIJLm768ELm256ELm16ELm1EEEELm768ELb0EEEEEvRT0_T_SC_+0x18c>
   178c8:	c80015b7          	lui	a1,0xc8001
   178cc:	00d6d61b          	srliw	a2,a3,0xd
   178d0:	fff5859b          	addiw	a1,a1,-1 # ffffffffc8000fff <__global_pointer$+0xffffffffc7fb526f>
   178d4:	00167613          	andi	a2,a2,1
   178d8:	00b686bb          	addw	a3,a3,a1
   178dc:	00c686bb          	addw	a3,a3,a2
   178e0:	00d6d69b          	srliw	a3,a3,0xd
   178e4:	03069613          	slli	a2,a3,0x30
   178e8:	03065613          	srli	a2,a2,0x30
   178ec:	f15ff06f          	j	17800 <_ZN6nncase7NttTest11init_tensorIfNS_3ntt12basic_tensorINS_4halfENS2_11fixed_shapeIJLm1ELm3ELm16ELm16EEEENS2_13fixed_stridesIJLm768ELm256ELm16ELm1EEEELm768ELb0EEEEEvRT0_T_SC_+0x22c>
   178f0:	215a87d3          	fmv.s	fa5,fs5
   178f4:	eddff06f          	j	177d0 <_ZN6nncase7NttTest11init_tensorIfNS_3ntt12basic_tensorINS_4halfENS2_11fixed_shapeIJLm1ELm3ELm16ELm16EEEENS2_13fixed_stridesIJLm768ELm256ELm16ELm1EEEELm768ELb0EEEEEvRT0_T_SC_+0x1fc>

00000000000178f8 <_ZN36UnaryTestAbsFloat16_fixed_fixed_Test8TestBodyEv>:
   178f8:	fa010113          	addi	sp,sp,-96
   178fc:	60000513          	li	a0,1536
   17900:	04113c23          	sd	ra,88(sp)
   17904:	04813823          	sd	s0,80(sp)
   17908:	04913423          	sd	s1,72(sp)
   1790c:	05213023          	sd	s2,64(sp)
   17910:	03313c23          	sd	s3,56(sp)
   17914:	03413823          	sd	s4,48(sp)
   17918:	03513423          	sd	s5,40(sp)
   1791c:	f85fd0ef          	jal	ra,158a0 <_Znwm@plt>
   17920:	00021797          	auipc	a5,0x21
   17924:	d507a587          	flw	fa1,-688(a5) # 38670 <_IO_stdin_used+0x18>
   17928:	00021797          	auipc	a5,0x21
   1792c:	d4c7a507          	flw	fa0,-692(a5) # 38674 <_IO_stdin_used+0x1c>
   17930:	00050413          	mv	s0,a0
   17934:	ca1ff0ef          	jal	ra,175d4 <_ZN6nncase7NttTest11init_tensorIfNS_3ntt12basic_tensorINS_4halfENS2_11fixed_shapeIJLm1ELm3ELm16ELm16EEEENS2_13fixed_stridesIJLm768ELm256ELm16ELm1EEEELm768ELb0EEEEEvRT0_T_SC_>
   17938:	60000513          	li	a0,1536
   1793c:	f65fd0ef          	jal	ra,158a0 <_Znwm@plt>
   17940:	00021797          	auipc	a5,0x21
   17944:	d387a707          	flw	fa4,-712(a5) # 38678 <_IO_stdin_used+0x20>
   17948:	00021797          	auipc	a5,0x21
   1794c:	d247a787          	flw	fa5,-732(a5) # 3866c <_IO_stdin_used+0x14>
   17950:	80000637          	lui	a2,0x80000
   17954:	388006b7          	lui	a3,0x38800
   17958:	47800737          	lui	a4,0x47800
   1795c:	c80017b7          	lui	a5,0xc8001
   17960:	cd027057          	vsetivli	zero,4,e32,m1,ta,ma
   17964:	00068e93          	mv	t4,a3
   17968:	00060893          	mv	a7,a2
   1796c:	fff6869b          	addiw	a3,a3,-1 # 387fffff <__global_pointer$+0x387b426f>
   17970:	fff6061b          	addiw	a2,a2,-1 # 7fffffff <__global_pointer$+0x7ffb426f>
   17974:	fff7879b          	addiw	a5,a5,-1 # ffffffffc8000fff <__global_pointer$+0xffffffffc7fb526f>
   17978:	0fffefb7          	lui	t6,0xfffe
   1797c:	0f800f37          	lui	t5,0xf800
   17980:	38000e37          	lui	t3,0x38000
   17984:	70000337          	lui	t1,0x70000
   17988:	fff7071b          	addiw	a4,a4,-1 # 477fffff <__global_pointer$+0x477b426f>
   1798c:	7f800837          	lui	a6,0x7f800
   17990:	5e0646d7          	vmv.v.x	v13,a2
   17994:	5e06c357          	vmv.v.x	v6,a3
   17998:	5e07c5d7          	vmv.v.x	v11,a5
   1799c:	5e0fc957          	vmv.v.x	v18,t6
   179a0:	5e0f43d7          	vmv.v.x	v7,t5
   179a4:	5e0ec8d7          	vmv.v.x	v17,t4
   179a8:	5e0e4857          	vmv.v.x	v16,t3
   179ac:	5e0347d7          	vmv.v.x	v15,t1
   179b0:	5e08c757          	vmv.v.x	v14,a7
   179b4:	5e074657          	vmv.v.x	v12,a4
   179b8:	5e0842d7          	vmv.v.x	v5,a6
   179bc:	ffff85b7          	lui	a1,0xffff8
   179c0:	0cf07057          	vsetvli	zero,zero,e16,mf2,ta,ma
   179c4:	5e05c557          	vmv.v.x	v10,a1
   179c8:	0d007057          	vsetvli	zero,zero,e32,m1,ta,ma
   179cc:	5e0754d7          	vfmv.v.f	v9,fa4
   179d0:	5e003257          	vmv.v.i	v4,0
   179d4:	5e07d457          	vfmv.v.f	v8,fa5
   179d8:	00050493          	mv	s1,a0
   179dc:	00040793          	mv	a5,s0
   179e0:	00050693          	mv	a3,a0
   179e4:	60040613          	addi	a2,s0,1536
   179e8:	0cf07057          	vsetvli	zero,zero,e16,mf2,ta,ma
   179ec:	0207d107          	vle16.v	v2,(a5)
   179f0:	ffff8737          	lui	a4,0xffff8
   179f4:	c0074713          	xori	a4,a4,-1024
   179f8:	5e074a57          	vmv.v.x	v20,a4
   179fc:	0d007057          	vsetvli	zero,zero,e32,m1,ta,ma
   17a00:	ffff8737          	lui	a4,0xffff8
   17a04:	4a2320d7          	vzext.vf2	v1,v2
   17a08:	e0074713          	xori	a4,a4,-512
   17a0c:	0cf07057          	vsetvli	zero,zero,e16,mf2,ta,ma
   17a10:	5e0749d7          	vmv.v.x	v19,a4
   17a14:	05007057          	vsetvli	zero,zero,e32,m1,ta,mu
   17a18:	9616b157          	vsll.vi	v2,v1,13
   17a1c:	9e4031d7          	vmv1r.v	v3,v4
   17a20:	961830d7          	vsll.vi	v1,v1,16
   17a24:	26290ad7          	vand.vv	v21,v2,v18
   17a28:	26238157          	vand.vv	v2,v2,v7
   17a2c:	261700d7          	vand.vv	v1,v1,v14
   17a30:	03588bd7          	vadd.vv	v23,v21,v17
   17a34:	62203057          	vmseq.vi	v0,v2,0
   17a38:	66203b57          	vmsne.vi	v22,v2,0
   17a3c:	62238157          	vmseq.vv	v2,v2,v7
   17a40:	017491d7          	vfadd.vv	v3,v23,v9,v0.t
   17a44:	9f603057          	vmv1r.v	v0,v22
   17a48:	00878793          	addi	a5,a5,8
   17a4c:	015801d7          	vadd.vv	v3,v21,v16,v0.t
   17a50:	9e203057          	vmv1r.v	v0,v2
   17a54:	015781d7          	vadd.vv	v3,v21,v15,v0.t
   17a58:	2a1180d7          	vor.vv	v1,v1,v3
   17a5c:	9e4031d7          	vmv1r.v	v3,v4
   17a60:	2a1090d7          	vfabs.v	v1,v1
   17a64:	26d08157          	vand.vv	v2,v13,v1
   17a68:	0cf07057          	vsetvli	zero,zero,e16,mf2,ta,ma
   17a6c:	b21830d7          	vnsrl.wi	v1,v1,16
   17a70:	05007057          	vsetvli	zero,zero,e32,m1,ta,mu
   17a74:	a226bad7          	vsrl.vi	v21,v2,13
   17a78:	72230057          	vmsleu.vv	v0,v2,v6
   17a7c:	02258b57          	vadd.vv	v22,v2,v11
   17a80:	2750bad7          	vand.vi	v21,v21,1
   17a84:	002411d7          	vfadd.vv	v3,v2,v8,v0.t
   17a88:	6a610057          	vmsltu.vv	v0,v6,v2
   17a8c:	035b0ad7          	vadd.vv	v21,v21,v22
   17a90:	72228bd7          	vmsleu.vv	v23,v2,v5
   17a94:	6ac10b57          	vmsltu.vv	v22,v12,v2
   17a98:	a156b1d7          	vsrl.vi	v3,v21,13,v0.t
   17a9c:	6a510157          	vmsltu.vv	v2,v5,v2
   17aa0:	676ba057          	vmand.mm	v0,v22,v23
   17aa4:	0cf07057          	vsetvli	zero,zero,e16,mf2,ta,ma
   17aa8:	b23041d7          	vncvt.x.x.w	v3,v3
   17aac:	261500d7          	vand.vv	v1,v1,v10
   17ab0:	5c3a01d7          	vmerge.vvm	v3,v3,v20,v0
   17ab4:	9e203057          	vmv1r.v	v0,v2
   17ab8:	5c3981d7          	vmerge.vvm	v3,v3,v19,v0
   17abc:	2a1180d7          	vor.vv	v1,v1,v3
   17ac0:	0206d0a7          	vse16.v	v1,(a3)
   17ac4:	00868693          	addi	a3,a3,8
   17ac8:	f2c792e3          	bne	a5,a2,179ec <_ZN36UnaryTestAbsFloat16_fixed_fixed_Test8TestBodyEv+0xf4>
   17acc:	00c00613          	li	a2,12
   17ad0:	00021597          	auipc	a1,0x21
   17ad4:	dc058593          	addi	a1,a1,-576 # 38890 <_IO_stdin_used+0x238>
   17ad8:	00033517          	auipc	a0,0x33
   17adc:	0f053503          	ld	a0,240(a0) # 4abc8 <_ZSt4cout@Base>
   17ae0:	c21fd0ef          	jal	ra,15700 <_ZSt16__ostream_insertIcSt11char_traitsIcEERSt13basic_ostreamIT_T0_ES6_PKS3_l@plt>
   17ae4:	0004d783          	lhu	a5,0(s1)
   17ae8:	0f8006b7          	lui	a3,0xf800
   17aec:	0fffe5b7          	lui	a1,0xfffe
   17af0:	00d7971b          	slliw	a4,a5,0xd
   17af4:	00d77633          	and	a2,a4,a3
   17af8:	00b77733          	and	a4,a4,a1
   17afc:	22d60e63          	beq	a2,a3,17d38 <_ZN36UnaryTestAbsFloat16_fixed_fixed_Test8TestBodyEv+0x440>
   17b00:	1a060a63          	beqz	a2,17cb4 <_ZN36UnaryTestAbsFloat16_fixed_fixed_Test8TestBodyEv+0x3bc>
   17b04:	380006b7          	lui	a3,0x38000
   17b08:	00d706bb          	addw	a3,a4,a3
   17b0c:	0107971b          	slliw	a4,a5,0x10
   17b10:	800007b7          	lui	a5,0x80000
   17b14:	00f77733          	and	a4,a4,a5
   17b18:	00d76733          	or	a4,a4,a3
   17b1c:	f00707d3          	fmv.w.x	fa5,a4
   17b20:	00010513          	mv	a0,sp
   17b24:	00021697          	auipc	a3,0x21
   17b28:	d6468693          	addi	a3,a3,-668 # 38888 <_IO_stdin_used+0x230>
   17b2c:	420787d3          	fcvt.d.s	fa5,fa5
   17b30:	03a00613          	li	a2,58
   17b34:	00033597          	auipc	a1,0x33
   17b38:	1bc5b583          	ld	a1,444(a1) # 4acf0 <vsnprintf@GLIBC_2.27>
   17b3c:	e2078753          	fmv.x.d	a4,fa5
   17b40:	01010913          	addi	s2,sp,16
   17b44:	00010993          	mv	s3,sp
   17b48:	de9fe0ef          	jal	ra,16930 <_ZN9__gnu_cxx12__to_xstringINSt7__cxx1112basic_stringIcSt11char_traitsIcESaIcEEEcEET_PFiPT0_mPKS8_PvEmSB_z>
   17b4c:	00813603          	ld	a2,8(sp)
   17b50:	00013583          	ld	a1,0(sp)
   17b54:	00033517          	auipc	a0,0x33
   17b58:	07453503          	ld	a0,116(a0) # 4abc8 <_ZSt4cout@Base>
   17b5c:	ba5fd0ef          	jal	ra,15700 <_ZSt16__ostream_insertIcSt11char_traitsIcEERSt13basic_ostreamIT_T0_ES6_PKS3_l@plt>
   17b60:	00013503          	ld	a0,0(sp)
   17b64:	01250863          	beq	a0,s2,17b74 <_ZN36UnaryTestAbsFloat16_fixed_fixed_Test8TestBodyEv+0x27c>
   17b68:	01013583          	ld	a1,16(sp)
   17b6c:	00158593          	addi	a1,a1,1
   17b70:	bd1fd0ef          	jal	ra,15740 <_ZdlPvm@plt>
   17b74:	00033a17          	auipc	s4,0x33
   17b78:	054a3a03          	ld	s4,84(s4) # 4abc8 <_ZSt4cout@Base>
   17b7c:	000a3783          	ld	a5,0(s4)
   17b80:	fe87b783          	ld	a5,-24(a5) # ffffffff7fffffe8 <__global_pointer$+0xffffffff7ffb4258>
   17b84:	00fa07b3          	add	a5,s4,a5
   17b88:	0f07ba83          	ld	s5,240(a5)
   17b8c:	1e0a8463          	beqz	s5,17d74 <_ZN36UnaryTestAbsFloat16_fixed_fixed_Test8TestBodyEv+0x47c>
   17b90:	038ac783          	lbu	a5,56(s5)
   17b94:	14078263          	beqz	a5,17cd8 <_ZN36UnaryTestAbsFloat16_fixed_fixed_Test8TestBodyEv+0x3e0>
   17b98:	043ac583          	lbu	a1,67(s5)
   17b9c:	00033517          	auipc	a0,0x33
   17ba0:	02c53503          	ld	a0,44(a0) # 4abc8 <_ZSt4cout@Base>
   17ba4:	d7dfd0ef          	jal	ra,15920 <_ZNSo3putEc@plt>
   17ba8:	8d8fe0ef          	jal	ra,15c80 <_ZNSo5flushEv@plt>
   17bac:	00b00613          	li	a2,11
   17bb0:	00021597          	auipc	a1,0x21
   17bb4:	cf058593          	addi	a1,a1,-784 # 388a0 <_IO_stdin_used+0x248>
   17bb8:	00033517          	auipc	a0,0x33
   17bbc:	01053503          	ld	a0,16(a0) # 4abc8 <_ZSt4cout@Base>
   17bc0:	b41fd0ef          	jal	ra,15700 <_ZSt16__ostream_insertIcSt11char_traitsIcEERSt13basic_ostreamIT_T0_ES6_PKS3_l@plt>
   17bc4:	00045783          	lhu	a5,0(s0)
   17bc8:	0f8006b7          	lui	a3,0xf800
   17bcc:	0fffe5b7          	lui	a1,0xfffe
   17bd0:	00d7971b          	slliw	a4,a5,0xd
   17bd4:	00d77633          	and	a2,a4,a3
   17bd8:	00b77733          	and	a4,a4,a1
   17bdc:	16d60463          	beq	a2,a3,17d44 <_ZN36UnaryTestAbsFloat16_fixed_fixed_Test8TestBodyEv+0x44c>
   17be0:	16060863          	beqz	a2,17d50 <_ZN36UnaryTestAbsFloat16_fixed_fixed_Test8TestBodyEv+0x458>
   17be4:	380006b7          	lui	a3,0x38000
   17be8:	00d706bb          	addw	a3,a4,a3
   17bec:	0107971b          	slliw	a4,a5,0x10
   17bf0:	800007b7          	lui	a5,0x80000
   17bf4:	00f77733          	and	a4,a4,a5
   17bf8:	00d76733          	or	a4,a4,a3
   17bfc:	f00707d3          	fmv.w.x	fa5,a4
   17c00:	00098513          	mv	a0,s3
   17c04:	00021697          	auipc	a3,0x21
   17c08:	c8468693          	addi	a3,a3,-892 # 38888 <_IO_stdin_used+0x230>
   17c0c:	420787d3          	fcvt.d.s	fa5,fa5
   17c10:	03a00613          	li	a2,58
   17c14:	00033597          	auipc	a1,0x33
   17c18:	0dc5b583          	ld	a1,220(a1) # 4acf0 <vsnprintf@GLIBC_2.27>
   17c1c:	e2078753          	fmv.x.d	a4,fa5
   17c20:	d11fe0ef          	jal	ra,16930 <_ZN9__gnu_cxx12__to_xstringINSt7__cxx1112basic_stringIcSt11char_traitsIcESaIcEEEcEET_PFiPT0_mPKS8_PvEmSB_z>
   17c24:	00813603          	ld	a2,8(sp)
   17c28:	00013583          	ld	a1,0(sp)
   17c2c:	00033517          	auipc	a0,0x33
   17c30:	f9c53503          	ld	a0,-100(a0) # 4abc8 <_ZSt4cout@Base>
   17c34:	acdfd0ef          	jal	ra,15700 <_ZSt16__ostream_insertIcSt11char_traitsIcEERSt13basic_ostreamIT_T0_ES6_PKS3_l@plt>
   17c38:	00013503          	ld	a0,0(sp)
   17c3c:	01250863          	beq	a0,s2,17c4c <_ZN36UnaryTestAbsFloat16_fixed_fixed_Test8TestBodyEv+0x354>
   17c40:	01013583          	ld	a1,16(sp)
   17c44:	00158593          	addi	a1,a1,1
   17c48:	af9fd0ef          	jal	ra,15740 <_ZdlPvm@plt>
   17c4c:	000a3783          	ld	a5,0(s4)
   17c50:	fe87b783          	ld	a5,-24(a5) # ffffffff7fffffe8 <__global_pointer$+0xffffffff7ffb4258>
   17c54:	00fa0a33          	add	s4,s4,a5
   17c58:	0f0a3903          	ld	s2,240(s4)
   17c5c:	10090c63          	beqz	s2,17d74 <_ZN36UnaryTestAbsFloat16_fixed_fixed_Test8TestBodyEv+0x47c>
   17c60:	03894783          	lbu	a5,56(s2)
   17c64:	0a078263          	beqz	a5,17d08 <_ZN36UnaryTestAbsFloat16_fixed_fixed_Test8TestBodyEv+0x410>
   17c68:	04394583          	lbu	a1,67(s2)
   17c6c:	00033517          	auipc	a0,0x33
   17c70:	f5c53503          	ld	a0,-164(a0) # 4abc8 <_ZSt4cout@Base>
   17c74:	cadfd0ef          	jal	ra,15920 <_ZNSo3putEc@plt>
   17c78:	808fe0ef          	jal	ra,15c80 <_ZNSo5flushEv@plt>
   17c7c:	00048513          	mv	a0,s1
   17c80:	60000593          	li	a1,1536
   17c84:	abdfd0ef          	jal	ra,15740 <_ZdlPvm@plt>
   17c88:	00040513          	mv	a0,s0
   17c8c:	05013403          	ld	s0,80(sp)
   17c90:	05813083          	ld	ra,88(sp)
   17c94:	04813483          	ld	s1,72(sp)
   17c98:	04013903          	ld	s2,64(sp)
   17c9c:	03813983          	ld	s3,56(sp)
   17ca0:	03013a03          	ld	s4,48(sp)
   17ca4:	02813a83          	ld	s5,40(sp)
   17ca8:	60000593          	li	a1,1536
   17cac:	06010113          	addi	sp,sp,96
   17cb0:	a91fd06f          	j	15740 <_ZdlPvm@plt>
   17cb4:	00021697          	auipc	a3,0x21
   17cb8:	9ac6a787          	flw	fa5,-1620(a3) # 38660 <_IO_stdin_used+0x8>
   17cbc:	388006b7          	lui	a3,0x38800
   17cc0:	00d706b3          	add	a3,a4,a3
   17cc4:	f0068753          	fmv.w.x	fa4,a3
   17cc8:	08f777d3          	fsub.s	fa5,fa4,fa5
   17ccc:	e00786d3          	fmv.x.w	a3,fa5
   17cd0:	0006869b          	sext.w	a3,a3
   17cd4:	e39ff06f          	j	17b0c <_ZN36UnaryTestAbsFloat16_fixed_fixed_Test8TestBodyEv+0x214>
   17cd8:	000a8513          	mv	a0,s5
   17cdc:	935fd0ef          	jal	ra,15610 <_ZNKSt5ctypeIcE13_M_widen_initEv@plt>
   17ce0:	000ab783          	ld	a5,0(s5)
   17ce4:	fffff717          	auipc	a4,0xfffff
   17ce8:	ae070713          	addi	a4,a4,-1312 # 167c4 <_ZNKSt5ctypeIcE8do_widenEc>
   17cec:	00a00593          	li	a1,10
   17cf0:	0307b783          	ld	a5,48(a5)
   17cf4:	eae784e3          	beq	a5,a4,17b9c <_ZN36UnaryTestAbsFloat16_fixed_fixed_Test8TestBodyEv+0x2a4>
   17cf8:	000a8513          	mv	a0,s5
   17cfc:	000780e7          	jalr	a5
   17d00:	00050593          	mv	a1,a0
   17d04:	e99ff06f          	j	17b9c <_ZN36UnaryTestAbsFloat16_fixed_fixed_Test8TestBodyEv+0x2a4>
   17d08:	00090513          	mv	a0,s2
   17d0c:	905fd0ef          	jal	ra,15610 <_ZNKSt5ctypeIcE13_M_widen_initEv@plt>
   17d10:	00093783          	ld	a5,0(s2)
   17d14:	fffff717          	auipc	a4,0xfffff
   17d18:	ab070713          	addi	a4,a4,-1360 # 167c4 <_ZNKSt5ctypeIcE8do_widenEc>
   17d1c:	00a00593          	li	a1,10
   17d20:	0307b783          	ld	a5,48(a5)
   17d24:	f4e784e3          	beq	a5,a4,17c6c <_ZN36UnaryTestAbsFloat16_fixed_fixed_Test8TestBodyEv+0x374>
   17d28:	00090513          	mv	a0,s2
   17d2c:	000780e7          	jalr	a5
   17d30:	00050593          	mv	a1,a0
   17d34:	f39ff06f          	j	17c6c <_ZN36UnaryTestAbsFloat16_fixed_fixed_Test8TestBodyEv+0x374>
   17d38:	700006b7          	lui	a3,0x70000
   17d3c:	00d706bb          	addw	a3,a4,a3
   17d40:	dcdff06f          	j	17b0c <_ZN36UnaryTestAbsFloat16_fixed_fixed_Test8TestBodyEv+0x214>
   17d44:	700006b7          	lui	a3,0x70000
   17d48:	00d706bb          	addw	a3,a4,a3
   17d4c:	ea1ff06f          	j	17bec <_ZN36UnaryTestAbsFloat16_fixed_fixed_Test8TestBodyEv+0x2f4>
   17d50:	00021697          	auipc	a3,0x21
   17d54:	9106a787          	flw	fa5,-1776(a3) # 38660 <_IO_stdin_used+0x8>
   17d58:	388006b7          	lui	a3,0x38800
   17d5c:	00d706b3          	add	a3,a4,a3
   17d60:	f0068753          	fmv.w.x	fa4,a3
   17d64:	08f777d3          	fsub.s	fa5,fa4,fa5
   17d68:	e00786d3          	fmv.x.w	a3,fa5
   17d6c:	0006869b          	sext.w	a3,a3
   17d70:	e7dff06f          	j	17bec <_ZN36UnaryTestAbsFloat16_fixed_fixed_Test8TestBodyEv+0x2f4>
   17d74:	a2dfd0ef          	jal	ra,157a0 <_ZSt16__throw_bad_castv@plt>

0000000000017d78 <_ZN7testing4Test5SetUpEv>:
   17d78:	8082                	ret

0000000000017d7a <_ZNK7testing9TestSuite30reportable_disabled_test_countEv>:
   17d7a:	791c                	ld	a5,48(a0)
   17d7c:	7d10                	ld	a2,56(a0)
   17d7e:	4501                	li	a0,0
   17d80:	02c78063          	beq	a5,a2,17da0 <_ZNK7testing9TestSuite30reportable_disabled_test_countEv+0x26>
   17d84:	6398                	ld	a4,0(a5)
   17d86:	07a1                	addi	a5,a5,8
   17d88:	08274683          	lbu	a3,130(a4)
   17d8c:	c699                	beqz	a3,17d9a <_ZNK7testing9TestSuite30reportable_disabled_test_countEv+0x20>
   17d8e:	08374683          	lbu	a3,131(a4)
   17d92:	e681                	bnez	a3,17d9a <_ZNK7testing9TestSuite30reportable_disabled_test_countEv+0x20>
   17d94:	08174703          	lbu	a4,129(a4)
   17d98:	9d39                	addw	a0,a0,a4
   17d9a:	fef615e3          	bne	a2,a5,17d84 <_ZNK7testing9TestSuite30reportable_disabled_test_countEv+0xa>
   17d9e:	8082                	ret
   17da0:	8082                	ret

0000000000017da2 <_ZNK7testing9TestSuite21reportable_test_countEv>:
   17da2:	791c                	ld	a5,48(a0)
   17da4:	7d10                	ld	a2,56(a0)
   17da6:	4501                	li	a0,0
   17da8:	00c78e63          	beq	a5,a2,17dc4 <_ZNK7testing9TestSuite21reportable_test_countEv+0x22>
   17dac:	6398                	ld	a4,0(a5)
   17dae:	07a1                	addi	a5,a5,8
   17db0:	08274683          	lbu	a3,130(a4)
   17db4:	c689                	beqz	a3,17dbe <_ZNK7testing9TestSuite21reportable_test_countEv+0x1c>
   17db6:	08374703          	lbu	a4,131(a4)
   17dba:	e311                	bnez	a4,17dbe <_ZNK7testing9TestSuite21reportable_test_countEv+0x1c>
   17dbc:	2505                	addiw	a0,a0,1
   17dbe:	fef617e3          	bne	a2,a5,17dac <_ZNK7testing9TestSuite21reportable_test_countEv+0xa>
   17dc2:	8082                	ret
   17dc4:	8082                	ret

0000000000017dc6 <_ZNK7testing9TestSuite16total_test_countEv>:
   17dc6:	7d1c                	ld	a5,56(a0)
   17dc8:	7918                	ld	a4,48(a0)
   17dca:	40e78533          	sub	a0,a5,a4
   17dce:	850d                	srai	a0,a0,0x3
   17dd0:	2501                	sext.w	a0,a0
   17dd2:	8082                	ret

0000000000017dd4 <_ZN7testing8internalL21StackLowerThanAddressEPKvPb>:
   17dd4:	1141                	addi	sp,sp,-16
   17dd6:	007c                	addi	a5,sp,12
   17dd8:	00a7b7b3          	sltu	a5,a5,a0
   17ddc:	00f58023          	sb	a5,0(a1)
   17de0:	0141                	addi	sp,sp,16
   17de2:	8082                	ret

0000000000017de4 <_ZN7testing8internal24HasNewFatalFailureHelper20ReportTestPartResultERKNS_14TestPartResultE>:
   17de4:	4198                	lw	a4,0(a1)
   17de6:	4789                	li	a5,2
   17de8:	00f71563          	bne	a4,a5,17df2 <_ZN7testing8internal24HasNewFatalFailureHelper20ReportTestPartResultERKNS_14TestPartResultE+0xe>
   17dec:	4785                	li	a5,1
   17dee:	00f50423          	sb	a5,8(a0)
   17df2:	6908                	ld	a0,16(a0)
   17df4:	611c                	ld	a5,0(a0)
   17df6:	6b9c                	ld	a5,16(a5)
   17df8:	8782                	jr	a5

0000000000017dfa <_ZN7testing8internal17TestEventRepeaterD1Ev>:
   17dfa:	1101                	addi	sp,sp,-32
   17dfc:	e822                	sd	s0,16(sp)
   17dfe:	e426                	sd	s1,8(sp)
   17e00:	00033797          	auipc	a5,0x33
   17e04:	f307b783          	ld	a5,-208(a5) # 4ad30 <_GLOBAL_OFFSET_TABLE_+0x1e0>
   17e08:	6900                	ld	s0,16(a0)
   17e0a:	6d04                	ld	s1,24(a0)
   17e0c:	ec06                	sd	ra,24(sp)
   17e0e:	07c1                	addi	a5,a5,16
   17e10:	e11c                	sd	a5,0(a0)
   17e12:	02940063          	beq	s0,s1,17e32 <_ZN7testing8internal17TestEventRepeaterD1Ev+0x38>
   17e16:	e04a                	sd	s2,0(sp)
   17e18:	892a                	mv	s2,a0
   17e1a:	601c                	ld	a5,0(s0)
   17e1c:	853e                	mv	a0,a5
   17e1e:	c781                	beqz	a5,17e26 <_ZN7testing8internal17TestEventRepeaterD1Ev+0x2c>
   17e20:	639c                	ld	a5,0(a5)
   17e22:	679c                	ld	a5,8(a5)
   17e24:	9782                	jalr	a5
   17e26:	0421                	addi	s0,s0,8
   17e28:	fe8499e3          	bne	s1,s0,17e1a <_ZN7testing8internal17TestEventRepeaterD1Ev+0x20>
   17e2c:	01093483          	ld	s1,16(s2)
   17e30:	6902                	ld	s2,0(sp)
   17e32:	c881                	beqz	s1,17e42 <_ZN7testing8internal17TestEventRepeaterD1Ev+0x48>
   17e34:	6442                	ld	s0,16(sp)
   17e36:	60e2                	ld	ra,24(sp)
   17e38:	8526                	mv	a0,s1
   17e3a:	64a2                	ld	s1,8(sp)
   17e3c:	6105                	addi	sp,sp,32
   17e3e:	ac3fd06f          	j	15900 <_ZdlPv@plt>
   17e42:	60e2                	ld	ra,24(sp)
   17e44:	6442                	ld	s0,16(sp)
   17e46:	64a2                	ld	s1,8(sp)
   17e48:	6105                	addi	sp,sp,32
   17e4a:	8082                	ret

0000000000017e4c <_ZN7testing8internal17TestEventRepeaterD0Ev>:
   17e4c:	1141                	addi	sp,sp,-16
   17e4e:	e022                	sd	s0,0(sp)
   17e50:	e406                	sd	ra,8(sp)
   17e52:	842a                	mv	s0,a0
   17e54:	fa7ff0ef          	jal	ra,17dfa <_ZN7testing8internal17TestEventRepeaterD1Ev>
   17e58:	8522                	mv	a0,s0
   17e5a:	6402                	ld	s0,0(sp)
   17e5c:	60a2                	ld	ra,8(sp)
   17e5e:	0141                	addi	sp,sp,16
   17e60:	aa1fd06f          	j	15900 <_ZdlPv@plt>

0000000000017e64 <_ZN7testing8internal17TestEventRepeater18OnTestProgramStartERKNS_8UnitTestE>:
   17e64:	00854783          	lbu	a5,8(a0)
   17e68:	c3b1                	beqz	a5,17eac <_ZN7testing8internal17TestEventRepeater18OnTestProgramStartERKNS_8UnitTestE+0x48>
   17e6a:	6918                	ld	a4,16(a0)
   17e6c:	6d1c                	ld	a5,24(a0)
   17e6e:	1101                	addi	sp,sp,-32
   17e70:	e426                	sd	s1,8(sp)
   17e72:	ec06                	sd	ra,24(sp)
   17e74:	84aa                	mv	s1,a0
   17e76:	02e78763          	beq	a5,a4,17ea4 <_ZN7testing8internal17TestEventRepeater18OnTestProgramStartERKNS_8UnitTestE+0x40>
   17e7a:	e822                	sd	s0,16(sp)
   17e7c:	e04a                	sd	s2,0(sp)
   17e7e:	4401                	li	s0,0
   17e80:	892e                	mv	s2,a1
   17e82:	00341793          	slli	a5,s0,0x3
   17e86:	973e                	add	a4,a4,a5
   17e88:	6308                	ld	a0,0(a4)
   17e8a:	85ca                	mv	a1,s2
   17e8c:	0405                	addi	s0,s0,1
   17e8e:	611c                	ld	a5,0(a0)
   17e90:	6b9c                	ld	a5,16(a5)
   17e92:	9782                	jalr	a5
   17e94:	6898                	ld	a4,16(s1)
   17e96:	6c9c                	ld	a5,24(s1)
   17e98:	8f99                	sub	a5,a5,a4
   17e9a:	878d                	srai	a5,a5,0x3
   17e9c:	fef463e3          	bltu	s0,a5,17e82 <_ZN7testing8internal17TestEventRepeater18OnTestProgramStartERKNS_8UnitTestE+0x1e>
   17ea0:	6442                	ld	s0,16(sp)
   17ea2:	6902                	ld	s2,0(sp)
   17ea4:	60e2                	ld	ra,24(sp)
   17ea6:	64a2                	ld	s1,8(sp)
   17ea8:	6105                	addi	sp,sp,32
   17eaa:	8082                	ret
   17eac:	8082                	ret

0000000000017eae <_ZN7testing8internal17TestEventRepeater24OnEnvironmentsSetUpStartERKNS_8UnitTestE>:
   17eae:	00854783          	lbu	a5,8(a0)
   17eb2:	c3b1                	beqz	a5,17ef6 <_ZN7testing8internal17TestEventRepeater24OnEnvironmentsSetUpStartERKNS_8UnitTestE+0x48>
   17eb4:	6918                	ld	a4,16(a0)
   17eb6:	6d1c                	ld	a5,24(a0)
   17eb8:	1101                	addi	sp,sp,-32
   17eba:	e426                	sd	s1,8(sp)
   17ebc:	ec06                	sd	ra,24(sp)
   17ebe:	84aa                	mv	s1,a0
   17ec0:	02e78763          	beq	a5,a4,17eee <_ZN7testing8internal17TestEventRepeater24OnEnvironmentsSetUpStartERKNS_8UnitTestE+0x40>
   17ec4:	e822                	sd	s0,16(sp)
   17ec6:	e04a                	sd	s2,0(sp)
   17ec8:	4401                	li	s0,0
   17eca:	892e                	mv	s2,a1
   17ecc:	00341793          	slli	a5,s0,0x3
   17ed0:	973e                	add	a4,a4,a5
   17ed2:	6308                	ld	a0,0(a4)
   17ed4:	85ca                	mv	a1,s2
   17ed6:	0405                	addi	s0,s0,1
   17ed8:	611c                	ld	a5,0(a0)
   17eda:	739c                	ld	a5,32(a5)
   17edc:	9782                	jalr	a5
   17ede:	6898                	ld	a4,16(s1)
   17ee0:	6c9c                	ld	a5,24(s1)
   17ee2:	8f99                	sub	a5,a5,a4
   17ee4:	878d                	srai	a5,a5,0x3
   17ee6:	fef463e3          	bltu	s0,a5,17ecc <_ZN7testing8internal17TestEventRepeater24OnEnvironmentsSetUpStartERKNS_8UnitTestE+0x1e>
   17eea:	6442                	ld	s0,16(sp)
   17eec:	6902                	ld	s2,0(sp)
   17eee:	60e2                	ld	ra,24(sp)
   17ef0:	64a2                	ld	s1,8(sp)
   17ef2:	6105                	addi	sp,sp,32
   17ef4:	8082                	ret
   17ef6:	8082                	ret

0000000000017ef8 <_ZN7testing8internal17TestEventRepeater15OnTestCaseStartERKNS_9TestSuiteE>:
   17ef8:	00854783          	lbu	a5,8(a0)
   17efc:	c3b1                	beqz	a5,17f40 <_ZN7testing8internal17TestEventRepeater15OnTestCaseStartERKNS_9TestSuiteE+0x48>
   17efe:	6918                	ld	a4,16(a0)
   17f00:	6d1c                	ld	a5,24(a0)
   17f02:	1101                	addi	sp,sp,-32
   17f04:	e426                	sd	s1,8(sp)
   17f06:	ec06                	sd	ra,24(sp)
   17f08:	84aa                	mv	s1,a0
   17f0a:	02e78763          	beq	a5,a4,17f38 <_ZN7testing8internal17TestEventRepeater15OnTestCaseStartERKNS_9TestSuiteE+0x40>
   17f0e:	e822                	sd	s0,16(sp)
   17f10:	e04a                	sd	s2,0(sp)
   17f12:	4401                	li	s0,0
   17f14:	892e                	mv	s2,a1
   17f16:	00341793          	slli	a5,s0,0x3
   17f1a:	973e                	add	a4,a4,a5
   17f1c:	6308                	ld	a0,0(a4)
   17f1e:	85ca                	mv	a1,s2
   17f20:	0405                	addi	s0,s0,1
   17f22:	611c                	ld	a5,0(a0)
   17f24:	7f9c                	ld	a5,56(a5)
   17f26:	9782                	jalr	a5
   17f28:	6898                	ld	a4,16(s1)
   17f2a:	6c9c                	ld	a5,24(s1)
   17f2c:	8f99                	sub	a5,a5,a4
   17f2e:	878d                	srai	a5,a5,0x3
   17f30:	fef463e3          	bltu	s0,a5,17f16 <_ZN7testing8internal17TestEventRepeater15OnTestCaseStartERKNS_9TestSuiteE+0x1e>
   17f34:	6442                	ld	s0,16(sp)
   17f36:	6902                	ld	s2,0(sp)
   17f38:	60e2                	ld	ra,24(sp)
   17f3a:	64a2                	ld	s1,8(sp)
   17f3c:	6105                	addi	sp,sp,32
   17f3e:	8082                	ret
   17f40:	8082                	ret

0000000000017f42 <_ZN7testing8internal17TestEventRepeater16OnTestSuiteStartERKNS_9TestSuiteE>:
   17f42:	00854783          	lbu	a5,8(a0)
   17f46:	c3b1                	beqz	a5,17f8a <_ZN7testing8internal17TestEventRepeater16OnTestSuiteStartERKNS_9TestSuiteE+0x48>
   17f48:	6918                	ld	a4,16(a0)
   17f4a:	6d1c                	ld	a5,24(a0)
   17f4c:	1101                	addi	sp,sp,-32
   17f4e:	e426                	sd	s1,8(sp)
   17f50:	ec06                	sd	ra,24(sp)
   17f52:	84aa                	mv	s1,a0
   17f54:	02e78763          	beq	a5,a4,17f82 <_ZN7testing8internal17TestEventRepeater16OnTestSuiteStartERKNS_9TestSuiteE+0x40>
   17f58:	e822                	sd	s0,16(sp)
   17f5a:	e04a                	sd	s2,0(sp)
   17f5c:	4401                	li	s0,0
   17f5e:	892e                	mv	s2,a1
   17f60:	00341793          	slli	a5,s0,0x3
   17f64:	973e                	add	a4,a4,a5
   17f66:	6308                	ld	a0,0(a4)
   17f68:	85ca                	mv	a1,s2
   17f6a:	0405                	addi	s0,s0,1
   17f6c:	611c                	ld	a5,0(a0)
   17f6e:	7b9c                	ld	a5,48(a5)
   17f70:	9782                	jalr	a5
   17f72:	6898                	ld	a4,16(s1)
   17f74:	6c9c                	ld	a5,24(s1)
   17f76:	8f99                	sub	a5,a5,a4
   17f78:	878d                	srai	a5,a5,0x3
   17f7a:	fef463e3          	bltu	s0,a5,17f60 <_ZN7testing8internal17TestEventRepeater16OnTestSuiteStartERKNS_9TestSuiteE+0x1e>
   17f7e:	6442                	ld	s0,16(sp)
   17f80:	6902                	ld	s2,0(sp)
   17f82:	60e2                	ld	ra,24(sp)
   17f84:	64a2                	ld	s1,8(sp)
   17f86:	6105                	addi	sp,sp,32
   17f88:	8082                	ret
   17f8a:	8082                	ret

0000000000017f8c <_ZN7testing8internal17TestEventRepeater11OnTestStartERKNS_8TestInfoE>:
   17f8c:	00854783          	lbu	a5,8(a0)
   17f90:	c3b1                	beqz	a5,17fd4 <_ZN7testing8internal17TestEventRepeater11OnTestStartERKNS_8TestInfoE+0x48>
   17f92:	6918                	ld	a4,16(a0)
   17f94:	6d1c                	ld	a5,24(a0)
   17f96:	1101                	addi	sp,sp,-32
   17f98:	e426                	sd	s1,8(sp)
   17f9a:	ec06                	sd	ra,24(sp)
   17f9c:	84aa                	mv	s1,a0
   17f9e:	02e78763          	beq	a5,a4,17fcc <_ZN7testing8internal17TestEventRepeater11OnTestStartERKNS_8TestInfoE+0x40>
   17fa2:	e822                	sd	s0,16(sp)
   17fa4:	e04a                	sd	s2,0(sp)
   17fa6:	4401                	li	s0,0
   17fa8:	892e                	mv	s2,a1
   17faa:	00341793          	slli	a5,s0,0x3
   17fae:	973e                	add	a4,a4,a5
   17fb0:	6308                	ld	a0,0(a4)
   17fb2:	85ca                	mv	a1,s2
   17fb4:	0405                	addi	s0,s0,1
   17fb6:	611c                	ld	a5,0(a0)
   17fb8:	63bc                	ld	a5,64(a5)
   17fba:	9782                	jalr	a5
   17fbc:	6898                	ld	a4,16(s1)
   17fbe:	6c9c                	ld	a5,24(s1)
   17fc0:	8f99                	sub	a5,a5,a4
   17fc2:	878d                	srai	a5,a5,0x3
   17fc4:	fef463e3          	bltu	s0,a5,17faa <_ZN7testing8internal17TestEventRepeater11OnTestStartERKNS_8TestInfoE+0x1e>
   17fc8:	6442                	ld	s0,16(sp)
   17fca:	6902                	ld	s2,0(sp)
   17fcc:	60e2                	ld	ra,24(sp)
   17fce:	64a2                	ld	s1,8(sp)
   17fd0:	6105                	addi	sp,sp,32
   17fd2:	8082                	ret
   17fd4:	8082                	ret

0000000000017fd6 <_ZN7testing8internal17TestEventRepeater16OnTestPartResultERKNS_14TestPartResultE>:
   17fd6:	00854783          	lbu	a5,8(a0)
   17fda:	c3b1                	beqz	a5,1801e <_ZN7testing8internal17TestEventRepeater16OnTestPartResultERKNS_14TestPartResultE+0x48>
   17fdc:	6918                	ld	a4,16(a0)
   17fde:	6d1c                	ld	a5,24(a0)
   17fe0:	1101                	addi	sp,sp,-32
   17fe2:	e426                	sd	s1,8(sp)
   17fe4:	ec06                	sd	ra,24(sp)
   17fe6:	84aa                	mv	s1,a0
   17fe8:	02e78763          	beq	a5,a4,18016 <_ZN7testing8internal17TestEventRepeater16OnTestPartResultERKNS_14TestPartResultE+0x40>
   17fec:	e822                	sd	s0,16(sp)
   17fee:	e04a                	sd	s2,0(sp)
   17ff0:	4401                	li	s0,0
   17ff2:	892e                	mv	s2,a1
   17ff4:	00341793          	slli	a5,s0,0x3
   17ff8:	973e                	add	a4,a4,a5
   17ffa:	6308                	ld	a0,0(a4)
   17ffc:	85ca                	mv	a1,s2
   17ffe:	0405                	addi	s0,s0,1
   18000:	611c                	ld	a5,0(a0)
   18002:	67bc                	ld	a5,72(a5)
   18004:	9782                	jalr	a5
   18006:	6898                	ld	a4,16(s1)
   18008:	6c9c                	ld	a5,24(s1)
   1800a:	8f99                	sub	a5,a5,a4
   1800c:	878d                	srai	a5,a5,0x3
   1800e:	fef463e3          	bltu	s0,a5,17ff4 <_ZN7testing8internal17TestEventRepeater16OnTestPartResultERKNS_14TestPartResultE+0x1e>
   18012:	6442                	ld	s0,16(sp)
   18014:	6902                	ld	s2,0(sp)
   18016:	60e2                	ld	ra,24(sp)
   18018:	64a2                	ld	s1,8(sp)
   1801a:	6105                	addi	sp,sp,32
   1801c:	8082                	ret
   1801e:	8082                	ret

0000000000018020 <_ZN7testing8internal17TestEventRepeater27OnEnvironmentsTearDownStartERKNS_8UnitTestE>:
   18020:	00854783          	lbu	a5,8(a0)
   18024:	c3b1                	beqz	a5,18068 <_ZN7testing8internal17TestEventRepeater27OnEnvironmentsTearDownStartERKNS_8UnitTestE+0x48>
   18026:	6918                	ld	a4,16(a0)
   18028:	6d1c                	ld	a5,24(a0)
   1802a:	1101                	addi	sp,sp,-32
   1802c:	e426                	sd	s1,8(sp)
   1802e:	ec06                	sd	ra,24(sp)
   18030:	84aa                	mv	s1,a0
   18032:	02e78763          	beq	a5,a4,18060 <_ZN7testing8internal17TestEventRepeater27OnEnvironmentsTearDownStartERKNS_8UnitTestE+0x40>
   18036:	e822                	sd	s0,16(sp)
   18038:	e04a                	sd	s2,0(sp)
   1803a:	4401                	li	s0,0
   1803c:	892e                	mv	s2,a1
   1803e:	00341793          	slli	a5,s0,0x3
   18042:	973e                	add	a4,a4,a5
   18044:	6308                	ld	a0,0(a4)
   18046:	85ca                	mv	a1,s2
   18048:	0405                	addi	s0,s0,1
   1804a:	611c                	ld	a5,0(a0)
   1804c:	77bc                	ld	a5,104(a5)
   1804e:	9782                	jalr	a5
   18050:	6898                	ld	a4,16(s1)
   18052:	6c9c                	ld	a5,24(s1)
   18054:	8f99                	sub	a5,a5,a4
   18056:	878d                	srai	a5,a5,0x3
   18058:	fef463e3          	bltu	s0,a5,1803e <_ZN7testing8internal17TestEventRepeater27OnEnvironmentsTearDownStartERKNS_8UnitTestE+0x1e>
   1805c:	6442                	ld	s0,16(sp)
   1805e:	6902                	ld	s2,0(sp)
   18060:	60e2                	ld	ra,24(sp)
   18062:	64a2                	ld	s1,8(sp)
   18064:	6105                	addi	sp,sp,32
   18066:	8082                	ret
   18068:	8082                	ret

000000000001806a <_ZN7testing8internal17TestEventRepeater22OnEnvironmentsSetUpEndERKNS_8UnitTestE>:
   1806a:	00854783          	lbu	a5,8(a0)
   1806e:	c7a1                	beqz	a5,180b6 <_ZN7testing8internal17TestEventRepeater22OnEnvironmentsSetUpEndERKNS_8UnitTestE+0x4c>
   18070:	1101                	addi	sp,sp,-32
   18072:	691c                	ld	a5,16(a0)
   18074:	e822                	sd	s0,16(sp)
   18076:	6d00                	ld	s0,24(a0)
   18078:	e426                	sd	s1,8(sp)
   1807a:	e04a                	sd	s2,0(sp)
   1807c:	8c1d                	sub	s0,s0,a5
   1807e:	ec06                	sd	ra,24(sp)
   18080:	840d                	srai	s0,s0,0x3
   18082:	84aa                	mv	s1,a0
   18084:	892e                	mv	s2,a1
   18086:	e801                	bnez	s0,18096 <_ZN7testing8internal17TestEventRepeater22OnEnvironmentsSetUpEndERKNS_8UnitTestE+0x2c>
   18088:	60e2                	ld	ra,24(sp)
   1808a:	6442                	ld	s0,16(sp)
   1808c:	64a2                	ld	s1,8(sp)
   1808e:	6902                	ld	s2,0(sp)
   18090:	6105                	addi	sp,sp,32
   18092:	8082                	ret
   18094:	689c                	ld	a5,16(s1)
   18096:	147d                	addi	s0,s0,-1
   18098:	00341713          	slli	a4,s0,0x3
   1809c:	97ba                	add	a5,a5,a4
   1809e:	6388                	ld	a0,0(a5)
   180a0:	85ca                	mv	a1,s2
   180a2:	611c                	ld	a5,0(a0)
   180a4:	779c                	ld	a5,40(a5)
   180a6:	9782                	jalr	a5
   180a8:	f475                	bnez	s0,18094 <_ZN7testing8internal17TestEventRepeater22OnEnvironmentsSetUpEndERKNS_8UnitTestE+0x2a>
   180aa:	60e2                	ld	ra,24(sp)
   180ac:	6442                	ld	s0,16(sp)
   180ae:	64a2                	ld	s1,8(sp)
   180b0:	6902                	ld	s2,0(sp)
   180b2:	6105                	addi	sp,sp,32
   180b4:	8082                	ret
   180b6:	8082                	ret

00000000000180b8 <_ZN7testing8internal17TestEventRepeater25OnEnvironmentsTearDownEndERKNS_8UnitTestE>:
   180b8:	00854783          	lbu	a5,8(a0)
   180bc:	c7a1                	beqz	a5,18104 <_ZN7testing8internal17TestEventRepeater25OnEnvironmentsTearDownEndERKNS_8UnitTestE+0x4c>
   180be:	1101                	addi	sp,sp,-32
   180c0:	691c                	ld	a5,16(a0)
   180c2:	e822                	sd	s0,16(sp)
   180c4:	6d00                	ld	s0,24(a0)
   180c6:	e426                	sd	s1,8(sp)
   180c8:	e04a                	sd	s2,0(sp)
   180ca:	8c1d                	sub	s0,s0,a5
   180cc:	ec06                	sd	ra,24(sp)
   180ce:	840d                	srai	s0,s0,0x3
   180d0:	84aa                	mv	s1,a0
   180d2:	892e                	mv	s2,a1
   180d4:	e801                	bnez	s0,180e4 <_ZN7testing8internal17TestEventRepeater25OnEnvironmentsTearDownEndERKNS_8UnitTestE+0x2c>
   180d6:	60e2                	ld	ra,24(sp)
   180d8:	6442                	ld	s0,16(sp)
   180da:	64a2                	ld	s1,8(sp)
   180dc:	6902                	ld	s2,0(sp)
   180de:	6105                	addi	sp,sp,32
   180e0:	8082                	ret
   180e2:	689c                	ld	a5,16(s1)
   180e4:	147d                	addi	s0,s0,-1
   180e6:	00341713          	slli	a4,s0,0x3
   180ea:	97ba                	add	a5,a5,a4
   180ec:	6388                	ld	a0,0(a5)
   180ee:	85ca                	mv	a1,s2
   180f0:	611c                	ld	a5,0(a0)
   180f2:	7bbc                	ld	a5,112(a5)
   180f4:	9782                	jalr	a5
   180f6:	f475                	bnez	s0,180e2 <_ZN7testing8internal17TestEventRepeater25OnEnvironmentsTearDownEndERKNS_8UnitTestE+0x2a>
   180f8:	60e2                	ld	ra,24(sp)
   180fa:	6442                	ld	s0,16(sp)
   180fc:	64a2                	ld	s1,8(sp)
   180fe:	6902                	ld	s2,0(sp)
   18100:	6105                	addi	sp,sp,32
   18102:	8082                	ret
   18104:	8082                	ret

0000000000018106 <_ZN7testing8internal17TestEventRepeater9OnTestEndERKNS_8TestInfoE>:
   18106:	00854783          	lbu	a5,8(a0)
   1810a:	c7a1                	beqz	a5,18152 <_ZN7testing8internal17TestEventRepeater9OnTestEndERKNS_8TestInfoE+0x4c>
   1810c:	1101                	addi	sp,sp,-32
   1810e:	691c                	ld	a5,16(a0)
   18110:	e822                	sd	s0,16(sp)
   18112:	6d00                	ld	s0,24(a0)
   18114:	e426                	sd	s1,8(sp)
   18116:	e04a                	sd	s2,0(sp)
   18118:	8c1d                	sub	s0,s0,a5
   1811a:	ec06                	sd	ra,24(sp)
   1811c:	840d                	srai	s0,s0,0x3
   1811e:	84aa                	mv	s1,a0
   18120:	892e                	mv	s2,a1
   18122:	e801                	bnez	s0,18132 <_ZN7testing8internal17TestEventRepeater9OnTestEndERKNS_8TestInfoE+0x2c>
   18124:	60e2                	ld	ra,24(sp)
   18126:	6442                	ld	s0,16(sp)
   18128:	64a2                	ld	s1,8(sp)
   1812a:	6902                	ld	s2,0(sp)
   1812c:	6105                	addi	sp,sp,32
   1812e:	8082                	ret
   18130:	689c                	ld	a5,16(s1)
   18132:	147d                	addi	s0,s0,-1
   18134:	00341713          	slli	a4,s0,0x3
   18138:	97ba                	add	a5,a5,a4
   1813a:	6388                	ld	a0,0(a5)
   1813c:	85ca                	mv	a1,s2
   1813e:	611c                	ld	a5,0(a0)
   18140:	6bbc                	ld	a5,80(a5)
   18142:	9782                	jalr	a5
   18144:	f475                	bnez	s0,18130 <_ZN7testing8internal17TestEventRepeater9OnTestEndERKNS_8TestInfoE+0x2a>
   18146:	60e2                	ld	ra,24(sp)
   18148:	6442                	ld	s0,16(sp)
   1814a:	64a2                	ld	s1,8(sp)
   1814c:	6902                	ld	s2,0(sp)
   1814e:	6105                	addi	sp,sp,32
   18150:	8082                	ret
   18152:	8082                	ret

0000000000018154 <_ZN7testing8internal17TestEventRepeater13OnTestCaseEndERKNS_9TestSuiteE>:
   18154:	00854783          	lbu	a5,8(a0)
   18158:	c7a1                	beqz	a5,181a0 <_ZN7testing8internal17TestEventRepeater13OnTestCaseEndERKNS_9TestSuiteE+0x4c>
   1815a:	1101                	addi	sp,sp,-32
   1815c:	691c                	ld	a5,16(a0)
   1815e:	e822                	sd	s0,16(sp)
   18160:	6d00                	ld	s0,24(a0)
   18162:	e426                	sd	s1,8(sp)
   18164:	e04a                	sd	s2,0(sp)
   18166:	8c1d                	sub	s0,s0,a5
   18168:	ec06                	sd	ra,24(sp)
   1816a:	840d                	srai	s0,s0,0x3
   1816c:	84aa                	mv	s1,a0
   1816e:	892e                	mv	s2,a1
   18170:	e801                	bnez	s0,18180 <_ZN7testing8internal17TestEventRepeater13OnTestCaseEndERKNS_9TestSuiteE+0x2c>
   18172:	60e2                	ld	ra,24(sp)
   18174:	6442                	ld	s0,16(sp)
   18176:	64a2                	ld	s1,8(sp)
   18178:	6902                	ld	s2,0(sp)
   1817a:	6105                	addi	sp,sp,32
   1817c:	8082                	ret
   1817e:	689c                	ld	a5,16(s1)
   18180:	147d                	addi	s0,s0,-1
   18182:	00341713          	slli	a4,s0,0x3
   18186:	97ba                	add	a5,a5,a4
   18188:	6388                	ld	a0,0(a5)
   1818a:	85ca                	mv	a1,s2
   1818c:	611c                	ld	a5,0(a0)
   1818e:	73bc                	ld	a5,96(a5)
   18190:	9782                	jalr	a5
   18192:	f475                	bnez	s0,1817e <_ZN7testing8internal17TestEventRepeater13OnTestCaseEndERKNS_9TestSuiteE+0x2a>
   18194:	60e2                	ld	ra,24(sp)
   18196:	6442                	ld	s0,16(sp)
   18198:	64a2                	ld	s1,8(sp)
   1819a:	6902                	ld	s2,0(sp)
   1819c:	6105                	addi	sp,sp,32
   1819e:	8082                	ret
   181a0:	8082                	ret

00000000000181a2 <_ZN7testing8internal17TestEventRepeater14OnTestSuiteEndERKNS_9TestSuiteE>:
   181a2:	00854783          	lbu	a5,8(a0)
   181a6:	c7a1                	beqz	a5,181ee <_ZN7testing8internal17TestEventRepeater14OnTestSuiteEndERKNS_9TestSuiteE+0x4c>
   181a8:	1101                	addi	sp,sp,-32
   181aa:	691c                	ld	a5,16(a0)
   181ac:	e822                	sd	s0,16(sp)
   181ae:	6d00                	ld	s0,24(a0)
   181b0:	e426                	sd	s1,8(sp)
   181b2:	e04a                	sd	s2,0(sp)
   181b4:	8c1d                	sub	s0,s0,a5
   181b6:	ec06                	sd	ra,24(sp)
   181b8:	840d                	srai	s0,s0,0x3
   181ba:	84aa                	mv	s1,a0
   181bc:	892e                	mv	s2,a1
   181be:	e801                	bnez	s0,181ce <_ZN7testing8internal17TestEventRepeater14OnTestSuiteEndERKNS_9TestSuiteE+0x2c>
   181c0:	60e2                	ld	ra,24(sp)
   181c2:	6442                	ld	s0,16(sp)
   181c4:	64a2                	ld	s1,8(sp)
   181c6:	6902                	ld	s2,0(sp)
   181c8:	6105                	addi	sp,sp,32
   181ca:	8082                	ret
   181cc:	689c                	ld	a5,16(s1)
   181ce:	147d                	addi	s0,s0,-1
   181d0:	00341713          	slli	a4,s0,0x3
   181d4:	97ba                	add	a5,a5,a4
   181d6:	6388                	ld	a0,0(a5)
   181d8:	85ca                	mv	a1,s2
   181da:	611c                	ld	a5,0(a0)
   181dc:	6fbc                	ld	a5,88(a5)
   181de:	9782                	jalr	a5
   181e0:	f475                	bnez	s0,181cc <_ZN7testing8internal17TestEventRepeater14OnTestSuiteEndERKNS_9TestSuiteE+0x2a>
   181e2:	60e2                	ld	ra,24(sp)
   181e4:	6442                	ld	s0,16(sp)
   181e6:	64a2                	ld	s1,8(sp)
   181e8:	6902                	ld	s2,0(sp)
   181ea:	6105                	addi	sp,sp,32
   181ec:	8082                	ret
   181ee:	8082                	ret

00000000000181f0 <_ZN7testing8internal17TestEventRepeater16OnTestProgramEndERKNS_8UnitTestE>:
   181f0:	00854783          	lbu	a5,8(a0)
   181f4:	c7a1                	beqz	a5,1823c <_ZN7testing8internal17TestEventRepeater16OnTestProgramEndERKNS_8UnitTestE+0x4c>
   181f6:	1101                	addi	sp,sp,-32
   181f8:	691c                	ld	a5,16(a0)
   181fa:	e822                	sd	s0,16(sp)
   181fc:	6d00                	ld	s0,24(a0)
   181fe:	e426                	sd	s1,8(sp)
   18200:	e04a                	sd	s2,0(sp)
   18202:	8c1d                	sub	s0,s0,a5
   18204:	ec06                	sd	ra,24(sp)
   18206:	840d                	srai	s0,s0,0x3
   18208:	84aa                	mv	s1,a0
   1820a:	892e                	mv	s2,a1
   1820c:	e801                	bnez	s0,1821c <_ZN7testing8internal17TestEventRepeater16OnTestProgramEndERKNS_8UnitTestE+0x2c>
   1820e:	60e2                	ld	ra,24(sp)
   18210:	6442                	ld	s0,16(sp)
   18212:	64a2                	ld	s1,8(sp)
   18214:	6902                	ld	s2,0(sp)
   18216:	6105                	addi	sp,sp,32
   18218:	8082                	ret
   1821a:	689c                	ld	a5,16(s1)
   1821c:	147d                	addi	s0,s0,-1
   1821e:	00341713          	slli	a4,s0,0x3
   18222:	97ba                	add	a5,a5,a4
   18224:	6388                	ld	a0,0(a5)
   18226:	85ca                	mv	a1,s2
   18228:	611c                	ld	a5,0(a0)
   1822a:	63dc                	ld	a5,128(a5)
   1822c:	9782                	jalr	a5
   1822e:	f475                	bnez	s0,1821a <_ZN7testing8internal17TestEventRepeater16OnTestProgramEndERKNS_8UnitTestE+0x2a>
   18230:	60e2                	ld	ra,24(sp)
   18232:	6442                	ld	s0,16(sp)
   18234:	64a2                	ld	s1,8(sp)
   18236:	6902                	ld	s2,0(sp)
   18238:	6105                	addi	sp,sp,32
   1823a:	8082                	ret
   1823c:	8082                	ret

000000000001823e <_ZN7testing8internal17TestEventRepeater20OnTestIterationStartERKNS_8UnitTestEi>:
   1823e:	00854783          	lbu	a5,8(a0)
   18242:	c7b1                	beqz	a5,1828e <_ZN7testing8internal17TestEventRepeater20OnTestIterationStartERKNS_8UnitTestEi+0x50>
   18244:	6918                	ld	a4,16(a0)
   18246:	6d1c                	ld	a5,24(a0)
   18248:	7179                	addi	sp,sp,-48
   1824a:	ec26                	sd	s1,24(sp)
   1824c:	f406                	sd	ra,40(sp)
   1824e:	84aa                	mv	s1,a0
   18250:	02e78b63          	beq	a5,a4,18286 <_ZN7testing8internal17TestEventRepeater20OnTestIterationStartERKNS_8UnitTestEi+0x48>
   18254:	f022                	sd	s0,32(sp)
   18256:	e84a                	sd	s2,16(sp)
   18258:	e44e                	sd	s3,8(sp)
   1825a:	892e                	mv	s2,a1
   1825c:	89b2                	mv	s3,a2
   1825e:	4401                	li	s0,0
   18260:	00341793          	slli	a5,s0,0x3
   18264:	973e                	add	a4,a4,a5
   18266:	6308                	ld	a0,0(a4)
   18268:	864e                	mv	a2,s3
   1826a:	85ca                	mv	a1,s2
   1826c:	611c                	ld	a5,0(a0)
   1826e:	0405                	addi	s0,s0,1
   18270:	6f9c                	ld	a5,24(a5)
   18272:	9782                	jalr	a5
   18274:	6898                	ld	a4,16(s1)
   18276:	6c9c                	ld	a5,24(s1)
   18278:	8f99                	sub	a5,a5,a4
   1827a:	878d                	srai	a5,a5,0x3
   1827c:	fef462e3          	bltu	s0,a5,18260 <_ZN7testing8internal17TestEventRepeater20OnTestIterationStartERKNS_8UnitTestEi+0x22>
   18280:	7402                	ld	s0,32(sp)
   18282:	6942                	ld	s2,16(sp)
   18284:	69a2                	ld	s3,8(sp)
   18286:	70a2                	ld	ra,40(sp)
   18288:	64e2                	ld	s1,24(sp)
   1828a:	6145                	addi	sp,sp,48
   1828c:	8082                	ret
   1828e:	8082                	ret

0000000000018290 <_ZN7testing8internal17TestEventRepeater18OnTestIterationEndERKNS_8UnitTestEi>:
   18290:	00854783          	lbu	a5,8(a0)
   18294:	cba9                	beqz	a5,182e6 <_ZN7testing8internal17TestEventRepeater18OnTestIterationEndERKNS_8UnitTestEi+0x56>
   18296:	7179                	addi	sp,sp,-48
   18298:	691c                	ld	a5,16(a0)
   1829a:	f022                	sd	s0,32(sp)
   1829c:	6d00                	ld	s0,24(a0)
   1829e:	ec26                	sd	s1,24(sp)
   182a0:	e84a                	sd	s2,16(sp)
   182a2:	8c1d                	sub	s0,s0,a5
   182a4:	e44e                	sd	s3,8(sp)
   182a6:	f406                	sd	ra,40(sp)
   182a8:	840d                	srai	s0,s0,0x3
   182aa:	84aa                	mv	s1,a0
   182ac:	892e                	mv	s2,a1
   182ae:	89b2                	mv	s3,a2
   182b0:	e809                	bnez	s0,182c2 <_ZN7testing8internal17TestEventRepeater18OnTestIterationEndERKNS_8UnitTestEi+0x32>
   182b2:	70a2                	ld	ra,40(sp)
   182b4:	7402                	ld	s0,32(sp)
   182b6:	64e2                	ld	s1,24(sp)
   182b8:	6942                	ld	s2,16(sp)
   182ba:	69a2                	ld	s3,8(sp)
   182bc:	6145                	addi	sp,sp,48
   182be:	8082                	ret
   182c0:	689c                	ld	a5,16(s1)
   182c2:	147d                	addi	s0,s0,-1
   182c4:	00341713          	slli	a4,s0,0x3
   182c8:	97ba                	add	a5,a5,a4
   182ca:	6388                	ld	a0,0(a5)
   182cc:	864e                	mv	a2,s3
   182ce:	85ca                	mv	a1,s2
   182d0:	611c                	ld	a5,0(a0)
   182d2:	7fbc                	ld	a5,120(a5)
   182d4:	9782                	jalr	a5
   182d6:	f46d                	bnez	s0,182c0 <_ZN7testing8internal17TestEventRepeater18OnTestIterationEndERKNS_8UnitTestEi+0x30>
   182d8:	70a2                	ld	ra,40(sp)
   182da:	7402                	ld	s0,32(sp)
   182dc:	64e2                	ld	s1,24(sp)
   182de:	6942                	ld	s2,16(sp)
   182e0:	69a2                	ld	s3,8(sp)
   182e2:	6145                	addi	sp,sp,48
   182e4:	8082                	ret
   182e6:	8082                	ret

00000000000182e8 <_ZNKSt7__cxx1112basic_stringIcSt11char_traitsIcESaIcEE7compareERKS4_.isra.0>:
   182e8:	1101                	addi	sp,sp,-32
   182ea:	e822                	sd	s0,16(sp)
   182ec:	e426                	sd	s1,8(sp)
   182ee:	842e                	mv	s0,a1
   182f0:	ec06                	sd	ra,24(sp)
   182f2:	85b2                	mv	a1,a2
   182f4:	84b6                	mv	s1,a3
   182f6:	8636                	mv	a2,a3
   182f8:	0086e363          	bltu	a3,s0,182fe <_ZNKSt7__cxx1112basic_stringIcSt11char_traitsIcESaIcEE7compareERKS4_.isra.0+0x16>
   182fc:	8622                	mv	a2,s0
   182fe:	c601                	beqz	a2,18306 <_ZNKSt7__cxx1112basic_stringIcSt11char_traitsIcESaIcEE7compareERKS4_.isra.0+0x1e>
   18300:	ec0fd0ef          	jal	ra,159c0 <memcmp@plt>
   18304:	ed01                	bnez	a0,1831c <_ZNKSt7__cxx1112basic_stringIcSt11char_traitsIcESaIcEE7compareERKS4_.isra.0+0x34>
   18306:	800007b7          	lui	a5,0x80000
   1830a:	8c05                	sub	s0,s0,s1
   1830c:	fff7c513          	not	a0,a5
   18310:	00854663          	blt	a0,s0,1831c <_ZNKSt7__cxx1112basic_stringIcSt11char_traitsIcESaIcEE7compareERKS4_.isra.0+0x34>
   18314:	00f44963          	blt	s0,a5,18326 <_ZNKSt7__cxx1112basic_stringIcSt11char_traitsIcESaIcEE7compareERKS4_.isra.0+0x3e>
   18318:	0004051b          	sext.w	a0,s0
   1831c:	60e2                	ld	ra,24(sp)
   1831e:	6442                	ld	s0,16(sp)
   18320:	64a2                	ld	s1,8(sp)
   18322:	6105                	addi	sp,sp,32
   18324:	8082                	ret
   18326:	853e                	mv	a0,a5
   18328:	bfd5                	j	1831c <_ZNKSt7__cxx1112basic_stringIcSt11char_traitsIcESaIcEE7compareERKS4_.isra.0+0x34>

000000000001832a <_ZNSt6vectorIPcSaIS0_EE14_M_insert_rvalEN9__gnu_cxx17__normal_iteratorIPKS0_S2_EEOS0_.isra.0>:
   1832a:	715d                	addi	sp,sp,-80
   1832c:	e0a2                	sd	s0,64(sp)
   1832e:	691c                	ld	a5,16(a0)
   18330:	6500                	ld	s0,8(a0)
   18332:	fc26                	sd	s1,56(sp)
   18334:	f84a                	sd	s2,48(sp)
   18336:	f44e                	sd	s3,40(sp)
   18338:	e486                	sd	ra,72(sp)
   1833a:	84aa                	mv	s1,a0
   1833c:	89b2                	mv	s3,a2
   1833e:	892e                	mv	s2,a1
   18340:	04f40a63          	beq	s0,a5,18394 <_ZNSt6vectorIPcSaIS0_EE14_M_insert_rvalEN9__gnu_cxx17__normal_iteratorIPKS0_S2_EEOS0_.isra.0+0x6a>
   18344:	00840713          	addi	a4,s0,8
   18348:	02858c63          	beq	a1,s0,18380 <_ZNSt6vectorIPcSaIS0_EE14_M_insert_rvalEN9__gnu_cxx17__normal_iteratorIPKS0_S2_EEOS0_.isra.0+0x56>
   1834c:	ff843683          	ld	a3,-8(s0)
   18350:	ff840793          	addi	a5,s0,-8
   18354:	40b78633          	sub	a2,a5,a1
   18358:	e014                	sd	a3,0(s0)
   1835a:	e518                	sd	a4,8(a0)
   1835c:	47a1                	li	a5,8
   1835e:	10c7db63          	bge	a5,a2,18474 <_ZNSt6vectorIPcSaIS0_EE14_M_insert_rvalEN9__gnu_cxx17__normal_iteratorIPKS0_S2_EEOS0_.isra.0+0x14a>
   18362:	40c40533          	sub	a0,s0,a2
   18366:	f2afd0ef          	jal	ra,15a90 <memmove@plt>
   1836a:	0009b783          	ld	a5,0(s3)
   1836e:	60a6                	ld	ra,72(sp)
   18370:	6406                	ld	s0,64(sp)
   18372:	00f93023          	sd	a5,0(s2)
   18376:	74e2                	ld	s1,56(sp)
   18378:	7942                	ld	s2,48(sp)
   1837a:	79a2                	ld	s3,40(sp)
   1837c:	6161                	addi	sp,sp,80
   1837e:	8082                	ret
   18380:	621c                	ld	a5,0(a2)
   18382:	60a6                	ld	ra,72(sp)
   18384:	6406                	ld	s0,64(sp)
   18386:	e19c                	sd	a5,0(a1)
   18388:	e518                	sd	a4,8(a0)
   1838a:	74e2                	ld	s1,56(sp)
   1838c:	7942                	ld	s2,48(sp)
   1838e:	79a2                	ld	s3,40(sp)
   18390:	6161                	addi	sp,sp,80
   18392:	8082                	ret
   18394:	e85a                	sd	s6,16(sp)
   18396:	00053b03          	ld	s6,0(a0)
   1839a:	577d                	li	a4,-1
   1839c:	f052                	sd	s4,32(sp)
   1839e:	416407b3          	sub	a5,s0,s6
   183a2:	ec56                	sd	s5,24(sp)
   183a4:	e45e                	sd	s7,8(sp)
   183a6:	8311                	srli	a4,a4,0x4
   183a8:	878d                	srai	a5,a5,0x3
   183aa:	0ce78b63          	beq	a5,a4,18480 <_ZNSt6vectorIPcSaIS0_EE14_M_insert_rvalEN9__gnu_cxx17__normal_iteratorIPKS0_S2_EEOS0_.isra.0+0x156>
   183ae:	4a05                	li	s4,1
   183b0:	e3ad                	bnez	a5,18412 <_ZNSt6vectorIPcSaIS0_EE14_M_insert_rvalEN9__gnu_cxx17__normal_iteratorIPKS0_S2_EEOS0_.isra.0+0xe8>
   183b2:	57fd                	li	a5,-1
   183b4:	8391                	srli	a5,a5,0x4
   183b6:	0147f363          	bgeu	a5,s4,183bc <_ZNSt6vectorIPcSaIS0_EE14_M_insert_rvalEN9__gnu_cxx17__normal_iteratorIPKS0_S2_EEOS0_.isra.0+0x92>
   183ba:	8a3e                	mv	s4,a5
   183bc:	0a0e                	slli	s4,s4,0x3
   183be:	8552                	mv	a0,s4
   183c0:	ce0fd0ef          	jal	ra,158a0 <_Znwm@plt>
   183c4:	0009b683          	ld	a3,0(s3)
   183c8:	41690ab3          	sub	s5,s2,s6
   183cc:	01550733          	add	a4,a0,s5
   183d0:	008a8793          	addi	a5,s5,8
   183d4:	41240433          	sub	s0,s0,s2
   183d8:	97aa                	add	a5,a5,a0
   183da:	e314                	sd	a3,0(a4)
   183dc:	89aa                	mv	s3,a0
   183de:	00878bb3          	add	s7,a5,s0
   183e2:	05504063          	bgtz	s5,18422 <_ZNSt6vectorIPcSaIS0_EE14_M_insert_rvalEN9__gnu_cxx17__normal_iteratorIPKS0_S2_EEOS0_.isra.0+0xf8>
   183e6:	06804c63          	bgtz	s0,1845e <_ZNSt6vectorIPcSaIS0_EE14_M_insert_rvalEN9__gnu_cxx17__normal_iteratorIPKS0_S2_EEOS0_.isra.0+0x134>
   183ea:	060b1663          	bnez	s6,18456 <_ZNSt6vectorIPcSaIS0_EE14_M_insert_rvalEN9__gnu_cxx17__normal_iteratorIPKS0_S2_EEOS0_.isra.0+0x12c>
   183ee:	60a6                	ld	ra,72(sp)
   183f0:	6406                	ld	s0,64(sp)
   183f2:	9a4e                	add	s4,s4,s3
   183f4:	0144b823          	sd	s4,16(s1)
   183f8:	0134b023          	sd	s3,0(s1)
   183fc:	0174b423          	sd	s7,8(s1)
   18400:	7a02                	ld	s4,32(sp)
   18402:	6ae2                	ld	s5,24(sp)
   18404:	6b42                	ld	s6,16(sp)
   18406:	6ba2                	ld	s7,8(sp)
   18408:	74e2                	ld	s1,56(sp)
   1840a:	7942                	ld	s2,48(sp)
   1840c:	79a2                	ld	s3,40(sp)
   1840e:	6161                	addi	sp,sp,80
   18410:	8082                	ret
   18412:	00179a13          	slli	s4,a5,0x1
   18416:	f8fa7ee3          	bgeu	s4,a5,183b2 <_ZNSt6vectorIPcSaIS0_EE14_M_insert_rvalEN9__gnu_cxx17__normal_iteratorIPKS0_S2_EEOS0_.isra.0+0x88>
   1841a:	5a45                	li	s4,-15
   1841c:	001a5a13          	srli	s4,s4,0x1
   18420:	bf79                	j	183be <_ZNSt6vectorIPcSaIS0_EE14_M_insert_rvalEN9__gnu_cxx17__normal_iteratorIPKS0_S2_EEOS0_.isra.0+0x94>
   18422:	86aa                	mv	a3,a0
   18424:	865a                	mv	a2,s6
   18426:	0c3af757          	vsetvli	a4,s5,e8,m8,ta,ma
   1842a:	02060407          	vle8.v	v8,(a2)
   1842e:	40ea8ab3          	sub	s5,s5,a4
   18432:	963a                	add	a2,a2,a4
   18434:	02068427          	vse8.v	v8,(a3)
   18438:	96ba                	add	a3,a3,a4
   1843a:	fe0a96e3          	bnez	s5,18426 <_ZNSt6vectorIPcSaIS0_EE14_M_insert_rvalEN9__gnu_cxx17__normal_iteratorIPKS0_S2_EEOS0_.isra.0+0xfc>
   1843e:	00805c63          	blez	s0,18456 <_ZNSt6vectorIPcSaIS0_EE14_M_insert_rvalEN9__gnu_cxx17__normal_iteratorIPKS0_S2_EEOS0_.isra.0+0x12c>
   18442:	0c347757          	vsetvli	a4,s0,e8,m8,ta,ma
   18446:	02090407          	vle8.v	v8,(s2)
   1844a:	8c19                	sub	s0,s0,a4
   1844c:	993a                	add	s2,s2,a4
   1844e:	02078427          	vse8.v	v8,(a5)
   18452:	97ba                	add	a5,a5,a4
   18454:	f47d                	bnez	s0,18442 <_ZNSt6vectorIPcSaIS0_EE14_M_insert_rvalEN9__gnu_cxx17__normal_iteratorIPKS0_S2_EEOS0_.isra.0+0x118>
   18456:	855a                	mv	a0,s6
   18458:	ca8fd0ef          	jal	ra,15900 <_ZdlPv@plt>
   1845c:	bf49                	j	183ee <_ZNSt6vectorIPcSaIS0_EE14_M_insert_rvalEN9__gnu_cxx17__normal_iteratorIPKS0_S2_EEOS0_.isra.0+0xc4>
   1845e:	0c347757          	vsetvli	a4,s0,e8,m8,ta,ma
   18462:	02090407          	vle8.v	v8,(s2)
   18466:	8c19                	sub	s0,s0,a4
   18468:	993a                	add	s2,s2,a4
   1846a:	02078427          	vse8.v	v8,(a5)
   1846e:	97ba                	add	a5,a5,a4
   18470:	f47d                	bnez	s0,1845e <_ZNSt6vectorIPcSaIS0_EE14_M_insert_rvalEN9__gnu_cxx17__normal_iteratorIPKS0_S2_EEOS0_.isra.0+0x134>
   18472:	bfa5                	j	183ea <_ZNSt6vectorIPcSaIS0_EE14_M_insert_rvalEN9__gnu_cxx17__normal_iteratorIPKS0_S2_EEOS0_.isra.0+0xc0>
   18474:	eef61be3          	bne	a2,a5,1836a <_ZNSt6vectorIPcSaIS0_EE14_M_insert_rvalEN9__gnu_cxx17__normal_iteratorIPKS0_S2_EEOS0_.isra.0+0x40>
   18478:	619c                	ld	a5,0(a1)
   1847a:	fef43c23          	sd	a5,-8(s0)
   1847e:	b5f5                	j	1836a <_ZNSt6vectorIPcSaIS0_EE14_M_insert_rvalEN9__gnu_cxx17__normal_iteratorIPKS0_S2_EEOS0_.isra.0+0x40>
   18480:	00020517          	auipc	a0,0x20
   18484:	4d050513          	addi	a0,a0,1232 # 38950 <_IO_stdin_used+0x2f8>
   18488:	c68fd0ef          	jal	ra,158f0 <_ZSt20__throw_length_errorPKc@plt>

000000000001848c <_ZNK7testing9TestSuite17test_to_run_countEv>:
   1848c:	791c                	ld	a5,48(a0)
   1848e:	7d14                	ld	a3,56(a0)
   18490:	4501                	li	a0,0
   18492:	00d78a63          	beq	a5,a3,184a6 <_ZNK7testing9TestSuite17test_to_run_countEv+0x1a>
   18496:	6398                	ld	a4,0(a5)
   18498:	07a1                	addi	a5,a5,8 # ffffffff80000008 <__global_pointer$+0xffffffff7ffb4278>
   1849a:	08074703          	lbu	a4,128(a4)
   1849e:	9d39                	addw	a0,a0,a4
   184a0:	fef69be3          	bne	a3,a5,18496 <_ZNK7testing9TestSuite17test_to_run_countEv+0xa>
   184a4:	8082                	ret
   184a6:	8082                	ret

00000000000184a8 <_ZNK7testing9TestSuite19disabled_test_countEv>:
   184a8:	791c                	ld	a5,48(a0)
   184aa:	7d14                	ld	a3,56(a0)
   184ac:	4501                	li	a0,0
   184ae:	00d78a63          	beq	a5,a3,184c2 <_ZNK7testing9TestSuite19disabled_test_countEv+0x1a>
   184b2:	6398                	ld	a4,0(a5)
   184b4:	07a1                	addi	a5,a5,8
   184b6:	08174703          	lbu	a4,129(a4)
   184ba:	9d39                	addw	a0,a0,a4
   184bc:	fef69be3          	bne	a3,a5,184b2 <_ZNK7testing9TestSuite19disabled_test_countEv+0xa>
   184c0:	8082                	ret
   184c2:	8082                	ret

00000000000184c4 <_ZN7testing8internalL20PrintAsCharLiteralToIwwEENS0_10CharFormatET0_PSo>:
   184c4:	1101                	addi	sp,sp,-32
   184c6:	e822                	sd	s0,16(sp)
   184c8:	e426                	sd	s1,8(sp)
   184ca:	ec06                	sd	ra,24(sp)
   184cc:	02700793          	li	a5,39
   184d0:	842a                	mv	s0,a0
   184d2:	84ae                	mv	s1,a1
   184d4:	0aa7cd63          	blt	a5,a0,1858e <_ZN7testing8internalL20PrintAsCharLiteralToIwwEENS0_10CharFormatET0_PSo+0xca>
   184d8:	0e054463          	bltz	a0,185c0 <_ZN7testing8internalL20PrintAsCharLiteralToIwwEENS0_10CharFormatET0_PSo+0xfc>
   184dc:	0ca7e563          	bltu	a5,a0,185a6 <_ZN7testing8internalL20PrintAsCharLiteralToIwwEENS0_10CharFormatET0_PSo+0xe2>
   184e0:	00023717          	auipc	a4,0x23
   184e4:	00870713          	addi	a4,a4,8 # 3b4e8 <_IO_stdin_used+0x2e90>
   184e8:	00251793          	slli	a5,a0,0x2
   184ec:	97ba                	add	a5,a5,a4
   184ee:	439c                	lw	a5,0(a5)
   184f0:	97ba                	add	a5,a5,a4
   184f2:	8782                	jr	a5
   184f4:	852e                	mv	a0,a1
   184f6:	00020597          	auipc	a1,0x20
   184fa:	47a58593          	addi	a1,a1,1146 # 38970 <_IO_stdin_used+0x318>
   184fe:	932fd0ef          	jal	ra,15630 <_ZStlsISt11char_traitsIcEERSt13basic_ostreamIcT_ES5_PKc@plt>
   18502:	4509                	li	a0,2
   18504:	60e2                	ld	ra,24(sp)
   18506:	6442                	ld	s0,16(sp)
   18508:	64a2                	ld	s1,8(sp)
   1850a:	6105                	addi	sp,sp,32
   1850c:	8082                	ret
   1850e:	852e                	mv	a0,a1
   18510:	00020597          	auipc	a1,0x20
   18514:	47858593          	addi	a1,a1,1144 # 38988 <_IO_stdin_used+0x330>
   18518:	918fd0ef          	jal	ra,15630 <_ZStlsISt11char_traitsIcEERSt13basic_ostreamIcT_ES5_PKc@plt>
   1851c:	b7dd                	j	18502 <_ZN7testing8internalL20PrintAsCharLiteralToIwwEENS0_10CharFormatET0_PSo+0x3e>
   1851e:	852e                	mv	a0,a1
   18520:	00020597          	auipc	a1,0x20
   18524:	47058593          	addi	a1,a1,1136 # 38990 <_IO_stdin_used+0x338>
   18528:	908fd0ef          	jal	ra,15630 <_ZStlsISt11char_traitsIcEERSt13basic_ostreamIcT_ES5_PKc@plt>
   1852c:	bfd9                	j	18502 <_ZN7testing8internalL20PrintAsCharLiteralToIwwEENS0_10CharFormatET0_PSo+0x3e>
   1852e:	852e                	mv	a0,a1
   18530:	00020597          	auipc	a1,0x20
   18534:	48058593          	addi	a1,a1,1152 # 389b0 <_IO_stdin_used+0x358>
   18538:	8f8fd0ef          	jal	ra,15630 <_ZStlsISt11char_traitsIcEERSt13basic_ostreamIcT_ES5_PKc@plt>
   1853c:	b7d9                	j	18502 <_ZN7testing8internalL20PrintAsCharLiteralToIwwEENS0_10CharFormatET0_PSo+0x3e>
   1853e:	852e                	mv	a0,a1
   18540:	00020597          	auipc	a1,0x20
   18544:	46058593          	addi	a1,a1,1120 # 389a0 <_IO_stdin_used+0x348>
   18548:	8e8fd0ef          	jal	ra,15630 <_ZStlsISt11char_traitsIcEERSt13basic_ostreamIcT_ES5_PKc@plt>
   1854c:	bf5d                	j	18502 <_ZN7testing8internalL20PrintAsCharLiteralToIwwEENS0_10CharFormatET0_PSo+0x3e>
   1854e:	852e                	mv	a0,a1
   18550:	00020597          	auipc	a1,0x20
   18554:	46858593          	addi	a1,a1,1128 # 389b8 <_IO_stdin_used+0x360>
   18558:	8d8fd0ef          	jal	ra,15630 <_ZStlsISt11char_traitsIcEERSt13basic_ostreamIcT_ES5_PKc@plt>
   1855c:	b75d                	j	18502 <_ZN7testing8internalL20PrintAsCharLiteralToIwwEENS0_10CharFormatET0_PSo+0x3e>
   1855e:	852e                	mv	a0,a1
   18560:	00020597          	auipc	a1,0x20
   18564:	43858593          	addi	a1,a1,1080 # 38998 <_IO_stdin_used+0x340>
   18568:	8c8fd0ef          	jal	ra,15630 <_ZStlsISt11char_traitsIcEERSt13basic_ostreamIcT_ES5_PKc@plt>
   1856c:	bf59                	j	18502 <_ZN7testing8internalL20PrintAsCharLiteralToIwwEENS0_10CharFormatET0_PSo+0x3e>
   1856e:	852e                	mv	a0,a1
   18570:	00020597          	auipc	a1,0x20
   18574:	43858593          	addi	a1,a1,1080 # 389a8 <_IO_stdin_used+0x350>
   18578:	8b8fd0ef          	jal	ra,15630 <_ZStlsISt11char_traitsIcEERSt13basic_ostreamIcT_ES5_PKc@plt>
   1857c:	b759                	j	18502 <_ZN7testing8internalL20PrintAsCharLiteralToIwwEENS0_10CharFormatET0_PSo+0x3e>
   1857e:	852e                	mv	a0,a1
   18580:	00020597          	auipc	a1,0x20
   18584:	3f858593          	addi	a1,a1,1016 # 38978 <_IO_stdin_used+0x320>
   18588:	8a8fd0ef          	jal	ra,15630 <_ZStlsISt11char_traitsIcEERSt13basic_ostreamIcT_ES5_PKc@plt>
   1858c:	bf9d                	j	18502 <_ZN7testing8internalL20PrintAsCharLiteralToIwwEENS0_10CharFormatET0_PSo+0x3e>
   1858e:	05c00793          	li	a5,92
   18592:	00f51a63          	bne	a0,a5,185a6 <_ZN7testing8internalL20PrintAsCharLiteralToIwwEENS0_10CharFormatET0_PSo+0xe2>
   18596:	852e                	mv	a0,a1
   18598:	00020597          	auipc	a1,0x20
   1859c:	3e858593          	addi	a1,a1,1000 # 38980 <_IO_stdin_used+0x328>
   185a0:	890fd0ef          	jal	ra,15630 <_ZStlsISt11char_traitsIcEERSt13basic_ostreamIcT_ES5_PKc@plt>
   185a4:	bfb9                	j	18502 <_ZN7testing8internalL20PrintAsCharLiteralToIwwEENS0_10CharFormatET0_PSo+0x3e>
   185a6:	fe04079b          	addiw	a5,s0,-32
   185aa:	05e00713          	li	a4,94
   185ae:	00f76963          	bltu	a4,a5,185c0 <_ZN7testing8internalL20PrintAsCharLiteralToIwwEENS0_10CharFormatET0_PSo+0xfc>
   185b2:	0ff47593          	zext.b	a1,s0
   185b6:	8526                	mv	a0,s1
   185b8:	888fd0ef          	jal	ra,15640 <_ZStlsISt11char_traitsIcEERSt13basic_ostreamIcT_ES5_c@plt>
   185bc:	4501                	li	a0,0
   185be:	b799                	j	18504 <_ZN7testing8internalL20PrintAsCharLiteralToIwwEENS0_10CharFormatET0_PSo+0x40>
   185c0:	609c                	ld	a5,0(s1)
   185c2:	4609                	li	a2,2
   185c4:	00020597          	auipc	a1,0x20
   185c8:	3fc58593          	addi	a1,a1,1020 # 389c0 <_IO_stdin_used+0x368>
   185cc:	fe87b783          	ld	a5,-24(a5)
   185d0:	8526                	mv	a0,s1
   185d2:	e04a                	sd	s2,0(sp)
   185d4:	97a6                	add	a5,a5,s1
   185d6:	0187a903          	lw	s2,24(a5)
   185da:	926fd0ef          	jal	ra,15700 <_ZSt16__ostream_insertIcSt11char_traitsIcEERSt13basic_ostreamIT_T0_ES6_PKS3_l@plt>
   185de:	609c                	ld	a5,0(s1)
   185e0:	6691                	lui	a3,0x4
   185e2:	06a1                	addi	a3,a3,8 # 4008 <__abi_tag-0xc28c>
   185e4:	fe87b703          	ld	a4,-24(a5)
   185e8:	8526                	mv	a0,s1
   185ea:	85a2                	mv	a1,s0
   185ec:	9726                	add	a4,a4,s1
   185ee:	4f1c                	lw	a5,24(a4)
   185f0:	fb57f793          	andi	a5,a5,-75
   185f4:	8fd5                	or	a5,a5,a3
   185f6:	cf1c                	sw	a5,24(a4)
   185f8:	f19fc0ef          	jal	ra,15510 <_ZNSolsEi@plt>
   185fc:	609c                	ld	a5,0(s1)
   185fe:	4505                	li	a0,1
   18600:	fe87b783          	ld	a5,-24(a5)
   18604:	94be                	add	s1,s1,a5
   18606:	0124ac23          	sw	s2,24(s1)
   1860a:	6902                	ld	s2,0(sp)
   1860c:	bde5                	j	18504 <_ZN7testing8internalL20PrintAsCharLiteralToIwwEENS0_10CharFormatET0_PSo+0x40>

000000000001860e <_ZNSt7__cxx1112basic_stringIcSt11char_traitsIcESaIcEE12_M_constructIPcEEvT_S7_St20forward_iterator_tag.isra.0>:
   1860e:	7179                	addi	sp,sp,-48
   18610:	f022                	sd	s0,32(sp)
   18612:	40b60433          	sub	s0,a2,a1
   18616:	ec26                	sd	s1,24(sp)
   18618:	e84a                	sd	s2,16(sp)
   1861a:	f406                	sd	ra,40(sp)
   1861c:	e422                	sd	s0,8(sp)
   1861e:	47bd                	li	a5,15
   18620:	84ae                	mv	s1,a1
   18622:	892a                	mv	s2,a0
   18624:	0487e763          	bltu	a5,s0,18672 <_ZNSt7__cxx1112basic_stringIcSt11char_traitsIcESaIcEE12_M_constructIPcEEvT_S7_St20forward_iterator_tag.isra.0+0x64>
   18628:	4785                	li	a5,1
   1862a:	6108                	ld	a0,0(a0)
   1862c:	02f41463          	bne	s0,a5,18654 <_ZNSt7__cxx1112basic_stringIcSt11char_traitsIcESaIcEE12_M_constructIPcEEvT_S7_St20forward_iterator_tag.isra.0+0x46>
   18630:	0005c783          	lbu	a5,0(a1)
   18634:	00f50023          	sb	a5,0(a0)
   18638:	6422                	ld	s0,8(sp)
   1863a:	00093503          	ld	a0,0(s2)
   1863e:	00893423          	sd	s0,8(s2)
   18642:	9522                	add	a0,a0,s0
   18644:	00050023          	sb	zero,0(a0)
   18648:	70a2                	ld	ra,40(sp)
   1864a:	7402                	ld	s0,32(sp)
   1864c:	64e2                	ld	s1,24(sp)
   1864e:	6942                	ld	s2,16(sp)
   18650:	6145                	addi	sp,sp,48
   18652:	8082                	ret
   18654:	d46d                	beqz	s0,1863e <_ZNSt7__cxx1112basic_stringIcSt11char_traitsIcESaIcEE12_M_constructIPcEEvT_S7_St20forward_iterator_tag.isra.0+0x30>
   18656:	0c3477d7          	vsetvli	a5,s0,e8,m8,ta,ma
   1865a:	02048407          	vle8.v	v8,(s1)
   1865e:	8c1d                	sub	s0,s0,a5
   18660:	94be                	add	s1,s1,a5
   18662:	02050427          	vse8.v	v8,(a0)
   18666:	953e                	add	a0,a0,a5
   18668:	f47d                	bnez	s0,18656 <_ZNSt7__cxx1112basic_stringIcSt11char_traitsIcESaIcEE12_M_constructIPcEEvT_S7_St20forward_iterator_tag.isra.0+0x48>
   1866a:	6422                	ld	s0,8(sp)
   1866c:	00093503          	ld	a0,0(s2)
   18670:	b7f9                	j	1863e <_ZNSt7__cxx1112basic_stringIcSt11char_traitsIcESaIcEE12_M_constructIPcEEvT_S7_St20forward_iterator_tag.isra.0+0x30>
   18672:	4601                	li	a2,0
   18674:	002c                	addi	a1,sp,8
   18676:	83afd0ef          	jal	ra,156b0 <_ZNSt7__cxx1112basic_stringIcSt11char_traitsIcESaIcEE9_M_createERmm@plt>
   1867a:	67a2                	ld	a5,8(sp)
   1867c:	00a93023          	sd	a0,0(s2)
   18680:	00f93823          	sd	a5,16(s2)
   18684:	0c3477d7          	vsetvli	a5,s0,e8,m8,ta,ma
   18688:	02048407          	vle8.v	v8,(s1)
   1868c:	8c1d                	sub	s0,s0,a5
   1868e:	94be                	add	s1,s1,a5
   18690:	02050427          	vse8.v	v8,(a0)
   18694:	953e                	add	a0,a0,a5
   18696:	f061                	bnez	s0,18656 <_ZNSt7__cxx1112basic_stringIcSt11char_traitsIcESaIcEE12_M_constructIPcEEvT_S7_St20forward_iterator_tag.isra.0+0x48>
   18698:	bfc9                	j	1866a <_ZNSt7__cxx1112basic_stringIcSt11char_traitsIcESaIcEE12_M_constructIPcEEvT_S7_St20forward_iterator_tag.isra.0+0x5c>

000000000001869a <_ZNSt7__cxx1112basic_stringIcSt11char_traitsIcESaIcEE12_M_constructIPKcEEvT_S8_St20forward_iterator_tag.isra.0>:
   1869a:	7179                	addi	sp,sp,-48
   1869c:	f022                	sd	s0,32(sp)
   1869e:	40b60433          	sub	s0,a2,a1
   186a2:	ec26                	sd	s1,24(sp)
   186a4:	e84a                	sd	s2,16(sp)
   186a6:	f406                	sd	ra,40(sp)
   186a8:	e422                	sd	s0,8(sp)
   186aa:	47bd                	li	a5,15
   186ac:	84ae                	mv	s1,a1
   186ae:	892a                	mv	s2,a0
   186b0:	0487e763          	bltu	a5,s0,186fe <_ZNSt7__cxx1112basic_stringIcSt11char_traitsIcESaIcEE12_M_constructIPKcEEvT_S8_St20forward_iterator_tag.isra.0+0x64>
   186b4:	4785                	li	a5,1
   186b6:	6108                	ld	a0,0(a0)
   186b8:	02f41463          	bne	s0,a5,186e0 <_ZNSt7__cxx1112basic_stringIcSt11char_traitsIcESaIcEE12_M_constructIPKcEEvT_S8_St20forward_iterator_tag.isra.0+0x46>
   186bc:	0005c783          	lbu	a5,0(a1)
   186c0:	00f50023          	sb	a5,0(a0)
   186c4:	6422                	ld	s0,8(sp)
   186c6:	00093503          	ld	a0,0(s2)
   186ca:	00893423          	sd	s0,8(s2)
   186ce:	9522                	add	a0,a0,s0
   186d0:	00050023          	sb	zero,0(a0)
   186d4:	70a2                	ld	ra,40(sp)
   186d6:	7402                	ld	s0,32(sp)
   186d8:	64e2                	ld	s1,24(sp)
   186da:	6942                	ld	s2,16(sp)
   186dc:	6145                	addi	sp,sp,48
   186de:	8082                	ret
   186e0:	d46d                	beqz	s0,186ca <_ZNSt7__cxx1112basic_stringIcSt11char_traitsIcESaIcEE12_M_constructIPKcEEvT_S8_St20forward_iterator_tag.isra.0+0x30>
   186e2:	0c3477d7          	vsetvli	a5,s0,e8,m8,ta,ma
   186e6:	02048407          	vle8.v	v8,(s1)
   186ea:	8c1d                	sub	s0,s0,a5
   186ec:	94be                	add	s1,s1,a5
   186ee:	02050427          	vse8.v	v8,(a0)
   186f2:	953e                	add	a0,a0,a5
   186f4:	f47d                	bnez	s0,186e2 <_ZNSt7__cxx1112basic_stringIcSt11char_traitsIcESaIcEE12_M_constructIPKcEEvT_S8_St20forward_iterator_tag.isra.0+0x48>
   186f6:	6422                	ld	s0,8(sp)
   186f8:	00093503          	ld	a0,0(s2)
   186fc:	b7f9                	j	186ca <_ZNSt7__cxx1112basic_stringIcSt11char_traitsIcESaIcEE12_M_constructIPKcEEvT_S8_St20forward_iterator_tag.isra.0+0x30>
   186fe:	4601                	li	a2,0
   18700:	002c                	addi	a1,sp,8
   18702:	faffc0ef          	jal	ra,156b0 <_ZNSt7__cxx1112basic_stringIcSt11char_traitsIcESaIcEE9_M_createERmm@plt>
   18706:	67a2                	ld	a5,8(sp)
   18708:	00a93023          	sd	a0,0(s2)
   1870c:	00f93823          	sd	a5,16(s2)
   18710:	0c3477d7          	vsetvli	a5,s0,e8,m8,ta,ma
   18714:	02048407          	vle8.v	v8,(s1)
   18718:	8c1d                	sub	s0,s0,a5
   1871a:	94be                	add	s1,s1,a5
   1871c:	02050427          	vse8.v	v8,(a0)
   18720:	953e                	add	a0,a0,a5
   18722:	f061                	bnez	s0,186e2 <_ZNSt7__cxx1112basic_stringIcSt11char_traitsIcESaIcEE12_M_constructIPKcEEvT_S8_St20forward_iterator_tag.isra.0+0x48>
   18724:	bfc9                	j	186f6 <_ZNSt7__cxx1112basic_stringIcSt11char_traitsIcESaIcEE12_M_constructIPKcEEvT_S8_St20forward_iterator_tag.isra.0+0x5c>

0000000000018726 <_ZN7testing8internalL20PrintCharsAsStringToIcEENS0_10CharFormatEPKT_mPSo>:
   18726:	715d                	addi	sp,sp,-80
   18728:	e0a2                	sd	s0,64(sp)
   1872a:	f84a                	sd	s2,48(sp)
   1872c:	f44e                	sd	s3,40(sp)
   1872e:	8932                	mv	s2,a2
   18730:	89ae                	mv	s3,a1
   18732:	842a                	mv	s0,a0
   18734:	00020597          	auipc	a1,0x20
   18738:	29458593          	addi	a1,a1,660 # 389c8 <_IO_stdin_used+0x370>
   1873c:	8532                	mv	a0,a2
   1873e:	4605                	li	a2,1
   18740:	e486                	sd	ra,72(sp)
   18742:	e062                	sd	s8,0(sp)
   18744:	fbdfc0ef          	jal	ra,15700 <_ZSt16__ostream_insertIcSt11char_traitsIcEERSt13basic_ostreamIT_T0_ES6_PKS3_l@plt>
   18748:	0c098963          	beqz	s3,1881a <_ZN7testing8internalL20PrintCharsAsStringToIcEENS0_10CharFormatEPKT_mPSo+0xf4>
   1874c:	ec56                	sd	s5,24(sp)
   1874e:	e85a                	sd	s6,16(sp)
   18750:	e45e                	sd	s7,8(sp)
   18752:	fc26                	sd	s1,56(sp)
   18754:	f052                	sd	s4,32(sp)
   18756:	00044483          	lbu	s1,0(s0)
   1875a:	99a2                	add	s3,s3,s0
   1875c:	4c01                	li	s8,0
   1875e:	02200a93          	li	s5,34
   18762:	02700b13          	li	s6,39
   18766:	4b85                	li	s7,1
   18768:	03548363          	beq	s1,s5,1878e <_ZN7testing8internalL20PrintCharsAsStringToIcEENS0_10CharFormatEPKT_mPSo+0x68>
   1876c:	07649163          	bne	s1,s6,187ce <_ZN7testing8internalL20PrintCharsAsStringToIcEENS0_10CharFormatEPKT_mPSo+0xa8>
   18770:	4605                	li	a2,1
   18772:	00020597          	auipc	a1,0x20
   18776:	26658593          	addi	a1,a1,614 # 389d8 <_IO_stdin_used+0x380>
   1877a:	854a                	mv	a0,s2
   1877c:	f85fc0ef          	jal	ra,15700 <_ZSt16__ostream_insertIcSt11char_traitsIcEERSt13basic_ostreamIT_T0_ES6_PKS3_l@plt>
   18780:	0405                	addi	s0,s0,1
   18782:	02898163          	beq	s3,s0,187a4 <_ZN7testing8internalL20PrintCharsAsStringToIcEENS0_10CharFormatEPKT_mPSo+0x7e>
   18786:	00044483          	lbu	s1,0(s0)
   1878a:	ff5491e3          	bne	s1,s5,1876c <_ZN7testing8internalL20PrintCharsAsStringToIcEENS0_10CharFormatEPKT_mPSo+0x46>
   1878e:	4609                	li	a2,2
   18790:	00020597          	auipc	a1,0x20
   18794:	25058593          	addi	a1,a1,592 # 389e0 <_IO_stdin_used+0x388>
   18798:	854a                	mv	a0,s2
   1879a:	0405                	addi	s0,s0,1
   1879c:	f65fc0ef          	jal	ra,15700 <_ZSt16__ostream_insertIcSt11char_traitsIcEERSt13basic_ostreamIT_T0_ES6_PKS3_l@plt>
   187a0:	fe8993e3          	bne	s3,s0,18786 <_ZN7testing8internalL20PrintCharsAsStringToIcEENS0_10CharFormatEPKT_mPSo+0x60>
   187a4:	74e2                	ld	s1,56(sp)
   187a6:	7a02                	ld	s4,32(sp)
   187a8:	6ae2                	ld	s5,24(sp)
   187aa:	6b42                	ld	s6,16(sp)
   187ac:	6ba2                	ld	s7,8(sp)
   187ae:	854a                	mv	a0,s2
   187b0:	4605                	li	a2,1
   187b2:	00020597          	auipc	a1,0x20
   187b6:	21658593          	addi	a1,a1,534 # 389c8 <_IO_stdin_used+0x370>
   187ba:	f47fc0ef          	jal	ra,15700 <_ZSt16__ostream_insertIcSt11char_traitsIcEERSt13basic_ostreamIT_T0_ES6_PKS3_l@plt>
   187be:	60a6                	ld	ra,72(sp)
   187c0:	6406                	ld	s0,64(sp)
   187c2:	7942                	ld	s2,48(sp)
   187c4:	79a2                	ld	s3,40(sp)
   187c6:	8562                	mv	a0,s8
   187c8:	6c02                	ld	s8,0(sp)
   187ca:	6161                	addi	sp,sp,80
   187cc:	8082                	ret
   187ce:	8526                	mv	a0,s1
   187d0:	85ca                	mv	a1,s2
   187d2:	cf3ff0ef          	jal	ra,184c4 <_ZN7testing8internalL20PrintAsCharLiteralToIwwEENS0_10CharFormatET0_PSo>
   187d6:	8a2a                	mv	s4,a0
   187d8:	fb7514e3          	bne	a0,s7,18780 <_ZN7testing8internalL20PrintCharsAsStringToIcEENS0_10CharFormatEPKT_mPSo+0x5a>
   187dc:	0405                	addi	s0,s0,1
   187de:	02898c63          	beq	s3,s0,18816 <_ZN7testing8internalL20PrintCharsAsStringToIcEENS0_10CharFormatEPKT_mPSo+0xf0>
   187e2:	00044483          	lbu	s1,0(s0)
   187e6:	8526                	mv	a0,s1
   187e8:	ff9fc0ef          	jal	ra,157e0 <isxdigit@plt>
   187ec:	e119                	bnez	a0,187f2 <_ZN7testing8internalL20PrintCharsAsStringToIcEENS0_10CharFormatEPKT_mPSo+0xcc>
   187ee:	8c52                	mv	s8,s4
   187f0:	bfa5                	j	18768 <_ZN7testing8internalL20PrintCharsAsStringToIcEENS0_10CharFormatEPKT_mPSo+0x42>
   187f2:	4609                	li	a2,2
   187f4:	00020597          	auipc	a1,0x20
   187f8:	1dc58593          	addi	a1,a1,476 # 389d0 <_IO_stdin_used+0x378>
   187fc:	854a                	mv	a0,s2
   187fe:	f03fc0ef          	jal	ra,15700 <_ZSt16__ostream_insertIcSt11char_traitsIcEERSt13basic_ostreamIT_T0_ES6_PKS3_l@plt>
   18802:	865e                	mv	a2,s7
   18804:	854a                	mv	a0,s2
   18806:	00020597          	auipc	a1,0x20
   1880a:	1c258593          	addi	a1,a1,450 # 389c8 <_IO_stdin_used+0x370>
   1880e:	ef3fc0ef          	jal	ra,15700 <_ZSt16__ostream_insertIcSt11char_traitsIcEERSt13basic_ostreamIT_T0_ES6_PKS3_l@plt>
   18812:	8c52                	mv	s8,s4
   18814:	bf91                	j	18768 <_ZN7testing8internalL20PrintCharsAsStringToIcEENS0_10CharFormatEPKT_mPSo+0x42>
   18816:	8c5e                	mv	s8,s7
   18818:	b771                	j	187a4 <_ZN7testing8internalL20PrintCharsAsStringToIcEENS0_10CharFormatEPKT_mPSo+0x7e>
   1881a:	4c01                	li	s8,0
   1881c:	bf49                	j	187ae <_ZN7testing8internalL20PrintCharsAsStringToIcEENS0_10CharFormatEPKT_mPSo+0x88>

000000000001881e <_ZN7testing8internalL20PrintCharsAsStringToIwEENS0_10CharFormatEPKT_mPSo.isra.0>:
   1881e:	715d                	addi	sp,sp,-80
   18820:	e0a2                	sd	s0,64(sp)
   18822:	f44e                	sd	s3,40(sp)
   18824:	f052                	sd	s4,32(sp)
   18826:	89b2                	mv	s3,a2
   18828:	8a2e                	mv	s4,a1
   1882a:	842a                	mv	s0,a0
   1882c:	00020597          	auipc	a1,0x20
   18830:	1bc58593          	addi	a1,a1,444 # 389e8 <_IO_stdin_used+0x390>
   18834:	8532                	mv	a0,a2
   18836:	4609                	li	a2,2
   18838:	e486                	sd	ra,72(sp)
   1883a:	ec7fc0ef          	jal	ra,15700 <_ZSt16__ostream_insertIcSt11char_traitsIcEERSt13basic_ostreamIT_T0_ES6_PKS3_l@plt>
   1883e:	0a0a0063          	beqz	s4,188de <_ZN7testing8internalL20PrintCharsAsStringToIwEENS0_10CharFormatEPKT_mPSo.isra.0+0xc0>
   18842:	f84a                	sd	s2,48(sp)
   18844:	ec56                	sd	s5,24(sp)
   18846:	e85a                	sd	s6,16(sp)
   18848:	e45e                	sd	s7,8(sp)
   1884a:	fc26                	sd	s1,56(sp)
   1884c:	4781                	li	a5,0
   1884e:	4901                	li	s2,0
   18850:	02200a93          	li	s5,34
   18854:	02700b93          	li	s7,39
   18858:	0ff00b13          	li	s6,255
   1885c:	4004                	lw	s1,0(s0)
   1885e:	c79d                	beqz	a5,1888c <_ZN7testing8internalL20PrintCharsAsStringToIwEENS0_10CharFormatEPKT_mPSo.isra.0+0x6e>
   18860:	089b6c63          	bltu	s6,s1,188f8 <_ZN7testing8internalL20PrintCharsAsStringToIwEENS0_10CharFormatEPKT_mPSo.isra.0+0xda>
   18864:	8526                	mv	a0,s1
   18866:	f7bfc0ef          	jal	ra,157e0 <isxdigit@plt>
   1886a:	c10d                	beqz	a0,1888c <_ZN7testing8internalL20PrintCharsAsStringToIwEENS0_10CharFormatEPKT_mPSo.isra.0+0x6e>
   1886c:	4609                	li	a2,2
   1886e:	00020597          	auipc	a1,0x20
   18872:	16258593          	addi	a1,a1,354 # 389d0 <_IO_stdin_used+0x378>
   18876:	854e                	mv	a0,s3
   18878:	e89fc0ef          	jal	ra,15700 <_ZSt16__ostream_insertIcSt11char_traitsIcEERSt13basic_ostreamIT_T0_ES6_PKS3_l@plt>
   1887c:	854e                	mv	a0,s3
   1887e:	4609                	li	a2,2
   18880:	00020597          	auipc	a1,0x20
   18884:	16858593          	addi	a1,a1,360 # 389e8 <_IO_stdin_used+0x390>
   18888:	e79fc0ef          	jal	ra,15700 <_ZSt16__ostream_insertIcSt11char_traitsIcEERSt13basic_ostreamIT_T0_ES6_PKS3_l@plt>
   1888c:	4605                	li	a2,1
   1888e:	00020597          	auipc	a1,0x20
   18892:	14a58593          	addi	a1,a1,330 # 389d8 <_IO_stdin_used+0x380>
   18896:	854e                	mv	a0,s3
   18898:	03548363          	beq	s1,s5,188be <_ZN7testing8internalL20PrintCharsAsStringToIwEENS0_10CharFormatEPKT_mPSo.isra.0+0xa0>
   1889c:	05749e63          	bne	s1,s7,188f8 <_ZN7testing8internalL20PrintCharsAsStringToIwEENS0_10CharFormatEPKT_mPSo.isra.0+0xda>
   188a0:	0905                	addi	s2,s2,1
   188a2:	e5ffc0ef          	jal	ra,15700 <_ZSt16__ostream_insertIcSt11char_traitsIcEERSt13basic_ostreamIT_T0_ES6_PKS3_l@plt>
   188a6:	0411                	addi	s0,s0,4
   188a8:	03490663          	beq	s2,s4,188d4 <_ZN7testing8internalL20PrintCharsAsStringToIwEENS0_10CharFormatEPKT_mPSo.isra.0+0xb6>
   188ac:	4004                	lw	s1,0(s0)
   188ae:	4605                	li	a2,1
   188b0:	00020597          	auipc	a1,0x20
   188b4:	12858593          	addi	a1,a1,296 # 389d8 <_IO_stdin_used+0x380>
   188b8:	854e                	mv	a0,s3
   188ba:	ff5491e3          	bne	s1,s5,1889c <_ZN7testing8internalL20PrintCharsAsStringToIwEENS0_10CharFormatEPKT_mPSo.isra.0+0x7e>
   188be:	4609                	li	a2,2
   188c0:	00020597          	auipc	a1,0x20
   188c4:	12058593          	addi	a1,a1,288 # 389e0 <_IO_stdin_used+0x388>
   188c8:	0905                	addi	s2,s2,1
   188ca:	e37fc0ef          	jal	ra,15700 <_ZSt16__ostream_insertIcSt11char_traitsIcEERSt13basic_ostreamIT_T0_ES6_PKS3_l@plt>
   188ce:	0411                	addi	s0,s0,4
   188d0:	fd491ee3          	bne	s2,s4,188ac <_ZN7testing8internalL20PrintCharsAsStringToIwEENS0_10CharFormatEPKT_mPSo.isra.0+0x8e>
   188d4:	74e2                	ld	s1,56(sp)
   188d6:	7942                	ld	s2,48(sp)
   188d8:	6ae2                	ld	s5,24(sp)
   188da:	6b42                	ld	s6,16(sp)
   188dc:	6ba2                	ld	s7,8(sp)
   188de:	6406                	ld	s0,64(sp)
   188e0:	60a6                	ld	ra,72(sp)
   188e2:	7a02                	ld	s4,32(sp)
   188e4:	854e                	mv	a0,s3
   188e6:	79a2                	ld	s3,40(sp)
   188e8:	4605                	li	a2,1
   188ea:	00020597          	auipc	a1,0x20
   188ee:	0de58593          	addi	a1,a1,222 # 389c8 <_IO_stdin_used+0x370>
   188f2:	6161                	addi	sp,sp,80
   188f4:	e0dfc06f          	j	15700 <_ZSt16__ostream_insertIcSt11char_traitsIcEERSt13basic_ostreamIT_T0_ES6_PKS3_l@plt>
   188f8:	8526                	mv	a0,s1
   188fa:	85ce                	mv	a1,s3
   188fc:	bc9ff0ef          	jal	ra,184c4 <_ZN7testing8internalL20PrintAsCharLiteralToIwwEENS0_10CharFormatET0_PSo>
   18900:	fff50793          	addi	a5,a0,-1
   18904:	0905                	addi	s2,s2,1
   18906:	0411                	addi	s0,s0,4
   18908:	0017b793          	seqz	a5,a5
   1890c:	f54918e3          	bne	s2,s4,1885c <_ZN7testing8internalL20PrintCharsAsStringToIwEENS0_10CharFormatEPKT_mPSo.isra.0+0x3e>
   18910:	b7d1                	j	188d4 <_ZN7testing8internalL20PrintCharsAsStringToIwEENS0_10CharFormatEPKT_mPSo.isra.0+0xb6>

0000000000018912 <_ZNSt8_Rb_treeINSt7__cxx1112basic_stringIcSt11char_traitsIcESaIcEEESt4pairIKS5_mESt10_Select1stIS8_ESt4lessIS5_ESaIS8_EE24_M_get_insert_unique_posERS7_.isra.0>:
   18912:	711d                	addi	sp,sp,-96
   18914:	e8a2                	sd	s0,80(sp)
   18916:	6900                	ld	s0,16(a0)
   18918:	fc4e                	sd	s3,56(sp)
   1891a:	f852                	sd	s4,48(sp)
   1891c:	f05a                	sd	s6,32(sp)
   1891e:	ec86                	sd	ra,88(sp)
   18920:	e4a6                	sd	s1,72(sp)
   18922:	e0ca                	sd	s2,64(sp)
   18924:	f456                	sd	s5,40(sp)
   18926:	e862                	sd	s8,16(sp)
   18928:	8b2a                	mv	s6,a0
   1892a:	8a2e                	mv	s4,a1
   1892c:	89b2                	mv	s3,a2
   1892e:	cc49                	beqz	s0,189c8 <_ZNSt8_Rb_treeINSt7__cxx1112basic_stringIcSt11char_traitsIcESaIcEEESt4pairIKS5_mESt10_Select1stIS8_ESt4lessIS5_ESaIS8_EE24_M_get_insert_unique_posERS7_.isra.0+0xb6>
   18930:	80000ab7          	lui	s5,0x80000
   18934:	ec5e                	sd	s7,24(sp)
   18936:	fffacb93          	not	s7,s5
   1893a:	7404                	ld	s1,40(s0)
   1893c:	02043c03          	ld	s8,32(s0)
   18940:	894e                	mv	s2,s3
   18942:	0134f363          	bgeu	s1,s3,18948 <_ZNSt8_Rb_treeINSt7__cxx1112basic_stringIcSt11char_traitsIcESaIcEEESt4pairIKS5_mESt10_Select1stIS8_ESt4lessIS5_ESaIS8_EE24_M_get_insert_unique_posERS7_.isra.0+0x36>
   18946:	8926                	mv	s2,s1
   18948:	00090863          	beqz	s2,18958 <_ZNSt8_Rb_treeINSt7__cxx1112basic_stringIcSt11char_traitsIcESaIcEEESt4pairIKS5_mESt10_Select1stIS8_ESt4lessIS5_ESaIS8_EE24_M_get_insert_unique_posERS7_.isra.0+0x46>
   1894c:	864a                	mv	a2,s2
   1894e:	85e2                	mv	a1,s8
   18950:	8552                	mv	a0,s4
   18952:	86efd0ef          	jal	ra,159c0 <memcmp@plt>
   18956:	e901                	bnez	a0,18966 <_ZNSt8_Rb_treeINSt7__cxx1112basic_stringIcSt11char_traitsIcESaIcEEESt4pairIKS5_mESt10_Select1stIS8_ESt4lessIS5_ESaIS8_EE24_M_get_insert_unique_posERS7_.isra.0+0x54>
   18958:	40998533          	sub	a0,s3,s1
   1895c:	00abc763          	blt	s7,a0,1896a <_ZNSt8_Rb_treeINSt7__cxx1112basic_stringIcSt11char_traitsIcESaIcEEESt4pairIKS5_mESt10_Select1stIS8_ESt4lessIS5_ESaIS8_EE24_M_get_insert_unique_posERS7_.isra.0+0x58>
   18960:	01554a63          	blt	a0,s5,18974 <_ZNSt8_Rb_treeINSt7__cxx1112basic_stringIcSt11char_traitsIcESaIcEEESt4pairIKS5_mESt10_Select1stIS8_ESt4lessIS5_ESaIS8_EE24_M_get_insert_unique_posERS7_.isra.0+0x62>
   18964:	2501                	sext.w	a0,a0
   18966:	00054763          	bltz	a0,18974 <_ZNSt8_Rb_treeINSt7__cxx1112basic_stringIcSt11char_traitsIcESaIcEEESt4pairIKS5_mESt10_Select1stIS8_ESt4lessIS5_ESaIS8_EE24_M_get_insert_unique_posERS7_.isra.0+0x62>
   1896a:	6c1c                	ld	a5,24(s0)
   1896c:	4701                	li	a4,0
   1896e:	c791                	beqz	a5,1897a <_ZNSt8_Rb_treeINSt7__cxx1112basic_stringIcSt11char_traitsIcESaIcEEESt4pairIKS5_mESt10_Select1stIS8_ESt4lessIS5_ESaIS8_EE24_M_get_insert_unique_posERS7_.isra.0+0x68>
   18970:	843e                	mv	s0,a5
   18972:	b7e1                	j	1893a <_ZNSt8_Rb_treeINSt7__cxx1112basic_stringIcSt11char_traitsIcESaIcEEESt4pairIKS5_mESt10_Select1stIS8_ESt4lessIS5_ESaIS8_EE24_M_get_insert_unique_posERS7_.isra.0+0x28>
   18974:	681c                	ld	a5,16(s0)
   18976:	4705                	li	a4,1
   18978:	ffe5                	bnez	a5,18970 <_ZNSt8_Rb_treeINSt7__cxx1112basic_stringIcSt11char_traitsIcESaIcEEESt4pairIKS5_mESt10_Select1stIS8_ESt4lessIS5_ESaIS8_EE24_M_get_insert_unique_posERS7_.isra.0+0x5e>
   1897a:	6be2                	ld	s7,24(sp)
   1897c:	8aa2                	mv	s5,s0
   1897e:	e739                	bnez	a4,189cc <_ZNSt8_Rb_treeINSt7__cxx1112basic_stringIcSt11char_traitsIcESaIcEEESt4pairIKS5_mESt10_Select1stIS8_ESt4lessIS5_ESaIS8_EE24_M_get_insert_unique_posERS7_.isra.0+0xba>
   18980:	00090863          	beqz	s2,18990 <_ZNSt8_Rb_treeINSt7__cxx1112basic_stringIcSt11char_traitsIcESaIcEEESt4pairIKS5_mESt10_Select1stIS8_ESt4lessIS5_ESaIS8_EE24_M_get_insert_unique_posERS7_.isra.0+0x7e>
   18984:	864a                	mv	a2,s2
   18986:	85d2                	mv	a1,s4
   18988:	8562                	mv	a0,s8
   1898a:	836fd0ef          	jal	ra,159c0 <memcmp@plt>
   1898e:	ed09                	bnez	a0,189a8 <_ZNSt8_Rb_treeINSt7__cxx1112basic_stringIcSt11char_traitsIcESaIcEEESt4pairIKS5_mESt10_Select1stIS8_ESt4lessIS5_ESaIS8_EE24_M_get_insert_unique_posERS7_.isra.0+0x96>
   18990:	800007b7          	lui	a5,0x80000
   18994:	413484b3          	sub	s1,s1,s3
   18998:	fff7c713          	not	a4,a5
   1899c:	00974863          	blt	a4,s1,189ac <_ZNSt8_Rb_treeINSt7__cxx1112basic_stringIcSt11char_traitsIcESaIcEEESt4pairIKS5_mESt10_Select1stIS8_ESt4lessIS5_ESaIS8_EE24_M_get_insert_unique_posERS7_.isra.0+0x9a>
   189a0:	04f4c663          	blt	s1,a5,189ec <_ZNSt8_Rb_treeINSt7__cxx1112basic_stringIcSt11char_traitsIcESaIcEEESt4pairIKS5_mESt10_Select1stIS8_ESt4lessIS5_ESaIS8_EE24_M_get_insert_unique_posERS7_.isra.0+0xda>
   189a4:	0004851b          	sext.w	a0,s1
   189a8:	04054263          	bltz	a0,189ec <_ZNSt8_Rb_treeINSt7__cxx1112basic_stringIcSt11char_traitsIcESaIcEEESt4pairIKS5_mESt10_Select1stIS8_ESt4lessIS5_ESaIS8_EE24_M_get_insert_unique_posERS7_.isra.0+0xda>
   189ac:	4a81                	li	s5,0
   189ae:	60e6                	ld	ra,88(sp)
   189b0:	8522                	mv	a0,s0
   189b2:	6446                	ld	s0,80(sp)
   189b4:	64a6                	ld	s1,72(sp)
   189b6:	6906                	ld	s2,64(sp)
   189b8:	79e2                	ld	s3,56(sp)
   189ba:	7a42                	ld	s4,48(sp)
   189bc:	7b02                	ld	s6,32(sp)
   189be:	6c42                	ld	s8,16(sp)
   189c0:	85d6                	mv	a1,s5
   189c2:	7aa2                	ld	s5,40(sp)
   189c4:	6125                	addi	sp,sp,96
   189c6:	8082                	ret
   189c8:	00850413          	addi	s0,a0,8
   189cc:	018b3a83          	ld	s5,24(s6) # ffffffff80000018 <__global_pointer$+0xffffffff7ffb4288>
   189d0:	01540e63          	beq	s0,s5,189ec <_ZNSt8_Rb_treeINSt7__cxx1112basic_stringIcSt11char_traitsIcESaIcEEESt4pairIKS5_mESt10_Select1stIS8_ESt4lessIS5_ESaIS8_EE24_M_get_insert_unique_posERS7_.isra.0+0xda>
   189d4:	8522                	mv	a0,s0
   189d6:	fbbfc0ef          	jal	ra,15990 <_ZSt18_Rb_tree_decrementPSt18_Rb_tree_node_base@plt>
   189da:	7504                	ld	s1,40(a0)
   189dc:	02053c03          	ld	s8,32(a0)
   189e0:	894e                	mv	s2,s3
   189e2:	0134e763          	bltu	s1,s3,189f0 <_ZNSt8_Rb_treeINSt7__cxx1112basic_stringIcSt11char_traitsIcESaIcEEESt4pairIKS5_mESt10_Select1stIS8_ESt4lessIS5_ESaIS8_EE24_M_get_insert_unique_posERS7_.isra.0+0xde>
   189e6:	8aa2                	mv	s5,s0
   189e8:	842a                	mv	s0,a0
   189ea:	bf59                	j	18980 <_ZNSt8_Rb_treeINSt7__cxx1112basic_stringIcSt11char_traitsIcESaIcEEESt4pairIKS5_mESt10_Select1stIS8_ESt4lessIS5_ESaIS8_EE24_M_get_insert_unique_posERS7_.isra.0+0x6e>
   189ec:	4401                	li	s0,0
   189ee:	b7c1                	j	189ae <_ZNSt8_Rb_treeINSt7__cxx1112basic_stringIcSt11char_traitsIcESaIcEEESt4pairIKS5_mESt10_Select1stIS8_ESt4lessIS5_ESaIS8_EE24_M_get_insert_unique_posERS7_.isra.0+0x9c>
   189f0:	8aa2                	mv	s5,s0
   189f2:	8926                	mv	s2,s1
   189f4:	842a                	mv	s0,a0
   189f6:	b769                	j	18980 <_ZNSt8_Rb_treeINSt7__cxx1112basic_stringIcSt11char_traitsIcESaIcEEESt4pairIKS5_mESt10_Select1stIS8_ESt4lessIS5_ESaIS8_EE24_M_get_insert_unique_posERS7_.isra.0+0x6e>

00000000000189f8 <_ZN7testing8internal18OsStackTraceGetter17CurrentStackTraceB5cxx11Eii>:
   189f8:	01050713          	addi	a4,a0,16
   189fc:	00053423          	sd	zero,8(a0)
   18a00:	00050823          	sb	zero,16(a0)
   18a04:	e118                	sd	a4,0(a0)
   18a06:	8082                	ret

0000000000018a08 <_ZNSt7__cxx1112basic_stringIcSt11char_traitsIcESaIcEEC2EPKcRKS3_.isra.0>:
   18a08:	7139                	addi	sp,sp,-64
   18a0a:	f426                	sd	s1,40(sp)
   18a0c:	fc06                	sd	ra,56(sp)
   18a0e:	f822                	sd	s0,48(sp)
   18a10:	f04a                	sd	s2,32(sp)
   18a12:	ec4e                	sd	s3,24(sp)
   18a14:	01050493          	addi	s1,a0,16
   18a18:	e104                	sd	s1,0(a0)
   18a1a:	c1d9                	beqz	a1,18aa0 <_ZNSt7__cxx1112basic_stringIcSt11char_traitsIcESaIcEEC2EPKcRKS3_.isra.0+0x98>
   18a1c:	892a                	mv	s2,a0
   18a1e:	852e                	mv	a0,a1
   18a20:	89ae                	mv	s3,a1
   18a22:	9aefd0ef          	jal	ra,15bd0 <strlen@plt>
   18a26:	e42a                	sd	a0,8(sp)
   18a28:	47bd                	li	a5,15
   18a2a:	842a                	mv	s0,a0
   18a2c:	04a7e463          	bltu	a5,a0,18a74 <_ZNSt7__cxx1112basic_stringIcSt11char_traitsIcESaIcEEC2EPKcRKS3_.isra.0+0x6c>
   18a30:	4785                	li	a5,1
   18a32:	02f51263          	bne	a0,a5,18a56 <_ZNSt7__cxx1112basic_stringIcSt11char_traitsIcESaIcEEC2EPKcRKS3_.isra.0+0x4e>
   18a36:	0009c783          	lbu	a5,0(s3)
   18a3a:	00f90823          	sb	a5,16(s2)
   18a3e:	00893423          	sd	s0,8(s2)
   18a42:	94a2                	add	s1,s1,s0
   18a44:	00048023          	sb	zero,0(s1)
   18a48:	70e2                	ld	ra,56(sp)
   18a4a:	7442                	ld	s0,48(sp)
   18a4c:	74a2                	ld	s1,40(sp)
   18a4e:	7902                	ld	s2,32(sp)
   18a50:	69e2                	ld	s3,24(sp)
   18a52:	6121                	addi	sp,sp,64
   18a54:	8082                	ret
   18a56:	d565                	beqz	a0,18a3e <_ZNSt7__cxx1112basic_stringIcSt11char_traitsIcESaIcEEC2EPKcRKS3_.isra.0+0x36>
   18a58:	0c3477d7          	vsetvli	a5,s0,e8,m8,ta,ma
   18a5c:	02098407          	vle8.v	v8,(s3)
   18a60:	8c1d                	sub	s0,s0,a5
   18a62:	99be                	add	s3,s3,a5
   18a64:	02048427          	vse8.v	v8,(s1)
   18a68:	94be                	add	s1,s1,a5
   18a6a:	f47d                	bnez	s0,18a58 <_ZNSt7__cxx1112basic_stringIcSt11char_traitsIcESaIcEEC2EPKcRKS3_.isra.0+0x50>
   18a6c:	6422                	ld	s0,8(sp)
   18a6e:	00093483          	ld	s1,0(s2)
   18a72:	b7f1                	j	18a3e <_ZNSt7__cxx1112basic_stringIcSt11char_traitsIcESaIcEEC2EPKcRKS3_.isra.0+0x36>
   18a74:	4601                	li	a2,0
   18a76:	002c                	addi	a1,sp,8
   18a78:	854a                	mv	a0,s2
   18a7a:	c37fc0ef          	jal	ra,156b0 <_ZNSt7__cxx1112basic_stringIcSt11char_traitsIcESaIcEE9_M_createERmm@plt>
   18a7e:	67a2                	ld	a5,8(sp)
   18a80:	00a93023          	sd	a0,0(s2)
   18a84:	84aa                	mv	s1,a0
   18a86:	00f93823          	sd	a5,16(s2)
   18a8a:	0c3477d7          	vsetvli	a5,s0,e8,m8,ta,ma
   18a8e:	02098407          	vle8.v	v8,(s3)
   18a92:	8c1d                	sub	s0,s0,a5
   18a94:	99be                	add	s3,s3,a5
   18a96:	02048427          	vse8.v	v8,(s1)
   18a9a:	94be                	add	s1,s1,a5
   18a9c:	fc55                	bnez	s0,18a58 <_ZNSt7__cxx1112basic_stringIcSt11char_traitsIcESaIcEEC2EPKcRKS3_.isra.0+0x50>
   18a9e:	b7f9                	j	18a6c <_ZNSt7__cxx1112basic_stringIcSt11char_traitsIcESaIcEEC2EPKcRKS3_.isra.0+0x64>
   18aa0:	b30fd0ef          	jal	ra,15dd0 <_ZNSt7__cxx1112basic_stringIcSt11char_traitsIcESaIcEEC2EPKcRKS3_.part.0>

0000000000018aa4 <_ZNSt8_Rb_treeINSt7__cxx1112basic_stringIcSt11char_traitsIcESaIcEEES5_St9_IdentityIS5_ESt4lessIS5_ESaIS5_EE8_M_eraseEPSt13_Rb_tree_nodeIS5_E.isra.0>:
   18aa4:	18050c63          	beqz	a0,18c3c <_ZNSt8_Rb_treeINSt7__cxx1112basic_stringIcSt11char_traitsIcESaIcEEES5_St9_IdentityIS5_ESt4lessIS5_ESaIS5_EE8_M_eraseEPSt13_Rb_tree_nodeIS5_E.isra.0+0x198>
   18aa8:	711d                	addi	sp,sp,-96
   18aaa:	fc4e                	sd	s3,56(sp)
   18aac:	ec86                	sd	ra,88(sp)
   18aae:	e8a2                	sd	s0,80(sp)
   18ab0:	f852                	sd	s4,48(sp)
   18ab2:	89aa                	mv	s3,a0
   18ab4:	0189ba03          	ld	s4,24(s3)
   18ab8:	140a0c63          	beqz	s4,18c10 <_ZNSt8_Rb_treeINSt7__cxx1112basic_stringIcSt11char_traitsIcESaIcEEES5_St9_IdentityIS5_ESt4lessIS5_ESaIS5_EE8_M_eraseEPSt13_Rb_tree_nodeIS5_E.isra.0+0x16c>
   18abc:	e4a6                	sd	s1,72(sp)
   18abe:	e0ca                	sd	s2,64(sp)
   18ac0:	f456                	sd	s5,40(sp)
   18ac2:	f05a                	sd	s6,32(sp)
   18ac4:	018a3a83          	ld	s5,24(s4)
   18ac8:	120a8063          	beqz	s5,18be8 <_ZNSt8_Rb_treeINSt7__cxx1112basic_stringIcSt11char_traitsIcESaIcEEES5_St9_IdentityIS5_ESt4lessIS5_ESaIS5_EE8_M_eraseEPSt13_Rb_tree_nodeIS5_E.isra.0+0x144>
   18acc:	018abb03          	ld	s6,24(s5) # ffffffff80000018 <__global_pointer$+0xffffffff7ffb4288>
