
build/Release/bin/benchmark_ntt_unary:     file format elf64-littleriscv


Disassembly of section .plt:

0000000000010cb0 <_PROCEDURE_LINKAGE_TABLE_>:
   10cb0:	97 93 00 00 33 03 c3 41 03 be 03 34 13 03 43 fd     ....3..A...4..C.
   10cc0:	93 82 03 34 13 53 13 00 83 b2 82 00 67 00 0e 00     ...4.S......g...

0000000000010cd0 <_ZNSo3putEc@plt>:
   10cd0:	00009e17          	auipc	t3,0x9
   10cd4:	330e3e03          	ld	t3,816(t3) # 1a000 <_ZNSo3putEc@GLIBCXX_3.4>
   10cd8:	000e0367          	jalr	t1,t3
   10cdc:	00000013          	nop

0000000000010ce0 <_ZnamSt11align_val_t@plt>:
   10ce0:	00009e17          	auipc	t3,0x9
   10ce4:	328e3e03          	ld	t3,808(t3) # 1a008 <_ZnamSt11align_val_t@CXXABI_1.3.11>
   10ce8:	000e0367          	jalr	t1,t3
   10cec:	00000013          	nop

0000000000010cf0 <strlen@plt>:
   10cf0:	00009e17          	auipc	t3,0x9
   10cf4:	320e3e03          	ld	t3,800(t3) # 1a010 <strlen@GLIBC_2.27>
   10cf8:	000e0367          	jalr	t1,t3
   10cfc:	00000013          	nop

0000000000010d00 <_ZNSo5flushEv@plt>:
   10d00:	00009e17          	auipc	t3,0x9
   10d04:	318e3e03          	ld	t3,792(t3) # 1a018 <_ZNSo5flushEv@GLIBCXX_3.4>
   10d08:	000e0367          	jalr	t1,t3
   10d0c:	00000013          	nop

0000000000010d10 <_ZSt19__throw_logic_errorPKc@plt>:
   10d10:	00009e17          	auipc	t3,0x9
   10d14:	310e3e03          	ld	t3,784(t3) # 1a020 <_ZSt19__throw_logic_errorPKc@GLIBCXX_3.4>
   10d18:	000e0367          	jalr	t1,t3
   10d1c:	00000013          	nop

0000000000010d20 <__libc_start_main@plt>:
   10d20:	00009e17          	auipc	t3,0x9
   10d24:	308e3e03          	ld	t3,776(t3) # 1a028 <__libc_start_main@GLIBC_2.34>
   10d28:	000e0367          	jalr	t1,t3
   10d2c:	00000013          	nop

0000000000010d30 <_ZNSt13random_device7_M_finiEv@plt>:
   10d30:	00009e17          	auipc	t3,0x9
   10d34:	300e3e03          	ld	t3,768(t3) # 1a030 <_ZNSt13random_device7_M_finiEv@GLIBCXX_3.4.18>
   10d38:	000e0367          	jalr	t1,t3
   10d3c:	00000013          	nop

0000000000010d40 <_Znwm@plt>:
   10d40:	00009e17          	auipc	t3,0x9
   10d44:	2f8e3e03          	ld	t3,760(t3) # 1a038 <_Znwm@GLIBCXX_3.4>
   10d48:	000e0367          	jalr	t1,t3
   10d4c:	00000013          	nop

0000000000010d50 <_ZdlPvm@plt>:
   10d50:	00009e17          	auipc	t3,0x9
   10d54:	2f0e3e03          	ld	t3,752(t3) # 1a040 <_ZdlPvm@CXXABI_1.3.9>
   10d58:	000e0367          	jalr	t1,t3
   10d5c:	00000013          	nop

0000000000010d60 <_ZSt16__ostream_insertIcSt11char_traitsIcEERSt13basic_ostreamIT_T0_ES6_PKS3_l@plt>:
   10d60:	00009e17          	auipc	t3,0x9
   10d64:	2e8e3e03          	ld	t3,744(t3) # 1a048 <_ZSt16__ostream_insertIcSt11char_traitsIcEERSt13basic_ostreamIT_T0_ES6_PKS3_l@GLIBCXX_3.4.9>
   10d68:	000e0367          	jalr	t1,t3
   10d6c:	00000013          	nop

0000000000010d70 <_ZNKSt5ctypeIcE13_M_widen_initEv@plt>:
   10d70:	00009e17          	auipc	t3,0x9
   10d74:	2e0e3e03          	ld	t3,736(t3) # 1a050 <_ZNKSt5ctypeIcE13_M_widen_initEv@GLIBCXX_3.4.11>
   10d78:	000e0367          	jalr	t1,t3
   10d7c:	00000013          	nop

0000000000010d80 <_ZSt16__throw_bad_castv@plt>:
   10d80:	00009e17          	auipc	t3,0x9
   10d84:	2d8e3e03          	ld	t3,728(t3) # 1a058 <_ZSt16__throw_bad_castv@GLIBCXX_3.4>
   10d88:	000e0367          	jalr	t1,t3
   10d8c:	00000013          	nop

0000000000010d90 <memset@plt>:
   10d90:	00009e17          	auipc	t3,0x9
   10d94:	2d0e3e03          	ld	t3,720(t3) # 1a060 <memset@GLIBC_2.27>
   10d98:	000e0367          	jalr	t1,t3
   10d9c:	00000013          	nop

0000000000010da0 <_ZNSt13random_device9_M_getvalEv@plt>:
   10da0:	00009e17          	auipc	t3,0x9
   10da4:	2c8e3e03          	ld	t3,712(t3) # 1a068 <_ZNSt13random_device9_M_getvalEv@GLIBCXX_3.4.18>
   10da8:	000e0367          	jalr	t1,t3
   10dac:	00000013          	nop

0000000000010db0 <_ZdaPvSt11align_val_t@plt>:
   10db0:	00009e17          	auipc	t3,0x9
   10db4:	2c0e3e03          	ld	t3,704(t3) # 1a070 <_ZdaPvSt11align_val_t@CXXABI_1.3.11>
   10db8:	000e0367          	jalr	t1,t3
   10dbc:	00000013          	nop

0000000000010dc0 <_ZNSo9_M_insertIdEERSoT_@plt>:
   10dc0:	00009e17          	auipc	t3,0x9
   10dc4:	2b8e3e03          	ld	t3,696(t3) # 1a078 <_ZNSo9_M_insertIdEERSoT_@GLIBCXX_3.4.9>
   10dc8:	000e0367          	jalr	t1,t3
   10dcc:	00000013          	nop

0000000000010dd0 <_ZNSt13random_device7_M_initERKNSt7__cxx1112basic_stringIcSt11char_traitsIcESaIcEEE@plt>:
   10dd0:	00009e17          	auipc	t3,0x9
   10dd4:	2b0e3e03          	ld	t3,688(t3) # 1a080 <_ZNSt13random_device7_M_initERKNSt7__cxx1112basic_stringIcSt11char_traitsIcESaIcEEE@GLIBCXX_3.4.21>
   10dd8:	000e0367          	jalr	t1,t3
   10ddc:	00000013          	nop

0000000000010de0 <__cxa_atexit@plt>:
   10de0:	00009e17          	auipc	t3,0x9
   10de4:	2a8e3e03          	ld	t3,680(t3) # 1a088 <__cxa_atexit@GLIBC_2.27>
   10de8:	000e0367          	jalr	t1,t3
   10dec:	00000013          	nop

Disassembly of section .text:

0000000000010df0 <main>:
   10df0:	fb010113          	addi	sp,sp,-80
   10df4:	00006597          	auipc	a1,0x6
   10df8:	21c58593          	addi	a1,a1,540 # 17010 <_IO_stdin_used+0x170>
   10dfc:	00010513          	mv	a0,sp
   10e00:	04113423          	sd	ra,72(sp)
   10e04:	02813c27          	fsd	fs0,56(sp)
   10e08:	02913827          	fsd	fs1,48(sp)
   10e0c:	03213427          	fsd	fs2,40(sp)
   10e10:	03313027          	fsd	fs3,32(sp)
   10e14:	04813023          	sd	s0,64(sp)
   10e18:	630000ef          	jal	11448 <_ZNSt7__cxx1112basic_stringIcSt11char_traitsIcESaIcEEC2IS3_EEPKcRKS3_.constprop.0>
   10e1c:	00006797          	auipc	a5,0x6
   10e20:	1807a407          	flw	fs0,384(a5) # 16f9c <_IO_stdin_used+0xfc>
   10e24:	00006797          	auipc	a5,0x6
   10e28:	17c7a487          	flw	fs1,380(a5) # 16fa0 <_IO_stdin_used+0x100>
   10e2c:	00010513          	mv	a0,sp
   10e30:	208405d3          	fmv.s	fa1,fs0
   10e34:	20948553          	fmv.s	fa0,fs1
   10e38:	060020ef          	jal	12e98 <_Z19benchmark_ntt_unaryIN6nncase3ntt3ops3absEfLm4EEvNSt7__cxx1112basic_stringIcSt11char_traitsIcESaIcEEET0_SA_>
   10e3c:	00010513          	mv	a0,sp
   10e40:	6d0000ef          	jal	11510 <_ZNSt7__cxx1112basic_stringIcSt11char_traitsIcESaIcEE10_M_disposeEv>
   10e44:	00006597          	auipc	a1,0x6
   10e48:	1d458593          	addi	a1,a1,468 # 17018 <_IO_stdin_used+0x178>
   10e4c:	00010513          	mv	a0,sp
   10e50:	5f8000ef          	jal	11448 <_ZNSt7__cxx1112basic_stringIcSt11char_traitsIcESaIcEEC2IS3_EEPKcRKS3_.constprop.0>
   10e54:	00006797          	auipc	a5,0x6
   10e58:	0687a907          	flw	fs2,104(a5) # 16ebc <_IO_stdin_used+0x1c>
   10e5c:	00006797          	auipc	a5,0x6
   10e60:	0bc7a987          	flw	fs3,188(a5) # 16f18 <_IO_stdin_used+0x78>
   10e64:	00010513          	mv	a0,sp
   10e68:	212905d3          	fmv.s	fa1,fs2
   10e6c:	21398553          	fmv.s	fa0,fs3
   10e70:	7a9040ef          	jal	15e18 <_Z19benchmark_ntt_unaryIN6nncase3ntt3ops4acosEfLm4EEvNSt7__cxx1112basic_stringIcSt11char_traitsIcESaIcEEET0_SA_>
   10e74:	00010513          	mv	a0,sp
   10e78:	698000ef          	jal	11510 <_ZNSt7__cxx1112basic_stringIcSt11char_traitsIcESaIcEE10_M_disposeEv>
   10e7c:	00006597          	auipc	a1,0x6
   10e80:	1a458593          	addi	a1,a1,420 # 17020 <_IO_stdin_used+0x180>
   10e84:	00010513          	mv	a0,sp
   10e88:	5c0000ef          	jal	11448 <_ZNSt7__cxx1112basic_stringIcSt11char_traitsIcESaIcEEC2IS3_EEPKcRKS3_.constprop.0>
   10e8c:	208405d3          	fmv.s	fa1,fs0
   10e90:	21290553          	fmv.s	fa0,fs2
   10e94:	00010513          	mv	a0,sp
   10e98:	784050ef          	jal	1661c <_Z19benchmark_ntt_unaryIN6nncase3ntt3ops5acoshEfLm4EEvNSt7__cxx1112basic_stringIcSt11char_traitsIcESaIcEEET0_SA_>
   10e9c:	00010513          	mv	a0,sp
   10ea0:	670000ef          	jal	11510 <_ZNSt7__cxx1112basic_stringIcSt11char_traitsIcESaIcEE10_M_disposeEv>
   10ea4:	00006597          	auipc	a1,0x6
   10ea8:	18458593          	addi	a1,a1,388 # 17028 <_IO_stdin_used+0x188>
   10eac:	00010513          	mv	a0,sp
   10eb0:	598000ef          	jal	11448 <_ZNSt7__cxx1112basic_stringIcSt11char_traitsIcESaIcEEC2IS3_EEPKcRKS3_.constprop.0>
   10eb4:	212905d3          	fmv.s	fa1,fs2
   10eb8:	21398553          	fmv.s	fa0,fs3
   10ebc:	00010513          	mv	a0,sp
   10ec0:	379040ef          	jal	15a38 <_Z19benchmark_ntt_unaryIN6nncase3ntt3ops4asinEfLm4EEvNSt7__cxx1112basic_stringIcSt11char_traitsIcESaIcEEET0_SA_>
   10ec4:	00010513          	mv	a0,sp
   10ec8:	648000ef          	jal	11510 <_ZNSt7__cxx1112basic_stringIcSt11char_traitsIcESaIcEE10_M_disposeEv>
   10ecc:	00006597          	auipc	a1,0x6
   10ed0:	16458593          	addi	a1,a1,356 # 17030 <_IO_stdin_used+0x190>
   10ed4:	00010513          	mv	a0,sp
   10ed8:	570000ef          	jal	11448 <_ZNSt7__cxx1112basic_stringIcSt11char_traitsIcESaIcEEC2IS3_EEPKcRKS3_.constprop.0>
   10edc:	208405d3          	fmv.s	fa1,fs0
   10ee0:	20948553          	fmv.s	fa0,fs1
   10ee4:	00010513          	mv	a0,sp
   10ee8:	365050ef          	jal	16a4c <_Z19benchmark_ntt_unaryIN6nncase3ntt3ops5asinhEfLm4EEvNSt7__cxx1112basic_stringIcSt11char_traitsIcESaIcEEET0_SA_>
   10eec:	00010513          	mv	a0,sp
   10ef0:	620000ef          	jal	11510 <_ZNSt7__cxx1112basic_stringIcSt11char_traitsIcESaIcEE10_M_disposeEv>
   10ef4:	00006597          	auipc	a1,0x6
   10ef8:	14458593          	addi	a1,a1,324 # 17038 <_IO_stdin_used+0x198>
   10efc:	00010513          	mv	a0,sp
   10f00:	548000ef          	jal	11448 <_ZNSt7__cxx1112basic_stringIcSt11char_traitsIcESaIcEEC2IS3_EEPKcRKS3_.constprop.0>
   10f04:	208405d3          	fmv.s	fa1,fs0
   10f08:	20948553          	fmv.s	fa0,fs1
   10f0c:	00010513          	mv	a0,sp
   10f10:	6c9020ef          	jal	13dd8 <_Z19benchmark_ntt_unaryIN6nncase3ntt3ops4ceilEfLm4EEvNSt7__cxx1112basic_stringIcSt11char_traitsIcESaIcEEET0_SA_>
   10f14:	00010513          	mv	a0,sp
   10f18:	5f8000ef          	jal	11510 <_ZNSt7__cxx1112basic_stringIcSt11char_traitsIcESaIcEE10_M_disposeEv>
   10f1c:	00006597          	auipc	a1,0x6
   10f20:	12458593          	addi	a1,a1,292 # 17040 <_IO_stdin_used+0x1a0>
   10f24:	00010513          	mv	a0,sp
   10f28:	520000ef          	jal	11448 <_ZNSt7__cxx1112basic_stringIcSt11char_traitsIcESaIcEEC2IS3_EEPKcRKS3_.constprop.0>
   10f2c:	208405d3          	fmv.s	fa1,fs0
   10f30:	20948553          	fmv.s	fa0,fs1
   10f34:	00010513          	mv	a0,sp
   10f38:	3c8040ef          	jal	15300 <_Z19benchmark_ntt_unaryIN6nncase3ntt3ops3cosEfLm4EEvNSt7__cxx1112basic_stringIcSt11char_traitsIcESaIcEEET0_SA_>
   10f3c:	00010513          	mv	a0,sp
   10f40:	5d0000ef          	jal	11510 <_ZNSt7__cxx1112basic_stringIcSt11char_traitsIcESaIcEE10_M_disposeEv>
   10f44:	00006597          	auipc	a1,0x6
   10f48:	10458593          	addi	a1,a1,260 # 17048 <_IO_stdin_used+0x1a8>
   10f4c:	00010513          	mv	a0,sp
   10f50:	4f8000ef          	jal	11448 <_ZNSt7__cxx1112basic_stringIcSt11char_traitsIcESaIcEEC2IS3_EEPKcRKS3_.constprop.0>
   10f54:	208405d3          	fmv.s	fa1,fs0
   10f58:	20948553          	fmv.s	fa0,fs1
   10f5c:	00010513          	mv	a0,sp
   10f60:	6b0010ef          	jal	12610 <_Z19benchmark_ntt_unaryIN6nncase3ntt3ops4coshEfLm4EEvNSt7__cxx1112basic_stringIcSt11char_traitsIcESaIcEEET0_SA_>
   10f64:	00010513          	mv	a0,sp
   10f68:	5a8000ef          	jal	11510 <_ZNSt7__cxx1112basic_stringIcSt11char_traitsIcESaIcEE10_M_disposeEv>
   10f6c:	00006597          	auipc	a1,0x6
   10f70:	0e458593          	addi	a1,a1,228 # 17050 <_IO_stdin_used+0x1b0>
   10f74:	00010513          	mv	a0,sp
   10f78:	4d0000ef          	jal	11448 <_ZNSt7__cxx1112basic_stringIcSt11char_traitsIcESaIcEEC2IS3_EEPKcRKS3_.constprop.0>
   10f7c:	208405d3          	fmv.s	fa1,fs0
   10f80:	20948553          	fmv.s	fa0,fs1
   10f84:	00010513          	mv	a0,sp
   10f88:	004040ef          	jal	14f8c <_Z19benchmark_ntt_unaryIN6nncase3ntt3ops3erfEfLm4EEvNSt7__cxx1112basic_stringIcSt11char_traitsIcESaIcEEET0_SA_>
   10f8c:	00010513          	mv	a0,sp
   10f90:	580000ef          	jal	11510 <_ZNSt7__cxx1112basic_stringIcSt11char_traitsIcESaIcEE10_M_disposeEv>
   10f94:	00006597          	auipc	a1,0x6
   10f98:	0c458593          	addi	a1,a1,196 # 17058 <_IO_stdin_used+0x1b8>
   10f9c:	00010513          	mv	a0,sp
   10fa0:	4a8000ef          	jal	11448 <_ZNSt7__cxx1112basic_stringIcSt11char_traitsIcESaIcEEC2IS3_EEPKcRKS3_.constprop.0>
   10fa4:	208405d3          	fmv.s	fa1,fs0
   10fa8:	20948553          	fmv.s	fa0,fs1
   10fac:	00010513          	mv	a0,sp
   10fb0:	3b8010ef          	jal	12368 <_Z19benchmark_ntt_unaryIN6nncase3ntt3ops3expEfLm4EEvNSt7__cxx1112basic_stringIcSt11char_traitsIcESaIcEEET0_SA_>
   10fb4:	00010513          	mv	a0,sp
   10fb8:	558000ef          	jal	11510 <_ZNSt7__cxx1112basic_stringIcSt11char_traitsIcESaIcEE10_M_disposeEv>
   10fbc:	00006597          	auipc	a1,0x6
   10fc0:	0a458593          	addi	a1,a1,164 # 17060 <_IO_stdin_used+0x1c0>
   10fc4:	00010513          	mv	a0,sp
   10fc8:	480000ef          	jal	11448 <_ZNSt7__cxx1112basic_stringIcSt11char_traitsIcESaIcEEC2IS3_EEPKcRKS3_.constprop.0>
   10fcc:	208405d3          	fmv.s	fa1,fs0
   10fd0:	20948553          	fmv.s	fa0,fs1
   10fd4:	00010513          	mv	a0,sp
   10fd8:	2c0030ef          	jal	14298 <_Z19benchmark_ntt_unaryIN6nncase3ntt3ops5floorEfLm4EEvNSt7__cxx1112basic_stringIcSt11char_traitsIcESaIcEEET0_SA_>
   10fdc:	00010513          	mv	a0,sp
   10fe0:	530000ef          	jal	11510 <_ZNSt7__cxx1112basic_stringIcSt11char_traitsIcESaIcEE10_M_disposeEv>
   10fe4:	00006597          	auipc	a1,0x6
   10fe8:	08458593          	addi	a1,a1,132 # 17068 <_IO_stdin_used+0x1c8>
   10fec:	00010513          	mv	a0,sp
   10ff0:	458000ef          	jal	11448 <_ZNSt7__cxx1112basic_stringIcSt11char_traitsIcESaIcEEC2IS3_EEPKcRKS3_.constprop.0>
   10ff4:	208405d3          	fmv.s	fa1,fs0
   10ff8:	20948553          	fmv.s	fa0,fs1
   10ffc:	00010513          	mv	a0,sp
   11000:	214050ef          	jal	16214 <_Z19benchmark_ntt_unaryIN6nncase3ntt3ops3logEfLm4EEvNSt7__cxx1112basic_stringIcSt11char_traitsIcESaIcEEET0_SA_>
   11004:	00010513          	mv	a0,sp
   11008:	508000ef          	jal	11510 <_ZNSt7__cxx1112basic_stringIcSt11char_traitsIcESaIcEE10_M_disposeEv>
   1100c:	00006597          	auipc	a1,0x6
   11010:	06458593          	addi	a1,a1,100 # 17070 <_IO_stdin_used+0x1d0>
   11014:	00010513          	mv	a0,sp
   11018:	430000ef          	jal	11448 <_ZNSt7__cxx1112basic_stringIcSt11char_traitsIcESaIcEEC2IS3_EEPKcRKS3_.constprop.0>
   1101c:	208405d3          	fmv.s	fa1,fs0
   11020:	20948553          	fmv.s	fa0,fs1
   11024:	00010513          	mv	a0,sp
   11028:	230020ef          	jal	13258 <_Z19benchmark_ntt_unaryIN6nncase3ntt3ops3negEfLm4EEvNSt7__cxx1112basic_stringIcSt11char_traitsIcESaIcEEET0_SA_>
   1102c:	00010513          	mv	a0,sp
   11030:	4e0000ef          	jal	11510 <_ZNSt7__cxx1112basic_stringIcSt11char_traitsIcESaIcEE10_M_disposeEv>
   11034:	00006597          	auipc	a1,0x6
   11038:	04458593          	addi	a1,a1,68 # 17078 <_IO_stdin_used+0x1d8>
   1103c:	00010513          	mv	a0,sp
   11040:	408000ef          	jal	11448 <_ZNSt7__cxx1112basic_stringIcSt11char_traitsIcESaIcEEC2IS3_EEPKcRKS3_.constprop.0>
   11044:	208405d3          	fmv.s	fa1,fs0
   11048:	20948553          	fmv.s	fa0,fs1
   1104c:	00010513          	mv	a0,sp
   11050:	189020ef          	jal	139d8 <_Z19benchmark_ntt_unaryIN6nncase3ntt3ops5roundEfLm4EEvNSt7__cxx1112basic_stringIcSt11char_traitsIcESaIcEEET0_SA_>
   11054:	00010513          	mv	a0,sp
   11058:	4b8000ef          	jal	11510 <_ZNSt7__cxx1112basic_stringIcSt11char_traitsIcESaIcEE10_M_disposeEv>
   1105c:	00006597          	auipc	a1,0x6
   11060:	02458593          	addi	a1,a1,36 # 17080 <_IO_stdin_used+0x1e0>
   11064:	00010513          	mv	a0,sp
   11068:	3e0000ef          	jal	11448 <_ZNSt7__cxx1112basic_stringIcSt11char_traitsIcESaIcEEC2IS3_EEPKcRKS3_.constprop.0>
   1106c:	208405d3          	fmv.s	fa1,fs0
   11070:	21290553          	fmv.s	fa0,fs2
   11074:	00010513          	mv	a0,sp
   11078:	3f5030ef          	jal	14c6c <_Z19benchmark_ntt_unaryIN6nncase3ntt3ops5rsqrtEfLm4EEvNSt7__cxx1112basic_stringIcSt11char_traitsIcESaIcEEET0_SA_>
   1107c:	00010513          	mv	a0,sp
   11080:	490000ef          	jal	11510 <_ZNSt7__cxx1112basic_stringIcSt11char_traitsIcESaIcEE10_M_disposeEv>
   11084:	00006597          	auipc	a1,0x6
   11088:	00458593          	addi	a1,a1,4 # 17088 <_IO_stdin_used+0x1e8>
   1108c:	00010513          	mv	a0,sp
   11090:	3b8000ef          	jal	11448 <_ZNSt7__cxx1112basic_stringIcSt11char_traitsIcESaIcEEC2IS3_EEPKcRKS3_.constprop.0>
   11094:	208405d3          	fmv.s	fa1,fs0
   11098:	20948553          	fmv.s	fa0,fs1
   1109c:	00010513          	mv	a0,sp
   110a0:	6b8030ef          	jal	14758 <_Z19benchmark_ntt_unaryIN6nncase3ntt3ops4signEfLm4EEvNSt7__cxx1112basic_stringIcSt11char_traitsIcESaIcEEET0_SA_>
   110a4:	00010513          	mv	a0,sp
   110a8:	468000ef          	jal	11510 <_ZNSt7__cxx1112basic_stringIcSt11char_traitsIcESaIcEE10_M_disposeEv>
   110ac:	00006597          	auipc	a1,0x6
   110b0:	fe458593          	addi	a1,a1,-28 # 17090 <_IO_stdin_used+0x1f0>
   110b4:	00010513          	mv	a0,sp
   110b8:	390000ef          	jal	11448 <_ZNSt7__cxx1112basic_stringIcSt11char_traitsIcESaIcEEC2IS3_EEPKcRKS3_.constprop.0>
   110bc:	208405d3          	fmv.s	fa1,fs0
   110c0:	20948553          	fmv.s	fa0,fs1
   110c4:	00010513          	mv	a0,sp
   110c8:	5e0040ef          	jal	156a8 <_Z19benchmark_ntt_unaryIN6nncase3ntt3ops3sinEfLm4EEvNSt7__cxx1112basic_stringIcSt11char_traitsIcESaIcEEET0_SA_>
   110cc:	00010513          	mv	a0,sp
   110d0:	440000ef          	jal	11510 <_ZNSt7__cxx1112basic_stringIcSt11char_traitsIcESaIcEE10_M_disposeEv>
   110d4:	00006597          	auipc	a1,0x6
   110d8:	fc458593          	addi	a1,a1,-60 # 17098 <_IO_stdin_used+0x1f8>
   110dc:	00010513          	mv	a0,sp
   110e0:	368000ef          	jal	11448 <_ZNSt7__cxx1112basic_stringIcSt11char_traitsIcESaIcEEC2IS3_EEPKcRKS3_.constprop.0>
   110e4:	208405d3          	fmv.s	fa1,fs0
   110e8:	20948553          	fmv.s	fa0,fs1
   110ec:	00010513          	mv	a0,sp
   110f0:	7f8010ef          	jal	128e8 <_Z19benchmark_ntt_unaryIN6nncase3ntt3ops4sinhEfLm4EEvNSt7__cxx1112basic_stringIcSt11char_traitsIcESaIcEEET0_SA_>
   110f4:	00010513          	mv	a0,sp
   110f8:	418000ef          	jal	11510 <_ZNSt7__cxx1112basic_stringIcSt11char_traitsIcESaIcEE10_M_disposeEv>
   110fc:	00006597          	auipc	a1,0x6
   11100:	fa458593          	addi	a1,a1,-92 # 170a0 <_IO_stdin_used+0x200>
   11104:	00010513          	mv	a0,sp
   11108:	340000ef          	jal	11448 <_ZNSt7__cxx1112basic_stringIcSt11char_traitsIcESaIcEEC2IS3_EEPKcRKS3_.constprop.0>
   1110c:	208405d3          	fmv.s	fa1,fs0
   11110:	21290553          	fmv.s	fa0,fs2
   11114:	00010513          	mv	a0,sp
   11118:	7d5000ef          	jal	120ec <_Z19benchmark_ntt_unaryIN6nncase3ntt3ops4sqrtEfLm4EEvNSt7__cxx1112basic_stringIcSt11char_traitsIcESaIcEEET0_SA_>
   1111c:	00010513          	mv	a0,sp
   11120:	3f0000ef          	jal	11510 <_ZNSt7__cxx1112basic_stringIcSt11char_traitsIcESaIcEE10_M_disposeEv>
   11124:	00006597          	auipc	a1,0x6
   11128:	f8458593          	addi	a1,a1,-124 # 170a8 <_IO_stdin_used+0x208>
   1112c:	00010513          	mv	a0,sp
   11130:	318000ef          	jal	11448 <_ZNSt7__cxx1112basic_stringIcSt11char_traitsIcESaIcEEC2IS3_EEPKcRKS3_.constprop.0>
   11134:	208405d3          	fmv.s	fa1,fs0
   11138:	20948553          	fmv.s	fa0,fs1
   1113c:	00010513          	mv	a0,sp
   11140:	4d8020ef          	jal	13618 <_Z19benchmark_ntt_unaryIN6nncase3ntt3ops6squareEfLm4EEvNSt7__cxx1112basic_stringIcSt11char_traitsIcESaIcEEET0_SA_>
   11144:	00010513          	mv	a0,sp
   11148:	3c8000ef          	jal	11510 <_ZNSt7__cxx1112basic_stringIcSt11char_traitsIcESaIcEE10_M_disposeEv>
   1114c:	00006597          	auipc	a1,0x6
   11150:	f6458593          	addi	a1,a1,-156 # 170b0 <_IO_stdin_used+0x210>
   11154:	00010513          	mv	a0,sp
   11158:	2f0000ef          	jal	11448 <_ZNSt7__cxx1112basic_stringIcSt11char_traitsIcESaIcEEC2IS3_EEPKcRKS3_.constprop.0>
   1115c:	208405d3          	fmv.s	fa1,fs0
   11160:	20948553          	fmv.s	fa0,fs1
   11164:	00010513          	mv	a0,sp
   11168:	259010ef          	jal	12bc0 <_Z19benchmark_ntt_unaryIN6nncase3ntt3ops5swishEfLm4EEvNSt7__cxx1112basic_stringIcSt11char_traitsIcESaIcEEET0_SA_>
   1116c:	00010513          	mv	a0,sp
   11170:	3a0000ef          	jal	11510 <_ZNSt7__cxx1112basic_stringIcSt11char_traitsIcESaIcEE10_M_disposeEv>
   11174:	00010513          	mv	a0,sp
   11178:	00006597          	auipc	a1,0x6
   1117c:	f4058593          	addi	a1,a1,-192 # 170b8 <_IO_stdin_used+0x218>
   11180:	2c8000ef          	jal	11448 <_ZNSt7__cxx1112basic_stringIcSt11char_traitsIcESaIcEEC2IS3_EEPKcRKS3_.constprop.0>
   11184:	208405d3          	fmv.s	fa1,fs0
   11188:	20948553          	fmv.s	fa0,fs1
   1118c:	00010513          	mv	a0,sp
   11190:	1e9000ef          	jal	11b78 <_Z19benchmark_ntt_unaryIN6nncase3ntt3ops4tanhEfLm4EEvNSt7__cxx1112basic_stringIcSt11char_traitsIcESaIcEEET0_SA_>
   11194:	00010513          	mv	a0,sp
   11198:	378000ef          	jal	11510 <_ZNSt7__cxx1112basic_stringIcSt11char_traitsIcESaIcEE10_M_disposeEv>
   1119c:	04813083          	ld	ra,72(sp)
   111a0:	04013403          	ld	s0,64(sp)
   111a4:	03813407          	fld	fs0,56(sp)
   111a8:	03013487          	fld	fs1,48(sp)
   111ac:	02813907          	fld	fs2,40(sp)
   111b0:	02013987          	fld	fs3,32(sp)
   111b4:	00000513          	li	a0,0
   111b8:	05010113          	addi	sp,sp,80
   111bc:	00008067          	ret

00000000000111c0 <_GLOBAL__sub_I_main>:
   111c0:	8201c783          	lbu	a5,-2016(gp) # 1a0b0 <_ZGVN6nncase3ntt11distributed21topology_synchronizerILNS1_8topologyE2EE9barriers_E>
   111c4:	ff010113          	addi	sp,sp,-16
   111c8:	00113423          	sd	ra,8(sp)
   111cc:	02079a63          	bnez	a5,11200 <_GLOBAL__sub_I_main+0x40>
   111d0:	00100593          	li	a1,1
   111d4:	82018713          	addi	a4,gp,-2016 # 1a0b0 <_ZGVN6nncase3ntt11distributed21topology_synchronizerILNS1_8topologyE2EE9barriers_E>
   111d8:	00000613          	li	a2,0
   111dc:	86818513          	addi	a0,gp,-1944 # 1a0f8 <_ZN6nncase3ntt11distributed21topology_synchronizerILNS1_8topologyE2EE9barriers_E>
   111e0:	00b70023          	sb	a1,0(a4)
   111e4:	34c000ef          	jal	11530 <_ZNSt14__tree_barrierISt18__empty_completionEC1ElS0_>
   111e8:	00009617          	auipc	a2,0x9
   111ec:	ea860613          	addi	a2,a2,-344 # 1a090 <__TMC_END__>
   111f0:	00000593          	li	a1,0
   111f4:	00000517          	auipc	a0,0x0
   111f8:	15450513          	addi	a0,a0,340 # 11348 <__tcf_0>
   111fc:	be5ff0ef          	jal	10de0 <__cxa_atexit@plt>
   11200:	8181c783          	lbu	a5,-2024(gp) # 1a0a8 <_ZGVN6nncase3ntt11distributed21topology_synchronizerILNS1_8topologyE1EE9barriers_E>
   11204:	81818713          	addi	a4,gp,-2024 # 1a0a8 <_ZGVN6nncase3ntt11distributed21topology_synchronizerILNS1_8topologyE1EE9barriers_E>
   11208:	02079863          	bnez	a5,11238 <_GLOBAL__sub_I_main+0x78>
   1120c:	00100593          	li	a1,1
   11210:	00000613          	li	a2,0
   11214:	84818513          	addi	a0,gp,-1976 # 1a0d8 <_ZN6nncase3ntt11distributed21topology_synchronizerILNS1_8topologyE1EE9barriers_E>
   11218:	00b70023          	sb	a1,0(a4)
   1121c:	314000ef          	jal	11530 <_ZNSt14__tree_barrierISt18__empty_completionEC1ElS0_>
   11220:	00009617          	auipc	a2,0x9
   11224:	e7060613          	addi	a2,a2,-400 # 1a090 <__TMC_END__>
   11228:	00000593          	li	a1,0
   1122c:	00000517          	auipc	a0,0x0
   11230:	13050513          	addi	a0,a0,304 # 1135c <__tcf_1>
   11234:	badff0ef          	jal	10de0 <__cxa_atexit@plt>
   11238:	8101c783          	lbu	a5,-2032(gp) # 1a0a0 <_ZGVN6nncase3ntt11distributed21topology_synchronizerILNS1_8topologyE0EE8barrier_E>
   1123c:	81018713          	addi	a4,gp,-2032 # 1a0a0 <_ZGVN6nncase3ntt11distributed21topology_synchronizerILNS1_8topologyE0EE8barrier_E>
   11240:	00078863          	beqz	a5,11250 <_GLOBAL__sub_I_main+0x90>
   11244:	00813083          	ld	ra,8(sp)
   11248:	01010113          	addi	sp,sp,16
   1124c:	00008067          	ret
   11250:	00100593          	li	a1,1
   11254:	00000613          	li	a2,0
   11258:	82818513          	addi	a0,gp,-2008 # 1a0b8 <_ZN6nncase3ntt11distributed21topology_synchronizerILNS1_8topologyE0EE8barrier_E>
   1125c:	00b70023          	sb	a1,0(a4)
   11260:	2d0000ef          	jal	11530 <_ZNSt14__tree_barrierISt18__empty_completionEC1ElS0_>
   11264:	00813083          	ld	ra,8(sp)
   11268:	00009617          	auipc	a2,0x9
   1126c:	e2860613          	addi	a2,a2,-472 # 1a090 <__TMC_END__>
   11270:	82818593          	addi	a1,gp,-2008 # 1a0b8 <_ZN6nncase3ntt11distributed21topology_synchronizerILNS1_8topologyE0EE8barrier_E>
   11274:	00000517          	auipc	a0,0x0
   11278:	0c050513          	addi	a0,a0,192 # 11334 <_ZN6nncase3ntt11distributed6detail12chip_barrierD1Ev>
   1127c:	01010113          	addi	sp,sp,16
   11280:	b61ff06f          	j	10de0 <__cxa_atexit@plt>

0000000000011284 <_start>:
   11284:	024000ef          	jal	112a8 <load_gp>
   11288:	87aa                	mv	a5,a0
   1128a:	00000517          	auipc	a0,0x0
   1128e:	01c50513          	addi	a0,a0,28 # 112a6 <__wrap_main>
   11292:	6582                	ld	a1,0(sp)
   11294:	0030                	addi	a2,sp,8
   11296:	ff017113          	andi	sp,sp,-16
   1129a:	4681                	li	a3,0
   1129c:	4701                	li	a4,0
   1129e:	880a                	mv	a6,sp
   112a0:	a81ff0ef          	jal	10d20 <__libc_start_main@plt>
   112a4:	9002                	ebreak

00000000000112a6 <__wrap_main>:
   112a6:	b6a9                	j	10df0 <main>

00000000000112a8 <load_gp>:
   112a8:	00009197          	auipc	gp,0x9
   112ac:	5e818193          	addi	gp,gp,1512 # 1a890 <__global_pointer$>
   112b0:	8082                	ret
	...

00000000000112b4 <_dl_relocate_static_pie>:
   112b4:	8082                	ret

00000000000112b6 <deregister_tm_clones>:
   112b6:	00009517          	auipc	a0,0x9
   112ba:	dda50513          	addi	a0,a0,-550 # 1a090 <__TMC_END__>
   112be:	00009797          	auipc	a5,0x9
   112c2:	dd278793          	addi	a5,a5,-558 # 1a090 <__TMC_END__>
   112c6:	00a78663          	beq	a5,a0,112d2 <deregister_tm_clones+0x1c>
   112ca:	00000793          	li	a5,0
   112ce:	c391                	beqz	a5,112d2 <deregister_tm_clones+0x1c>
   112d0:	8782                	jr	a5
   112d2:	8082                	ret

00000000000112d4 <register_tm_clones>:
   112d4:	00009517          	auipc	a0,0x9
   112d8:	dbc50513          	addi	a0,a0,-580 # 1a090 <__TMC_END__>
   112dc:	00009597          	auipc	a1,0x9
   112e0:	db458593          	addi	a1,a1,-588 # 1a090 <__TMC_END__>
   112e4:	8d89                	sub	a1,a1,a0
   112e6:	4035d793          	srai	a5,a1,0x3
   112ea:	91fd                	srli	a1,a1,0x3f
   112ec:	95be                	add	a1,a1,a5
   112ee:	8585                	srai	a1,a1,0x1
   112f0:	c589                	beqz	a1,112fa <register_tm_clones+0x26>
   112f2:	00000793          	li	a5,0
   112f6:	c391                	beqz	a5,112fa <register_tm_clones+0x26>
   112f8:	8782                	jr	a5
   112fa:	8082                	ret

00000000000112fc <__do_global_dtors_aux>:
   112fc:	00009797          	auipc	a5,0x9
   11300:	d9c7c783          	lbu	a5,-612(a5) # 1a098 <completed.0>
   11304:	e38d                	bnez	a5,11326 <__do_global_dtors_aux+0x2a>
   11306:	1141                	addi	sp,sp,-16
   11308:	e022                	sd	s0,0(sp)
   1130a:	e406                	sd	ra,8(sp)
   1130c:	fabff0ef          	jal	112b6 <deregister_tm_clones>
   11310:	00009417          	auipc	s0,0x9
   11314:	d8840413          	addi	s0,s0,-632 # 1a098 <completed.0>
   11318:	4785                	li	a5,1
   1131a:	60a2                	ld	ra,8(sp)
   1131c:	00f40023          	sb	a5,0(s0)
   11320:	6402                	ld	s0,0(sp)
   11322:	0141                	addi	sp,sp,16
   11324:	8082                	ret
   11326:	8082                	ret

0000000000011328 <frame_dummy>:
   11328:	b775                	j	112d4 <register_tm_clones>
	...

000000000001132c <_ZNKSt5ctypeIcE8do_widenEc>:
   1132c:	00058513          	mv	a0,a1
   11330:	00008067          	ret

0000000000011334 <_ZN6nncase3ntt11distributed6detail12chip_barrierD1Ev>:
   11334:	00853503          	ld	a0,8(a0)
   11338:	00050663          	beqz	a0,11344 <_ZN6nncase3ntt11distributed6detail12chip_barrierD1Ev+0x10>
   1133c:	04000593          	li	a1,64
   11340:	a71ff06f          	j	10db0 <_ZdaPvSt11align_val_t@plt>
   11344:	00008067          	ret

0000000000011348 <__tcf_0>:
   11348:	8701b503          	ld	a0,-1936(gp) # 1a100 <_ZN6nncase3ntt11distributed21topology_synchronizerILNS1_8topologyE2EE9barriers_E+0x8>
   1134c:	00050663          	beqz	a0,11358 <__tcf_0+0x10>
   11350:	04000593          	li	a1,64
   11354:	a5dff06f          	j	10db0 <_ZdaPvSt11align_val_t@plt>
   11358:	00008067          	ret

000000000001135c <__tcf_1>:
   1135c:	8501b503          	ld	a0,-1968(gp) # 1a0e0 <_ZN6nncase3ntt11distributed21topology_synchronizerILNS1_8topologyE1EE9barriers_E+0x8>
   11360:	00050663          	beqz	a0,1136c <__tcf_1+0x10>
   11364:	04000593          	li	a1,64
   11368:	a49ff06f          	j	10db0 <_ZdaPvSt11align_val_t@plt>
   1136c:	00008067          	ret

0000000000011370 <_ZL6exp_psu17__rvv_float32m1_tm.constprop.0>:
   11370:	00006797          	auipc	a5,0x6
   11374:	b447a787          	flw	fa5,-1212(a5) # 16eb4 <_IO_stdin_used+0x14>
   11378:	00006797          	auipc	a5,0x6
   1137c:	b407a707          	flw	fa4,-1216(a5) # 16eb8 <_IO_stdin_used+0x18>
   11380:	00006797          	auipc	a5,0x6
   11384:	b247a687          	flw	fa3,-1244(a5) # 16ea4 <_IO_stdin_used+0x4>
   11388:	cd027057          	vsetivli	zero,4,e32,m1,ta,ma
   1138c:	1287d4d7          	vfmin.vf	v9,v8,fa5
   11390:	00006797          	auipc	a5,0x6
   11394:	b207a787          	flw	fa5,-1248(a5) # 16eb0 <_IO_stdin_used+0x10>
   11398:	5e06d057          	vfmv.v.f	v0,fa3
   1139c:	1a9754d7          	vfmax.vf	v9,v9,fa4
   113a0:	5e07d7d7          	vfmv.v.f	v15,fa5
   113a4:	00006797          	auipc	a5,0x6
   113a8:	b187a787          	flw	fa5,-1256(a5) # 16ebc <_IO_stdin_used+0x1c>
   113ac:	00006797          	auipc	a5,0x6
   113b0:	b187a687          	flw	fa3,-1256(a5) # 16ec4 <_IO_stdin_used+0x24>
   113b4:	a2f49057          	vfmadd.vv	v0,v9,v15
   113b8:	00006797          	auipc	a5,0x6
   113bc:	b147a707          	flw	fa4,-1260(a5) # 16ecc <_IO_stdin_used+0x2c>
   113c0:	00006797          	auipc	a5,0x6
   113c4:	ae87a007          	flw	ft0,-1304(a5) # 16ea8 <_IO_stdin_used+0x8>
   113c8:	00006797          	auipc	a5,0x6
   113cc:	af87a507          	flw	fa0,-1288(a5) # 16ec0 <_IO_stdin_used+0x20>
   113d0:	00006797          	auipc	a5,0x6
   113d4:	adc7a587          	flw	fa1,-1316(a5) # 16eac <_IO_stdin_used+0xc>
   113d8:	00006797          	auipc	a5,0x6
   113dc:	af07a607          	flw	fa2,-1296(a5) # 16ec8 <_IO_stdin_used+0x28>
   113e0:	4a0095d7          	vfcvt.x.f.v	v11,v0
   113e4:	5e0058d7          	vfmv.v.f	v17,ft0
   113e8:	5e055557          	vfmv.v.f	v10,fa0
   113ec:	4ab195d7          	vfcvt.f.x.v	v11,v11
   113f0:	5e05d857          	vfmv.v.f	v16,fa1
   113f4:	5e0656d7          	vfmv.v.f	v13,fa2
   113f8:	6e059057          	vmflt.vv	v0,v0,v11
   113fc:	00006797          	auipc	a5,0x6
   11400:	ad47a607          	flw	fa2,-1324(a5) # 16ed0 <_IO_stdin_used+0x30>
   11404:	08b7d5d7          	vfsub.vf	v11,v11,fa5,v0.t
   11408:	5e065657          	vfmv.v.f	v12,fa2
   1140c:	beb6d4d7          	vfnmsac.vf	v9,fa3,v11
   11410:	4ab09757          	vfcvt.x.f.v	v14,v11
   11414:	96ebb757          	vsll.vi	v14,v14,23
   11418:	beb754d7          	vfnmsac.vf	v9,fa4,v11
   1141c:	9ea03457          	vmv1r.v	v8,v10
   11420:	a3149457          	vfmadd.vv	v8,v9,v17
   11424:	a30496d7          	vfmadd.vv	v13,v9,v16
   11428:	92949557          	vfmul.vv	v10,v9,v9
   1142c:	a2f49657          	vfmadd.vv	v12,v9,v15
   11430:	0297d4d7          	vfadd.vf	v9,v9,fa5
   11434:	a2d51457          	vfmadd.vv	v8,v10,v13
   11438:	a2c51457          	vfmadd.vv	v8,v10,v12
   1143c:	a2951457          	vfmadd.vv	v8,v10,v9
   11440:	02e40457          	vadd.vv	v8,v14,v8
   11444:	00008067          	ret

0000000000011448 <_ZNSt7__cxx1112basic_stringIcSt11char_traitsIcESaIcEEC2IS3_EEPKcRKS3_.constprop.0>:
   11448:	fd010113          	addi	sp,sp,-48
   1144c:	02813023          	sd	s0,32(sp)
   11450:	02113423          	sd	ra,40(sp)
   11454:	00913c23          	sd	s1,24(sp)
   11458:	01213823          	sd	s2,16(sp)
   1145c:	01313423          	sd	s3,8(sp)
   11460:	01050413          	addi	s0,a0,16
   11464:	00853023          	sd	s0,0(a0)
   11468:	08058e63          	beqz	a1,11504 <_ZNSt7__cxx1112basic_stringIcSt11char_traitsIcESaIcEEC2IS3_EEPKcRKS3_.constprop.0+0xbc>
   1146c:	00050913          	mv	s2,a0
   11470:	00058513          	mv	a0,a1
   11474:	00058993          	mv	s3,a1
   11478:	879ff0ef          	jal	10cf0 <strlen@plt>
   1147c:	00f00793          	li	a5,15
   11480:	00050493          	mv	s1,a0
   11484:	04a7e263          	bltu	a5,a0,114c8 <_ZNSt7__cxx1112basic_stringIcSt11char_traitsIcESaIcEEC2IS3_EEPKcRKS3_.constprop.0+0x80>
   11488:	00100793          	li	a5,1
   1148c:	02f50863          	beq	a0,a5,114bc <_ZNSt7__cxx1112basic_stringIcSt11char_traitsIcESaIcEEC2IS3_EEPKcRKS3_.constprop.0+0x74>
   11490:	04051663          	bnez	a0,114dc <_ZNSt7__cxx1112basic_stringIcSt11char_traitsIcESaIcEEC2IS3_EEPKcRKS3_.constprop.0+0x94>
   11494:	00993423          	sd	s1,8(s2)
   11498:	00940433          	add	s0,s0,s1
   1149c:	00040023          	sb	zero,0(s0)
   114a0:	02813083          	ld	ra,40(sp)
   114a4:	02013403          	ld	s0,32(sp)
   114a8:	01813483          	ld	s1,24(sp)
   114ac:	01013903          	ld	s2,16(sp)
   114b0:	00813983          	ld	s3,8(sp)
   114b4:	03010113          	addi	sp,sp,48
   114b8:	00008067          	ret
   114bc:	0009c783          	lbu	a5,0(s3)
   114c0:	00f90823          	sb	a5,16(s2)
   114c4:	fd1ff06f          	j	11494 <_ZNSt7__cxx1112basic_stringIcSt11char_traitsIcESaIcEEC2IS3_EEPKcRKS3_.constprop.0+0x4c>
   114c8:	00150513          	addi	a0,a0,1
   114cc:	875ff0ef          	jal	10d40 <_Znwm@plt>
   114d0:	00050413          	mv	s0,a0
   114d4:	00993823          	sd	s1,16(s2)
   114d8:	00a93023          	sd	a0,0(s2)
   114dc:	00048713          	mv	a4,s1
   114e0:	0c3777d7          	vsetvli	a5,a4,e8,m8,ta,ma
   114e4:	02098407          	vle8.v	v8,(s3)
   114e8:	40f70733          	sub	a4,a4,a5
   114ec:	00f989b3          	add	s3,s3,a5
   114f0:	02040427          	vse8.v	v8,(s0)
   114f4:	00f40433          	add	s0,s0,a5
   114f8:	fe0714e3          	bnez	a4,114e0 <_ZNSt7__cxx1112basic_stringIcSt11char_traitsIcESaIcEEC2IS3_EEPKcRKS3_.constprop.0+0x98>
   114fc:	00093403          	ld	s0,0(s2)
   11500:	f95ff06f          	j	11494 <_ZNSt7__cxx1112basic_stringIcSt11char_traitsIcESaIcEEC2IS3_EEPKcRKS3_.constprop.0+0x4c>
   11504:	00006517          	auipc	a0,0x6
   11508:	aa450513          	addi	a0,a0,-1372 # 16fa8 <_IO_stdin_used+0x108>
   1150c:	805ff0ef          	jal	10d10 <_ZSt19__throw_logic_errorPKc@plt>

0000000000011510 <_ZNSt7__cxx1112basic_stringIcSt11char_traitsIcESaIcEE10_M_disposeEv>:
   11510:	00050793          	mv	a5,a0
   11514:	00053503          	ld	a0,0(a0)
   11518:	01078713          	addi	a4,a5,16
   1151c:	00e50863          	beq	a0,a4,1152c <_ZNSt7__cxx1112basic_stringIcSt11char_traitsIcESaIcEE10_M_disposeEv+0x1c>
   11520:	0107b583          	ld	a1,16(a5)
   11524:	00158593          	addi	a1,a1,1
   11528:	829ff06f          	j	10d50 <_ZdlPvm@plt>
   1152c:	00008067          	ret

0000000000011530 <_ZNSt14__tree_barrierISt18__empty_completionEC1ElS0_>:
   11530:	fe010113          	addi	sp,sp,-32
   11534:	00813823          	sd	s0,16(sp)
   11538:	00913423          	sd	s1,8(sp)
   1153c:	00050413          	mv	s0,a0
   11540:	00113c23          	sd	ra,24(sp)
   11544:	01213023          	sd	s2,0(sp)
   11548:	00158493          	addi	s1,a1,1
   1154c:	fff00513          	li	a0,-1
   11550:	00b43023          	sd	a1,0(s0)
   11554:	4014d493          	srai	s1,s1,0x1
   11558:	00043423          	sd	zero,8(s0)
   1155c:	00043823          	sd	zero,16(s0)
   11560:	00040ca3          	sb	zero,25(s0)
   11564:	00755793          	srli	a5,a0,0x7
   11568:	0097e463          	bltu	a5,s1,11570 <_ZNSt14__tree_barrierISt18__empty_completionEC1ElS0_+0x40>
   1156c:	00649513          	slli	a0,s1,0x6
   11570:	04000593          	li	a1,64
   11574:	f6cff0ef          	jal	10ce0 <_ZnamSt11align_val_t@plt>
   11578:	fff48793          	addi	a5,s1,-1
   1157c:	00050913          	mv	s2,a0
   11580:	0007c863          	bltz	a5,11590 <_ZNSt14__tree_barrierISt18__empty_completionEC1ElS0_+0x60>
   11584:	00649613          	slli	a2,s1,0x6
   11588:	00000593          	li	a1,0
   1158c:	805ff0ef          	jal	10d90 <memset@plt>
   11590:	00843503          	ld	a0,8(s0)
   11594:	01243423          	sd	s2,8(s0)
   11598:	02050063          	beqz	a0,115b8 <_ZNSt14__tree_barrierISt18__empty_completionEC1ElS0_+0x88>
   1159c:	01013403          	ld	s0,16(sp)
   115a0:	01813083          	ld	ra,24(sp)
   115a4:	00813483          	ld	s1,8(sp)
   115a8:	00013903          	ld	s2,0(sp)
   115ac:	04000593          	li	a1,64
   115b0:	02010113          	addi	sp,sp,32
   115b4:	ffcff06f          	j	10db0 <_ZdaPvSt11align_val_t@plt>
   115b8:	01813083          	ld	ra,24(sp)
   115bc:	01013403          	ld	s0,16(sp)
   115c0:	00813483          	ld	s1,8(sp)
   115c4:	00013903          	ld	s2,0(sp)
   115c8:	02010113          	addi	sp,sp,32
   115cc:	00008067          	ret

00000000000115d0 <_ZNSt23mersenne_twister_engineImLm32ELm624ELm397ELm31ELm2567483615ELm11ELm4294967295ELm7ELm2636928640ELm15ELm4022730752ELm18ELm1812433253EE11_M_gen_randEv>:
   115d0:	000997b7          	lui	a5,0x99
   115d4:	08b78793          	addi	a5,a5,139 # 9908b <__global_pointer$+0x7e7fb>
   115d8:	00c79793          	slli	a5,a5,0xc
   115dc:	cd817057          	vsetivli	zero,2,e64,m1,ta,ma
   115e0:	0df78793          	addi	a5,a5,223
   115e4:	5e07c357          	vmv.v.x	v6,a5
   115e8:	80000737          	lui	a4,0x80000
   115ec:	000017b7          	lui	a5,0x1
   115f0:	fff74713          	not	a4,a4
   115f4:	800006b7          	lui	a3,0x80000
   115f8:	c6878793          	addi	a5,a5,-920 # c68 <__abi_tag-0xf62c>
   115fc:	5e0741d7          	vmv.v.x	v3,a4
   11600:	5e06c257          	vmv.v.x	v4,a3
   11604:	00850593          	addi	a1,a0,8
   11608:	00f50633          	add	a2,a0,a5
   1160c:	00050693          	mv	a3,a0
   11610:	0e300713          	li	a4,227
   11614:	00200893          	li	a7,2
   11618:	fff00813          	li	a6,-1
   1161c:	00070793          	mv	a5,a4
   11620:	00e8f463          	bgeu	a7,a4,11628 <_ZNSt23mersenne_twister_engineImLm32ELm624ELm397ELm31ELm2567483615ELm11ELm4294967295ELm7ELm2636928640ELm15ELm4022730752ELm18ELm1812433253EE11_M_gen_randEv+0x58>
   11624:	00200793          	li	a5,2
   11628:	0d87f057          	vsetvli	zero,a5,e64,m1,ta,ma
   1162c:	0206f087          	vle64.v	v1,(a3)
   11630:	0205f107          	vle64.v	v2,(a1)
   11634:	02067287          	vle64.v	v5,(a2)
   11638:	cd817057          	vsetivli	zero,2,e64,m1,ta,ma
   1163c:	ffe70713          	addi	a4,a4,-2 # ffffffff7ffffffe <__global_pointer$+0xffffffff7ffe576e>
   11640:	01058593          	addi	a1,a1,16
   11644:	261200d7          	vand.vv	v1,v1,v4
   11648:	26218157          	vand.vv	v2,v2,v3
   1164c:	01060613          	addi	a2,a2,16
   11650:	2a1100d7          	vor.vv	v1,v1,v2
   11654:	2610b157          	vand.vi	v2,v1,1
   11658:	a210b0d7          	vsrl.vi	v1,v1,1
   1165c:	96232157          	vmul.vv	v2,v2,v6
   11660:	2e1280d7          	vxor.vv	v1,v1,v5
   11664:	2e1100d7          	vxor.vv	v1,v1,v2
   11668:	0d87f057          	vsetvli	zero,a5,e64,m1,ta,ma
   1166c:	0206f0a7          	vse64.v	v1,(a3)
   11670:	01068693          	addi	a3,a3,16 # ffffffff80000010 <__global_pointer$+0xffffffff7ffe5780>
   11674:	fb0714e3          	bne	a4,a6,1161c <_ZNSt23mersenne_twister_engineImLm32ELm624ELm397ELm31ELm2567483615ELm11ELm4294967295ELm7ELm2636928640ELm15ELm4022730752ELm18ELm1812433253EE11_M_gen_randEv+0x4c>
   11678:	000995b7          	lui	a1,0x99
   1167c:	08b58593          	addi	a1,a1,139 # 9908b <__global_pointer$+0x7e7fb>
   11680:	00c59593          	slli	a1,a1,0xc
   11684:	0df58593          	addi	a1,a1,223
   11688:	cd817057          	vsetivli	zero,2,e64,m1,ta,ma
   1168c:	00001637          	lui	a2,0x1
   11690:	5e05c357          	vmv.v.x	v6,a1
   11694:	37860613          	addi	a2,a2,888 # 1378 <__abi_tag-0xef1c>
   11698:	00c50633          	add	a2,a0,a2
   1169c:	71850793          	addi	a5,a0,1816
   116a0:	72050693          	addi	a3,a0,1824
   116a4:	00050713          	mv	a4,a0
   116a8:	0287f087          	vl1re64.v	v1,(a5)
   116ac:	0286f107          	vl1re64.v	v2,(a3)
   116b0:	02877287          	vl1re64.v	v5,(a4)
   116b4:	01068693          	addi	a3,a3,16
   116b8:	01070713          	addi	a4,a4,16
   116bc:	261200d7          	vand.vv	v1,v1,v4
   116c0:	26218157          	vand.vv	v2,v2,v3
   116c4:	2a1100d7          	vor.vv	v1,v1,v2
   116c8:	2610b157          	vand.vi	v2,v1,1
   116cc:	a210b0d7          	vsrl.vi	v1,v1,1
   116d0:	96232157          	vmul.vv	v2,v2,v6
   116d4:	2e1280d7          	vxor.vv	v1,v1,v5
   116d8:	2e1100d7          	vxor.vv	v1,v1,v2
   116dc:	028780a7          	vs1r.v	v1,(a5)
   116e0:	01078793          	addi	a5,a5,16
   116e4:	fcf612e3          	bne	a2,a5,116a8 <_ZNSt23mersenne_twister_engineImLm32ELm624ELm397ELm31ELm2567483615ELm11ELm4294967295ELm7ELm2636928640ELm15ELm4022730752ELm18ELm1812433253EE11_M_gen_randEv+0xd8>
   116e8:	00001737          	lui	a4,0x1
   116ec:	00e50733          	add	a4,a0,a4
   116f0:	00053683          	ld	a3,0(a0)
   116f4:	37873783          	ld	a5,888(a4) # 1378 <__abi_tag-0xef1c>
   116f8:	80000637          	lui	a2,0x80000
   116fc:	fff64513          	not	a0,a2
   11700:	00a6f6b3          	and	a3,a3,a0
   11704:	00c7f7b3          	and	a5,a5,a2
   11708:	00d7e7b3          	or	a5,a5,a3
   1170c:	c6073603          	ld	a2,-928(a4)
   11710:	0017f693          	andi	a3,a5,1
   11714:	40d006b3          	neg	a3,a3
   11718:	0017d793          	srli	a5,a5,0x1
   1171c:	00b6f6b3          	and	a3,a3,a1
   11720:	00c7c7b3          	xor	a5,a5,a2
   11724:	00d7c7b3          	xor	a5,a5,a3
   11728:	38073023          	sd	zero,896(a4)
   1172c:	36f73c23          	sd	a5,888(a4)
   11730:	00008067          	ret

0000000000011734 <_ZN6nncase7NttTest11init_tensorIfNS_3ntt12basic_vectorIfJLm4EEEEEEvRT0_T_S7_>:
   11734:	8b010113          	addi	sp,sp,-1872
   11738:	ffffe2b7          	lui	t0,0xffffe
   1173c:	000016b7          	lui	a3,0x1
   11740:	74813023          	sd	s0,1856(sp)
   11744:	72913c23          	sd	s1,1848(sp)
   11748:	73213823          	sd	s2,1840(sp)
   1174c:	72813427          	fsd	fs0,1832(sp)
   11750:	72913027          	fsd	fs1,1824(sp)
   11754:	74113423          	sd	ra,1864(sp)
   11758:	71213c27          	fsd	fs2,1816(sp)
   1175c:	71313827          	fsd	fs3,1808(sp)
   11760:	38868793          	addi	a5,a3,904 # 1388 <__abi_tag-0xef0c>
   11764:	00510133          	add	sp,sp,t0
   11768:	00f105b3          	add	a1,sp,a5
   1176c:	61666737          	lui	a4,0x61666
   11770:	000077b7          	lui	a5,0x7
   11774:	56470713          	addi	a4,a4,1380 # 61666564 <__global_pointer$+0x6164bcd4>
   11778:	c7578793          	addi	a5,a5,-907 # 6c75 <__abi_tag-0x961f>
   1177c:	07400813          	li	a6,116
   11780:	71068693          	addi	a3,a3,1808
   11784:	00d104b3          	add	s1,sp,a3
   11788:	00e5a823          	sw	a4,16(a1)
   1178c:	00f59a23          	sh	a5,20(a1)
   11790:	01058b23          	sb	a6,22(a1)
   11794:	01058913          	addi	s2,a1,16
   11798:	00700613          	li	a2,7
   1179c:	00050413          	mv	s0,a0
   117a0:	c724bc23          	sd	s2,-904(s1)
   117a4:	00010513          	mv	a0,sp
   117a8:	c80487a3          	sb	zero,-881(s1)
   117ac:	c8c4b023          	sd	a2,-896(s1)
   117b0:	20a504d3          	fmv.s	fs1,fa0
   117b4:	20b58453          	fmv.s	fs0,fa1
   117b8:	e18ff0ef          	jal	10dd0 <_ZNSt13random_device7_M_initERKNSt7__cxx1112basic_stringIcSt11char_traitsIcESaIcEEE@plt>
   117bc:	c784b503          	ld	a0,-904(s1)
   117c0:	01250863          	beq	a0,s2,117d0 <_ZN6nncase7NttTest11init_tensorIfNS_3ntt12basic_vectorIfJLm4EEEEEEvRT0_T_S7_+0x9c>
   117c4:	c884b583          	ld	a1,-888(s1)
   117c8:	00158593          	addi	a1,a1,1
   117cc:	d84ff0ef          	jal	10d50 <_ZdlPvm@plt>
   117d0:	00010513          	mv	a0,sp
   117d4:	dccff0ef          	jal	10da0 <_ZNSt13random_device9_M_getvalEv@plt>
   117d8:	000016b7          	lui	a3,0x1
   117dc:	02051713          	slli	a4,a0,0x20
   117e0:	00d107b3          	add	a5,sp,a3
   117e4:	02075713          	srli	a4,a4,0x20
   117e8:	6c0795b7          	lui	a1,0x6c079
   117ec:	38e7b423          	sd	a4,904(a5)
   117f0:	39068793          	addi	a5,a3,912 # 1390 <__abi_tag-0xef04>
   117f4:	00f10633          	add	a2,sp,a5
   117f8:	96558593          	addi	a1,a1,-1691 # 6c078965 <__global_pointer$+0x6c05e0d5>
   117fc:	00100693          	li	a3,1
   11800:	27000513          	li	a0,624
   11804:	01e75793          	srli	a5,a4,0x1e
   11808:	00e7c7b3          	xor	a5,a5,a4
   1180c:	02b787b3          	mul	a5,a5,a1
   11810:	00860613          	addi	a2,a2,8 # ffffffff80000008 <__global_pointer$+0xffffffff7ffe5778>
   11814:	00f687b3          	add	a5,a3,a5
   11818:	02079713          	slli	a4,a5,0x20
   1181c:	02075713          	srli	a4,a4,0x20
   11820:	fee63c23          	sd	a4,-8(a2)
   11824:	00168693          	addi	a3,a3,1
   11828:	fca69ee3          	bne	a3,a0,11804 <_ZN6nncase7NttTest11init_tensorIfNS_3ntt12basic_vectorIfJLm4EEEEEEvRT0_T_S7_+0xd0>
   1182c:	000017b7          	lui	a5,0x1
   11830:	38878713          	addi	a4,a5,904 # 1388 <__abi_tag-0xef0c>
   11834:	00002937          	lui	s2,0x2
   11838:	00e10533          	add	a0,sp,a4
   1183c:	70890713          	addi	a4,s2,1800 # 2708 <__abi_tag-0xdb8c>
   11840:	00270733          	add	a4,a4,sp
   11844:	00d73023          	sd	a3,0(a4)
   11848:	00f104b3          	add	s1,sp,a5
   1184c:	d85ff0ef          	jal	115d0 <_ZNSt23mersenne_twister_engineImLm32ELm624ELm397ELm31ELm2567483615ELm11ELm4294967295ELm7ELm2636928640ELm15ELm4022730752ELm18ELm1812433253EE11_M_gen_randEv>
   11850:	70890793          	addi	a5,s2,1800
   11854:	002787b3          	add	a5,a5,sp
   11858:	0007b783          	ld	a5,0(a5)
   1185c:	013a6637          	lui	a2,0x13a6
   11860:	8ad60613          	addi	a2,a2,-1875 # 13a58ad <__global_pointer$+0x138b01d>
   11864:	00379713          	slli	a4,a5,0x3
   11868:	00e484b3          	add	s1,s1,a4
   1186c:	3884b683          	ld	a3,904(s1)
   11870:	00761613          	slli	a2,a2,0x7
   11874:	077e35b7          	lui	a1,0x77e3
   11878:	00b6d713          	srli	a4,a3,0xb
   1187c:	02071713          	slli	a4,a4,0x20
   11880:	02075713          	srli	a4,a4,0x20
   11884:	00d74733          	xor	a4,a4,a3
   11888:	00771693          	slli	a3,a4,0x7
   1188c:	00c6f6b3          	and	a3,a3,a2
   11890:	00e6c6b3          	xor	a3,a3,a4
   11894:	00f69713          	slli	a4,a3,0xf
   11898:	00559593          	slli	a1,a1,0x5
   1189c:	00b77733          	and	a4,a4,a1
   118a0:	00d74733          	xor	a4,a4,a3
   118a4:	01275693          	srli	a3,a4,0x12
   118a8:	00e6c733          	xor	a4,a3,a4
   118ac:	d03777d3          	fcvt.s.lu	fa5,a4
   118b0:	f0000753          	fmv.w.x	fa4,zero
   118b4:	00005717          	auipc	a4,0x5
   118b8:	62472987          	flw	fs3,1572(a4) # 16ed8 <_IO_stdin_used+0x38>
   118bc:	00005717          	auipc	a4,0x5
   118c0:	60072907          	flw	fs2,1536(a4) # 16ebc <_IO_stdin_used+0x1c>
   118c4:	00e7f7d3          	fadd.s	fa5,fa5,fa4
   118c8:	70890713          	addi	a4,s2,1800
   118cc:	00270733          	add	a4,a4,sp
   118d0:	00178793          	addi	a5,a5,1
   118d4:	00f73023          	sd	a5,0(a4)
   118d8:	1137f7d3          	fmul.s	fa5,fa5,fs3
   118dc:	a0f90753          	fle.s	a4,fs2,fa5
   118e0:	28071063          	bnez	a4,11b60 <_ZN6nncase7NttTest11init_tensorIfNS_3ntt12basic_vectorIfJLm4EEEEEEvRT0_T_S7_+0x42c>
   118e4:	08947453          	fsub.s	fs0,fs0,fs1
   118e8:	26f00713          	li	a4,623
   118ec:	48f477c3          	fmadd.s	fa5,fs0,fa5,fs1
   118f0:	00f42027          	fsw	fa5,0(s0)
   118f4:	1ef76463          	bltu	a4,a5,11adc <_ZN6nncase7NttTest11init_tensorIfNS_3ntt12basic_vectorIfJLm4EEEEEEvRT0_T_S7_+0x3a8>
   118f8:	00001737          	lui	a4,0x1
   118fc:	71070713          	addi	a4,a4,1808 # 1710 <__abi_tag-0xeb84>
   11900:	00379693          	slli	a3,a5,0x3
   11904:	00e10733          	add	a4,sp,a4
   11908:	00d70733          	add	a4,a4,a3
   1190c:	c7873703          	ld	a4,-904(a4)
   11910:	013a6637          	lui	a2,0x13a6
   11914:	8ad60613          	addi	a2,a2,-1875 # 13a58ad <__global_pointer$+0x138b01d>
   11918:	00b75693          	srli	a3,a4,0xb
   1191c:	02069693          	slli	a3,a3,0x20
   11920:	0206d693          	srli	a3,a3,0x20
   11924:	00e6c6b3          	xor	a3,a3,a4
   11928:	00761613          	slli	a2,a2,0x7
   1192c:	00769713          	slli	a4,a3,0x7
   11930:	00c77733          	and	a4,a4,a2
   11934:	00d74733          	xor	a4,a4,a3
   11938:	077e35b7          	lui	a1,0x77e3
   1193c:	00f71693          	slli	a3,a4,0xf
   11940:	00559613          	slli	a2,a1,0x5
   11944:	00c6f6b3          	and	a3,a3,a2
   11948:	00d74733          	xor	a4,a4,a3
   1194c:	01275693          	srli	a3,a4,0x12
   11950:	00d74733          	xor	a4,a4,a3
   11954:	d03777d3          	fcvt.s.lu	fa5,a4
   11958:	f0000753          	fmv.w.x	fa4,zero
   1195c:	00002737          	lui	a4,0x2
   11960:	70870713          	addi	a4,a4,1800 # 2708 <__abi_tag-0xdb8c>
   11964:	00e7f7d3          	fadd.s	fa5,fa5,fa4
   11968:	00270733          	add	a4,a4,sp
   1196c:	00178793          	addi	a5,a5,1
   11970:	00f73023          	sd	a5,0(a4)
   11974:	1137f7d3          	fmul.s	fa5,fa5,fs3
   11978:	a0f90753          	fle.s	a4,fs2,fa5
   1197c:	1e071863          	bnez	a4,11b6c <_ZN6nncase7NttTest11init_tensorIfNS_3ntt12basic_vectorIfJLm4EEEEEEvRT0_T_S7_+0x438>
   11980:	48f477c3          	fmadd.s	fa5,fs0,fa5,fs1
   11984:	26f00713          	li	a4,623
   11988:	00f42227          	fsw	fa5,4(s0)
   1198c:	18f76c63          	bltu	a4,a5,11b24 <_ZN6nncase7NttTest11init_tensorIfNS_3ntt12basic_vectorIfJLm4EEEEEEvRT0_T_S7_+0x3f0>
   11990:	00001737          	lui	a4,0x1
   11994:	71070713          	addi	a4,a4,1808 # 1710 <__abi_tag-0xeb84>
   11998:	00379693          	slli	a3,a5,0x3
   1199c:	00e10733          	add	a4,sp,a4
   119a0:	00d70733          	add	a4,a4,a3
   119a4:	c7873703          	ld	a4,-904(a4)
   119a8:	013a66b7          	lui	a3,0x13a6
   119ac:	8ad68693          	addi	a3,a3,-1875 # 13a58ad <__global_pointer$+0x138b01d>
   119b0:	00b75593          	srli	a1,a4,0xb
   119b4:	02059593          	slli	a1,a1,0x20
   119b8:	0205d593          	srli	a1,a1,0x20
   119bc:	00b74733          	xor	a4,a4,a1
   119c0:	00771593          	slli	a1,a4,0x7
   119c4:	00769693          	slli	a3,a3,0x7
   119c8:	00d5f6b3          	and	a3,a1,a3
   119cc:	00d74733          	xor	a4,a4,a3
   119d0:	077e3637          	lui	a2,0x77e3
   119d4:	00f71693          	slli	a3,a4,0xf
   119d8:	00561613          	slli	a2,a2,0x5
   119dc:	00c6f6b3          	and	a3,a3,a2
   119e0:	00d74733          	xor	a4,a4,a3
   119e4:	01275693          	srli	a3,a4,0x12
   119e8:	00d74733          	xor	a4,a4,a3
   119ec:	d03777d3          	fcvt.s.lu	fa5,a4
   119f0:	f0000753          	fmv.w.x	fa4,zero
   119f4:	00002737          	lui	a4,0x2
   119f8:	70870713          	addi	a4,a4,1800 # 2708 <__abi_tag-0xdb8c>
   119fc:	00e7f7d3          	fadd.s	fa5,fa5,fa4
   11a00:	00270733          	add	a4,a4,sp
   11a04:	00178793          	addi	a5,a5,1
   11a08:	00f73023          	sd	a5,0(a4)
   11a0c:	1137f7d3          	fmul.s	fa5,fa5,fs3
   11a10:	a0f90753          	fle.s	a4,fs2,fa5
   11a14:	12071a63          	bnez	a4,11b48 <_ZN6nncase7NttTest11init_tensorIfNS_3ntt12basic_vectorIfJLm4EEEEEEvRT0_T_S7_+0x414>
   11a18:	48f477c3          	fmadd.s	fa5,fs0,fa5,fs1
   11a1c:	26f00713          	li	a4,623
   11a20:	00f42427          	fsw	fa5,8(s0)
   11a24:	0cf76e63          	bltu	a4,a5,11b00 <_ZN6nncase7NttTest11init_tensorIfNS_3ntt12basic_vectorIfJLm4EEEEEEvRT0_T_S7_+0x3cc>
   11a28:	00001737          	lui	a4,0x1
   11a2c:	71070713          	addi	a4,a4,1808 # 1710 <__abi_tag-0xeb84>
   11a30:	00e10733          	add	a4,sp,a4
   11a34:	00379793          	slli	a5,a5,0x3
   11a38:	00f707b3          	add	a5,a4,a5
   11a3c:	c787b783          	ld	a5,-904(a5)
   11a40:	013a6737          	lui	a4,0x13a6
   11a44:	8ad70713          	addi	a4,a4,-1875 # 13a58ad <__global_pointer$+0x138b01d>
   11a48:	00b7d613          	srli	a2,a5,0xb
   11a4c:	02061613          	slli	a2,a2,0x20
   11a50:	02065613          	srli	a2,a2,0x20
   11a54:	00c7c7b3          	xor	a5,a5,a2
   11a58:	00779613          	slli	a2,a5,0x7
   11a5c:	00771713          	slli	a4,a4,0x7
   11a60:	00e67733          	and	a4,a2,a4
   11a64:	00e7c7b3          	xor	a5,a5,a4
   11a68:	077e36b7          	lui	a3,0x77e3
   11a6c:	00f79713          	slli	a4,a5,0xf
   11a70:	00569693          	slli	a3,a3,0x5
   11a74:	00d77733          	and	a4,a4,a3
   11a78:	00e7c7b3          	xor	a5,a5,a4
   11a7c:	0127d713          	srli	a4,a5,0x12
   11a80:	00e7c7b3          	xor	a5,a5,a4
   11a84:	d037f7d3          	fcvt.s.lu	fa5,a5
   11a88:	f0000753          	fmv.w.x	fa4,zero
   11a8c:	00e7f7d3          	fadd.s	fa5,fa5,fa4
   11a90:	1137f7d3          	fmul.s	fa5,fa5,fs3
   11a94:	a0f907d3          	fle.s	a5,fs2,fa5
   11a98:	0a079e63          	bnez	a5,11b54 <_ZN6nncase7NttTest11init_tensorIfNS_3ntt12basic_vectorIfJLm4EEEEEEvRT0_T_S7_+0x420>
   11a9c:	48f47443          	fmadd.s	fs0,fs0,fa5,fs1
   11aa0:	00010513          	mv	a0,sp
   11aa4:	00842627          	fsw	fs0,12(s0)
   11aa8:	a88ff0ef          	jal	10d30 <_ZNSt13random_device7_M_finiEv@plt>
   11aac:	000022b7          	lui	t0,0x2
   11ab0:	00510133          	add	sp,sp,t0
   11ab4:	74813083          	ld	ra,1864(sp)
   11ab8:	74013403          	ld	s0,1856(sp)
   11abc:	73813483          	ld	s1,1848(sp)
   11ac0:	73013903          	ld	s2,1840(sp)
   11ac4:	72813407          	fld	fs0,1832(sp)
   11ac8:	72013487          	fld	fs1,1824(sp)
   11acc:	71813907          	fld	fs2,1816(sp)
   11ad0:	71013987          	fld	fs3,1808(sp)
   11ad4:	75010113          	addi	sp,sp,1872
   11ad8:	00008067          	ret
   11adc:	000017b7          	lui	a5,0x1
   11ae0:	38878793          	addi	a5,a5,904 # 1388 <__abi_tag-0xef0c>
   11ae4:	00f10533          	add	a0,sp,a5
   11ae8:	ae9ff0ef          	jal	115d0 <_ZNSt23mersenne_twister_engineImLm32ELm624ELm397ELm31ELm2567483615ELm11ELm4294967295ELm7ELm2636928640ELm15ELm4022730752ELm18ELm1812433253EE11_M_gen_randEv>
   11aec:	000027b7          	lui	a5,0x2
   11af0:	70878793          	addi	a5,a5,1800 # 2708 <__abi_tag-0xdb8c>
   11af4:	002787b3          	add	a5,a5,sp
   11af8:	0007b783          	ld	a5,0(a5)
   11afc:	dfdff06f          	j	118f8 <_ZN6nncase7NttTest11init_tensorIfNS_3ntt12basic_vectorIfJLm4EEEEEEvRT0_T_S7_+0x1c4>
   11b00:	000017b7          	lui	a5,0x1
   11b04:	38878793          	addi	a5,a5,904 # 1388 <__abi_tag-0xef0c>
   11b08:	00f10533          	add	a0,sp,a5
   11b0c:	ac5ff0ef          	jal	115d0 <_ZNSt23mersenne_twister_engineImLm32ELm624ELm397ELm31ELm2567483615ELm11ELm4294967295ELm7ELm2636928640ELm15ELm4022730752ELm18ELm1812433253EE11_M_gen_randEv>
   11b10:	000027b7          	lui	a5,0x2
   11b14:	70878793          	addi	a5,a5,1800 # 2708 <__abi_tag-0xdb8c>
   11b18:	002787b3          	add	a5,a5,sp
   11b1c:	0007b783          	ld	a5,0(a5)
   11b20:	f09ff06f          	j	11a28 <_ZN6nncase7NttTest11init_tensorIfNS_3ntt12basic_vectorIfJLm4EEEEEEvRT0_T_S7_+0x2f4>
   11b24:	000017b7          	lui	a5,0x1
   11b28:	38878793          	addi	a5,a5,904 # 1388 <__abi_tag-0xef0c>
   11b2c:	00f10533          	add	a0,sp,a5
   11b30:	aa1ff0ef          	jal	115d0 <_ZNSt23mersenne_twister_engineImLm32ELm624ELm397ELm31ELm2567483615ELm11ELm4294967295ELm7ELm2636928640ELm15ELm4022730752ELm18ELm1812433253EE11_M_gen_randEv>
   11b34:	000027b7          	lui	a5,0x2
   11b38:	70878793          	addi	a5,a5,1800 # 2708 <__abi_tag-0xdb8c>
   11b3c:	002787b3          	add	a5,a5,sp
   11b40:	0007b783          	ld	a5,0(a5)
   11b44:	e4dff06f          	j	11990 <_ZN6nncase7NttTest11init_tensorIfNS_3ntt12basic_vectorIfJLm4EEEEEEvRT0_T_S7_+0x25c>
   11b48:	00005717          	auipc	a4,0x5
   11b4c:	38c72787          	flw	fa5,908(a4) # 16ed4 <_IO_stdin_used+0x34>
   11b50:	ec9ff06f          	j	11a18 <_ZN6nncase7NttTest11init_tensorIfNS_3ntt12basic_vectorIfJLm4EEEEEEvRT0_T_S7_+0x2e4>
   11b54:	00005797          	auipc	a5,0x5
   11b58:	3807a787          	flw	fa5,896(a5) # 16ed4 <_IO_stdin_used+0x34>
   11b5c:	f41ff06f          	j	11a9c <_ZN6nncase7NttTest11init_tensorIfNS_3ntt12basic_vectorIfJLm4EEEEEEvRT0_T_S7_+0x368>
   11b60:	00005717          	auipc	a4,0x5
   11b64:	37472787          	flw	fa5,884(a4) # 16ed4 <_IO_stdin_used+0x34>
   11b68:	d7dff06f          	j	118e4 <_ZN6nncase7NttTest11init_tensorIfNS_3ntt12basic_vectorIfJLm4EEEEEEvRT0_T_S7_+0x1b0>
   11b6c:	00005717          	auipc	a4,0x5
   11b70:	36872787          	flw	fa5,872(a4) # 16ed4 <_IO_stdin_used+0x34>
   11b74:	e0dff06f          	j	11980 <_ZN6nncase7NttTest11init_tensorIfNS_3ntt12basic_vectorIfJLm4EEEEEEvRT0_T_S7_+0x24c>

0000000000011b78 <_Z19benchmark_ntt_unaryIN6nncase3ntt3ops4tanhEfLm4EEvNSt7__cxx1112basic_stringIcSt11char_traitsIcESaIcEEET0_SA_>:
   11b78:	81010113          	addi	sp,sp,-2032
   11b7c:	ffffc2b7          	lui	t0,0xffffc
   11b80:	7c813427          	fsd	fs0,1992(sp)
   11b84:	7c913027          	fsd	fs1,1984(sp)
   11b88:	ca028293          	addi	t0,t0,-864 # ffffffffffffbca0 <__global_pointer$+0xfffffffffffe1410>
   11b8c:	000027b7          	lui	a5,0x2
   11b90:	20a504d3          	fmv.s	fs1,fa0
   11b94:	20b58453          	fmv.s	fs0,fa1
   11b98:	7e813023          	sd	s0,2016(sp)
   11b9c:	7c913c23          	sd	s1,2008(sp)
   11ba0:	7d213823          	sd	s2,2000(sp)
   11ba4:	7e113423          	sd	ra,2024(sp)
   11ba8:	58078793          	addi	a5,a5,1408 # 2580 <__abi_tag-0xdd14>
   11bac:	00510133          	add	sp,sp,t0
   11bb0:	00010493          	mv	s1,sp
   11bb4:	00050413          	mv	s0,a0
   11bb8:	00f10933          	add	s2,sp,a5
   11bbc:	208405d3          	fmv.s	fa1,fs0
   11bc0:	20948553          	fmv.s	fa0,fs1
   11bc4:	00048513          	mv	a0,s1
   11bc8:	01048493          	addi	s1,s1,16
   11bcc:	b69ff0ef          	jal	11734 <_ZN6nncase7NttTest11init_tensorIfNS_3ntt12basic_vectorIfJLm4EEEEEEvRT0_T_S7_>
   11bd0:	ff2496e3          	bne	s1,s2,11bbc <_Z19benchmark_ntt_unaryIN6nncase3ntt3ops4tanhEfLm4EEvNSt7__cxx1112basic_stringIcSt11char_traitsIcESaIcEEET0_SA_+0x44>
   11bd4:	00005797          	auipc	a5,0x5
   11bd8:	2e87a787          	flw	fa5,744(a5) # 16ebc <_IO_stdin_used+0x1c>
   11bdc:	00005797          	auipc	a5,0x5
   11be0:	3107ae07          	flw	ft8,784(a5) # 16eec <_IO_stdin_used+0x4c>
   11be4:	00005797          	auipc	a5,0x5
   11be8:	30c7a887          	flw	fa7,780(a5) # 16ef0 <_IO_stdin_used+0x50>
   11bec:	00005797          	auipc	a5,0x5
   11bf0:	3087a807          	flw	fa6,776(a5) # 16ef4 <_IO_stdin_used+0x54>
   11bf4:	00005797          	auipc	a5,0x5
   11bf8:	3047a387          	flw	ft7,772(a5) # 16ef8 <_IO_stdin_used+0x58>
   11bfc:	00005797          	auipc	a5,0x5
   11c00:	3007a307          	flw	ft6,768(a5) # 16efc <_IO_stdin_used+0x5c>
   11c04:	00005797          	auipc	a5,0x5
   11c08:	2fc7a287          	flw	ft5,764(a5) # 16f00 <_IO_stdin_used+0x60>
   11c0c:	00005797          	auipc	a5,0x5
   11c10:	2f87a207          	flw	ft4,760(a5) # 16f04 <_IO_stdin_used+0x64>
   11c14:	cd027057          	vsetivli	zero,4,e32,m1,ta,ma
   11c18:	000027b7          	lui	a5,0x2
   11c1c:	58078793          	addi	a5,a5,1408 # 2580 <__abi_tag-0xdd14>
   11c20:	00f106b3          	add	a3,sp,a5
   11c24:	5e07d757          	vfmv.v.f	v14,fa5
   11c28:	5e0e56d7          	vfmv.v.f	v13,ft8
   11c2c:	5e08d657          	vfmv.v.f	v12,fa7
   11c30:	5e0855d7          	vfmv.v.f	v11,fa6
   11c34:	5e03d557          	vfmv.v.f	v10,ft7
   11c38:	5e0354d7          	vfmv.v.f	v9,ft6
   11c3c:	5e02d457          	vfmv.v.f	v8,ft5
   11c40:	5e0253d7          	vfmv.v.f	v7,ft4
   11c44:	5e0032d7          	vmv.v.i	v5,0
   11c48:	00005797          	auipc	a5,0x5
   11c4c:	2947a007          	flw	ft0,660(a5) # 16edc <_IO_stdin_used+0x3c>
   11c50:	00005797          	auipc	a5,0x5
   11c54:	2907a087          	flw	ft1,656(a5) # 16ee0 <_IO_stdin_used+0x40>
   11c58:	00005797          	auipc	a5,0x5
   11c5c:	24c7a587          	flw	fa1,588(a5) # 16ea4 <_IO_stdin_used+0x4>
   11c60:	00005797          	auipc	a5,0x5
   11c64:	2847a107          	flw	ft2,644(a5) # 16ee4 <_IO_stdin_used+0x44>
   11c68:	00005797          	auipc	a5,0x5
   11c6c:	2807a707          	flw	fa4,640(a5) # 16ee8 <_IO_stdin_used+0x48>
   11c70:	00005797          	auipc	a5,0x5
   11c74:	2987a687          	flw	fa3,664(a5) # 16f08 <_IO_stdin_used+0x68>
   11c78:	00005797          	auipc	a5,0x5
   11c7c:	2947a607          	flw	fa2,660(a5) # 16f0c <_IO_stdin_used+0x6c>
   11c80:	00005797          	auipc	a5,0x5
   11c84:	2307a507          	flw	fa0,560(a5) # 16eb0 <_IO_stdin_used+0x10>
   11c88:	f00001d3          	fmv.w.x	ft3,zero
   11c8c:	12c00513          	li	a0,300
   11c90:	07f00593          	li	a1,127
   11c94:	fe800613          	li	a2,-24
   11c98:	000027b7          	lui	a5,0x2
   11c9c:	59078793          	addi	a5,a5,1424 # 2590 <__abi_tag-0xdd04>
   11ca0:	00f10733          	add	a4,sp,a5
   11ca4:	00010793          	mv	a5,sp
   11ca8:	0287e307          	vl1re32.v	v6,(a5)
   11cac:	01078793          	addi	a5,a5,16
   11cb0:	2267d0d7          	vfsgnj.vf	v1,v6,fa5
   11cb4:	121050d7          	vfmin.vf	v1,v1,ft0
   11cb8:	9210d0d7          	vfmul.vf	v1,v1,ft1
   11cbc:	9215d057          	vfmul.vf	v0,v1,fa1
   11cc0:	4a009057          	vfcvt.x.f.v	v0,v0
   11cc4:	4a0198d7          	vfcvt.f.x.v	v17,v0
   11cc8:	0205c857          	vadd.vx	v16,v0,a1
   11ccc:	76064057          	vmsle.vx	v0,v0,a2
   11cd0:	bf1150d7          	vfnmsac.vf	v1,ft2,v17
   11cd4:	970bb857          	vsll.vi	v16,v16,23
   11cd8:	5d01d1d7          	vfmerge.vfm	v3,v16,ft3,v0
   11cdc:	5c580ad7          	vmerge.vvm	v21,v5,v16,v0
   11ce0:	9e1037d7          	vmv1r.v	v15,v1
   11ce4:	bf1757d7          	vfnmsac.vf	v15,fa4,v17
   11ce8:	0237d257          	vfadd.vf	v4,v3,fa5
   11cec:	9e37d1d7          	vfrsub.vf	v3,v3,fa5
   11cf0:	92f79c57          	vfmul.vv	v24,v15,v15
   11cf4:	92f55dd7          	vfmul.vf	v27,v15,fa0
   11cf8:	0a1790d7          	vfsub.vv	v1,v1,v15
   11cfc:	9f8039d7          	vmv1r.v	v19,v24
   11d00:	a2d6d9d7          	vfmadd.vf	v19,fa3,v13
   11d04:	9f803157          	vmv1r.v	v2,v24
   11d08:	a2965157          	vfmadd.vf	v2,fa2,v9
   11d0c:	9ef03bd7          	vmv1r.v	v23,v15
   11d10:	a2fd9bd7          	vfmadd.vv	v23,v27,v15
   11d14:	bf1750d7          	vfnmsac.vf	v1,fa4,v17
   11d18:	93879b57          	vfmul.vv	v22,v24,v15
   11d1c:	a2cc19d7          	vfmadd.vv	v19,v24,v12
   11d20:	a28c1157          	vfmadd.vv	v2,v24,v8
   11d24:	9f703a57          	vmv1r.v	v20,v23
   11d28:	a2481a57          	vfmadd.vv	v20,v16,v4
   11d2c:	0afb98d7          	vfsub.vv	v17,v15,v23
   11d30:	9ef03e57          	vmv1r.v	v28,v15
   11d34:	a2109e57          	vfmadd.vv	v28,v1,v1
   11d38:	a2bc19d7          	vfmadd.vv	v19,v24,v11
   11d3c:	9e2030d7          	vmv1r.v	v1,v2
   11d40:	a27c10d7          	vfmadd.vv	v1,v24,v7
   11d44:	9f103d57          	vmv1r.v	v26,v17
   11d48:	b3b79d57          	vfmacc.vv	v26,v15,v27
   11d4c:	0a4a1257          	vfsub.vv	v4,v4,v20
   11d50:	9f7038d7          	vmv1r.v	v17,v23
   11d54:	ae3818d7          	vfnmsub.vv	v17,v16,v3
   11d58:	a2ac19d7          	vfmadd.vv	v19,v24,v10
   11d5c:	b30b9257          	vfmacc.vv	v4,v23,v16
   11d60:	03ae1cd7          	vfadd.vv	v25,v26,v28
   11d64:	0a389157          	vfsub.vv	v2,v3,v17
   11d68:	a33790d7          	vfmadd.vv	v1,v15,v19
   11d6c:	024a91d7          	vfadd.vv	v3,v4,v21
   11d70:	bf781157          	vfnmsac.vv	v2,v16,v23
   11d74:	a39b10d7          	vfmadd.vv	v1,v22,v25
   11d78:	0a2a9157          	vfsub.vv	v2,v2,v21
   11d7c:	b30091d7          	vfmacc.vv	v3,v1,v16
   11d80:	be181157          	vfnmsac.vv	v2,v16,v1
   11d84:	034190d7          	vfadd.vv	v1,v20,v3
   11d88:	8617d257          	vfrdiv.vf	v4,v1,fa5
   11d8c:	0b409a57          	vfsub.vv	v20,v20,v1
   11d90:	4e1297d7          	vfrec7.v	v15,v1
   11d94:	03419a57          	vfadd.vv	v20,v20,v3
   11d98:	9e4031d7          	vmv1r.v	v3,v4
   11d9c:	aee091d7          	vfnmsub.vv	v3,v1,v14
   11da0:	bf4211d7          	vfnmsac.vv	v3,v4,v20
   11da4:	923791d7          	vfmul.vv	v3,v3,v15
   11da8:	923110d7          	vfmul.vv	v1,v3,v2
   11dac:	b23890d7          	vfmacc.vv	v1,v17,v3
   11db0:	b24110d7          	vfmacc.vv	v1,v2,v4
   11db4:	b24890d7          	vfmacc.vv	v1,v17,v4
   11db8:	221310d7          	vfsgnj.vv	v1,v1,v6
   11dbc:	028700a7          	vs1r.v	v1,(a4)
   11dc0:	01070713          	addi	a4,a4,16
   11dc4:	eed792e3          	bne	a5,a3,11ca8 <_Z19benchmark_ntt_unaryIN6nncase3ntt3ops4tanhEfLm4EEvNSt7__cxx1112basic_stringIcSt11char_traitsIcESaIcEEET0_SA_+0x130>
   11dc8:	fff50513          	addi	a0,a0,-1
   11dcc:	ec0516e3          	bnez	a0,11c98 <_Z19benchmark_ntt_unaryIN6nncase3ntt3ops4tanhEfLm4EEvNSt7__cxx1112basic_stringIcSt11char_traitsIcESaIcEEET0_SA_+0x120>
   11dd0:	c0102973          	rdtime	s2
   11dd4:	64000793          	li	a5,1600
   11dd8:	02f90933          	mul	s2,s2,a5
   11ddc:	97b427b7          	lui	a5,0x97b42
   11de0:	5ed78793          	addi	a5,a5,1517 # ffffffff97b425ed <__global_pointer$+0xffffffff97b27d5d>
   11de4:	097b4737          	lui	a4,0x97b4
   11de8:	25f70713          	addi	a4,a4,607 # 97b425f <__global_pointer$+0x97999cf>
   11dec:	02079793          	slli	a5,a5,0x20
   11df0:	00e787b3          	add	a5,a5,a4
   11df4:	cd027057          	vsetivli	zero,4,e32,m1,ta,ma
   11df8:	00005737          	lui	a4,0x5
   11dfc:	5e07d757          	vfmv.v.f	v14,fa5
   11e00:	02f93933          	mulhu	s2,s2,a5
   11e04:	5e0e56d7          	vfmv.v.f	v13,ft8
   11e08:	5e08d657          	vfmv.v.f	v12,fa7
   11e0c:	5e0855d7          	vfmv.v.f	v11,fa6
   11e10:	5e03d557          	vfmv.v.f	v10,ft7
   11e14:	5e0354d7          	vfmv.v.f	v9,ft6
   11e18:	5e02d457          	vfmv.v.f	v8,ft5
   11e1c:	5e0253d7          	vfmv.v.f	v7,ft4
   11e20:	f00001d3          	fmv.w.x	ft3,zero
   11e24:	b1070713          	addi	a4,a4,-1264 # 4b10 <__abi_tag-0xb784>
   11e28:	00e105b3          	add	a1,sp,a4
   11e2c:	00495913          	srli	s2,s2,0x4
   11e30:	12c00513          	li	a0,300
   11e34:	07f00613          	li	a2,127
   11e38:	fe800693          	li	a3,-24
   11e3c:	000027b7          	lui	a5,0x2
   11e40:	59078793          	addi	a5,a5,1424 # 2590 <__abi_tag-0xdd04>
   11e44:	00f107b3          	add	a5,sp,a5
   11e48:	00010713          	mv	a4,sp
   11e4c:	02876307          	vl1re32.v	v6,(a4)
   11e50:	01070713          	addi	a4,a4,16
   11e54:	2267d0d7          	vfsgnj.vf	v1,v6,fa5
   11e58:	121050d7          	vfmin.vf	v1,v1,ft0
   11e5c:	9210d0d7          	vfmul.vf	v1,v1,ft1
   11e60:	9215d057          	vfmul.vf	v0,v1,fa1
   11e64:	4a009057          	vfcvt.x.f.v	v0,v0
   11e68:	4a0198d7          	vfcvt.f.x.v	v17,v0
   11e6c:	02064857          	vadd.vx	v16,v0,a2
   11e70:	7606c057          	vmsle.vx	v0,v0,a3
   11e74:	bf1150d7          	vfnmsac.vf	v1,ft2,v17
   11e78:	970bb857          	vsll.vi	v16,v16,23
   11e7c:	5d01d1d7          	vfmerge.vfm	v3,v16,ft3,v0
   11e80:	5c580ad7          	vmerge.vvm	v21,v5,v16,v0
   11e84:	9e1037d7          	vmv1r.v	v15,v1
   11e88:	bf1757d7          	vfnmsac.vf	v15,fa4,v17
   11e8c:	0237d257          	vfadd.vf	v4,v3,fa5
   11e90:	9e37d1d7          	vfrsub.vf	v3,v3,fa5
   11e94:	92f79c57          	vfmul.vv	v24,v15,v15
   11e98:	92f55dd7          	vfmul.vf	v27,v15,fa0
   11e9c:	0a1790d7          	vfsub.vv	v1,v1,v15
   11ea0:	9f8039d7          	vmv1r.v	v19,v24
   11ea4:	a2d6d9d7          	vfmadd.vf	v19,fa3,v13
   11ea8:	9f803157          	vmv1r.v	v2,v24
   11eac:	a2965157          	vfmadd.vf	v2,fa2,v9
   11eb0:	9ef03bd7          	vmv1r.v	v23,v15
   11eb4:	a2fd9bd7          	vfmadd.vv	v23,v27,v15
   11eb8:	bf1750d7          	vfnmsac.vf	v1,fa4,v17
   11ebc:	93879b57          	vfmul.vv	v22,v24,v15
   11ec0:	a2cc19d7          	vfmadd.vv	v19,v24,v12
   11ec4:	a28c1157          	vfmadd.vv	v2,v24,v8
   11ec8:	9f703a57          	vmv1r.v	v20,v23
   11ecc:	a2481a57          	vfmadd.vv	v20,v16,v4
   11ed0:	0afb98d7          	vfsub.vv	v17,v15,v23
   11ed4:	9ef03e57          	vmv1r.v	v28,v15
   11ed8:	a2109e57          	vfmadd.vv	v28,v1,v1
   11edc:	a2bc19d7          	vfmadd.vv	v19,v24,v11
   11ee0:	9e2030d7          	vmv1r.v	v1,v2
   11ee4:	a27c10d7          	vfmadd.vv	v1,v24,v7
   11ee8:	9f103d57          	vmv1r.v	v26,v17
   11eec:	b3b79d57          	vfmacc.vv	v26,v15,v27
   11ef0:	0a4a1257          	vfsub.vv	v4,v4,v20
   11ef4:	9f7038d7          	vmv1r.v	v17,v23
   11ef8:	ae3818d7          	vfnmsub.vv	v17,v16,v3
   11efc:	a2ac19d7          	vfmadd.vv	v19,v24,v10
   11f00:	b30b9257          	vfmacc.vv	v4,v23,v16
   11f04:	03ae1cd7          	vfadd.vv	v25,v26,v28
   11f08:	0a389157          	vfsub.vv	v2,v3,v17
   11f0c:	a33790d7          	vfmadd.vv	v1,v15,v19
   11f10:	024a91d7          	vfadd.vv	v3,v4,v21
   11f14:	bf781157          	vfnmsac.vv	v2,v16,v23
   11f18:	a39b10d7          	vfmadd.vv	v1,v22,v25
   11f1c:	0a2a9157          	vfsub.vv	v2,v2,v21
   11f20:	b30091d7          	vfmacc.vv	v3,v1,v16
   11f24:	be181157          	vfnmsac.vv	v2,v16,v1
   11f28:	034190d7          	vfadd.vv	v1,v20,v3
   11f2c:	8617d257          	vfrdiv.vf	v4,v1,fa5
   11f30:	0b409a57          	vfsub.vv	v20,v20,v1
   11f34:	4e1297d7          	vfrec7.v	v15,v1
   11f38:	03419a57          	vfadd.vv	v20,v20,v3
   11f3c:	9e4031d7          	vmv1r.v	v3,v4
   11f40:	aee091d7          	vfnmsub.vv	v3,v1,v14
   11f44:	bf4211d7          	vfnmsac.vv	v3,v4,v20
   11f48:	923791d7          	vfmul.vv	v3,v3,v15
   11f4c:	923110d7          	vfmul.vv	v1,v3,v2
   11f50:	b23890d7          	vfmacc.vv	v1,v17,v3
   11f54:	b24110d7          	vfmacc.vv	v1,v2,v4
   11f58:	b24890d7          	vfmacc.vv	v1,v17,v4
   11f5c:	221310d7          	vfsgnj.vv	v1,v1,v6
   11f60:	028780a7          	vs1r.v	v1,(a5)
   11f64:	01078793          	addi	a5,a5,16
   11f68:	eeb792e3          	bne	a5,a1,11e4c <_Z19benchmark_ntt_unaryIN6nncase3ntt3ops4tanhEfLm4EEvNSt7__cxx1112basic_stringIcSt11char_traitsIcESaIcEEET0_SA_+0x2d4>
   11f6c:	fff50513          	addi	a0,a0,-1
   11f70:	ec0516e3          	bnez	a0,11e3c <_Z19benchmark_ntt_unaryIN6nncase3ntt3ops4tanhEfLm4EEvNSt7__cxx1112basic_stringIcSt11char_traitsIcESaIcEEET0_SA_+0x2c4>
   11f74:	c01024f3          	rdtime	s1
   11f78:	01300613          	li	a2,19
   11f7c:	00005597          	auipc	a1,0x5
   11f80:	06458593          	addi	a1,a1,100 # 16fe0 <_IO_stdin_used+0x140>
   11f84:	00008517          	auipc	a0,0x8
   11f88:	06453503          	ld	a0,100(a0) # 19fe8 <_ZSt4cout@GLIBCXX_3.4>
   11f8c:	dd5fe0ef          	jal	10d60 <_ZSt16__ostream_insertIcSt11char_traitsIcEERSt13basic_ostreamIT_T0_ES6_PKS3_l@plt>
   11f90:	00100613          	li	a2,1
   11f94:	00005597          	auipc	a1,0x5
   11f98:	06458593          	addi	a1,a1,100 # 16ff8 <_IO_stdin_used+0x158>
   11f9c:	00008517          	auipc	a0,0x8
   11fa0:	04c53503          	ld	a0,76(a0) # 19fe8 <_ZSt4cout@GLIBCXX_3.4>
   11fa4:	dbdfe0ef          	jal	10d60 <_ZSt16__ostream_insertIcSt11char_traitsIcEERSt13basic_ostreamIT_T0_ES6_PKS3_l@plt>
   11fa8:	00843603          	ld	a2,8(s0)
   11fac:	00043583          	ld	a1,0(s0)
   11fb0:	00008517          	auipc	a0,0x8
   11fb4:	03853503          	ld	a0,56(a0) # 19fe8 <_ZSt4cout@GLIBCXX_3.4>
   11fb8:	da9fe0ef          	jal	10d60 <_ZSt16__ostream_insertIcSt11char_traitsIcEERSt13basic_ostreamIT_T0_ES6_PKS3_l@plt>
   11fbc:	00005597          	auipc	a1,0x5
   11fc0:	04458593          	addi	a1,a1,68 # 17000 <_IO_stdin_used+0x160>
   11fc4:	00600613          	li	a2,6
   11fc8:	00050413          	mv	s0,a0
   11fcc:	d95fe0ef          	jal	10d60 <_ZSt16__ostream_insertIcSt11char_traitsIcEERSt13basic_ostreamIT_T0_ES6_PKS3_l@plt>
   11fd0:	64000793          	li	a5,1600
   11fd4:	02f487b3          	mul	a5,s1,a5
   11fd8:	97b42737          	lui	a4,0x97b42
   11fdc:	5ed70713          	addi	a4,a4,1517 # ffffffff97b425ed <__global_pointer$+0xffffffff97b27d5d>
   11fe0:	097b46b7          	lui	a3,0x97b4
   11fe4:	25f68693          	addi	a3,a3,607 # 97b425f <__global_pointer$+0x97999cf>
   11fe8:	02071713          	slli	a4,a4,0x20
   11fec:	00d70733          	add	a4,a4,a3
   11ff0:	00005697          	auipc	a3,0x5
   11ff4:	f206a707          	flw	fa4,-224(a3) # 16f10 <_IO_stdin_used+0x70>
   11ff8:	00005697          	auipc	a3,0x5
   11ffc:	f1c6a787          	flw	fa5,-228(a3) # 16f14 <_IO_stdin_used+0x74>
   12000:	00043683          	ld	a3,0(s0)
   12004:	02e7b7b3          	mulhu	a5,a5,a4
   12008:	00100613          	li	a2,1
   1200c:	fe86b703          	ld	a4,-24(a3)
   12010:	00040513          	mv	a0,s0
   12014:	00e40733          	add	a4,s0,a4
   12018:	00c73423          	sd	a2,8(a4)
   1201c:	fe86b703          	ld	a4,-24(a3)
   12020:	0047d793          	srli	a5,a5,0x4
   12024:	412787b3          	sub	a5,a5,s2
   12028:	d037f553          	fcvt.s.lu	fa0,a5
   1202c:	00e40433          	add	s0,s0,a4
   12030:	01842783          	lw	a5,24(s0)
   12034:	18e57553          	fdiv.s	fa0,fa0,fa4
   12038:	efb7f793          	andi	a5,a5,-261
   1203c:	0047e793          	ori	a5,a5,4
   12040:	00f42c23          	sw	a5,24(s0)
   12044:	18f57553          	fdiv.s	fa0,fa0,fa5
   12048:	42050553          	fcvt.d.s	fa0,fa0
   1204c:	d75fe0ef          	jal	10dc0 <_ZNSo9_M_insertIdEERSoT_@plt>
   12050:	00700613          	li	a2,7
   12054:	00005597          	auipc	a1,0x5
   12058:	fb458593          	addi	a1,a1,-76 # 17008 <_IO_stdin_used+0x168>
   1205c:	00050493          	mv	s1,a0
   12060:	d01fe0ef          	jal	10d60 <_ZSt16__ostream_insertIcSt11char_traitsIcEERSt13basic_ostreamIT_T0_ES6_PKS3_l@plt>
   12064:	0004b783          	ld	a5,0(s1)
   12068:	fe87b783          	ld	a5,-24(a5)
   1206c:	00f487b3          	add	a5,s1,a5
   12070:	0f07b403          	ld	s0,240(a5)
   12074:	06040a63          	beqz	s0,120e8 <_Z19benchmark_ntt_unaryIN6nncase3ntt3ops4tanhEfLm4EEvNSt7__cxx1112basic_stringIcSt11char_traitsIcESaIcEEET0_SA_+0x570>
   12078:	03844783          	lbu	a5,56(s0)
   1207c:	02078e63          	beqz	a5,120b8 <_Z19benchmark_ntt_unaryIN6nncase3ntt3ops4tanhEfLm4EEvNSt7__cxx1112basic_stringIcSt11char_traitsIcESaIcEEET0_SA_+0x540>
   12080:	04344583          	lbu	a1,67(s0)
   12084:	00048513          	mv	a0,s1
   12088:	c49fe0ef          	jal	10cd0 <_ZNSo3putEc@plt>
   1208c:	000042b7          	lui	t0,0x4
   12090:	36028293          	addi	t0,t0,864 # 4360 <__abi_tag-0xbf34>
   12094:	00510133          	add	sp,sp,t0
   12098:	7e813083          	ld	ra,2024(sp)
   1209c:	7e013403          	ld	s0,2016(sp)
   120a0:	7d813483          	ld	s1,2008(sp)
   120a4:	7d013903          	ld	s2,2000(sp)
   120a8:	7c813407          	fld	fs0,1992(sp)
   120ac:	7c013487          	fld	fs1,1984(sp)
   120b0:	7f010113          	addi	sp,sp,2032
   120b4:	c4dfe06f          	j	10d00 <_ZNSo5flushEv@plt>
   120b8:	00040513          	mv	a0,s0
   120bc:	cb5fe0ef          	jal	10d70 <_ZNKSt5ctypeIcE13_M_widen_initEv@plt>
   120c0:	00043783          	ld	a5,0(s0)
   120c4:	fffff717          	auipc	a4,0xfffff
   120c8:	26870713          	addi	a4,a4,616 # 1132c <_ZNKSt5ctypeIcE8do_widenEc>
   120cc:	00a00593          	li	a1,10
   120d0:	0307b783          	ld	a5,48(a5)
   120d4:	fae788e3          	beq	a5,a4,12084 <_Z19benchmark_ntt_unaryIN6nncase3ntt3ops4tanhEfLm4EEvNSt7__cxx1112basic_stringIcSt11char_traitsIcESaIcEEET0_SA_+0x50c>
   120d8:	00040513          	mv	a0,s0
   120dc:	000780e7          	jalr	a5
   120e0:	00050593          	mv	a1,a0
   120e4:	fa1ff06f          	j	12084 <_Z19benchmark_ntt_unaryIN6nncase3ntt3ops4tanhEfLm4EEvNSt7__cxx1112basic_stringIcSt11char_traitsIcESaIcEEET0_SA_+0x50c>
   120e8:	c99fe0ef          	jal	10d80 <_ZSt16__throw_bad_castv@plt>

00000000000120ec <_Z19benchmark_ntt_unaryIN6nncase3ntt3ops4sqrtEfLm4EEvNSt7__cxx1112basic_stringIcSt11char_traitsIcESaIcEEET0_SA_>:
   120ec:	81010113          	addi	sp,sp,-2032
   120f0:	ffffc2b7          	lui	t0,0xffffc
   120f4:	7c813427          	fsd	fs0,1992(sp)
   120f8:	7c913027          	fsd	fs1,1984(sp)
   120fc:	ca028293          	addi	t0,t0,-864 # ffffffffffffbca0 <__global_pointer$+0xfffffffffffe1410>
   12100:	000027b7          	lui	a5,0x2
   12104:	20a504d3          	fmv.s	fs1,fa0
   12108:	20b58453          	fmv.s	fs0,fa1
   1210c:	7e813023          	sd	s0,2016(sp)
   12110:	7c913c23          	sd	s1,2008(sp)
   12114:	7d213823          	sd	s2,2000(sp)
   12118:	7e113423          	sd	ra,2024(sp)
   1211c:	58078793          	addi	a5,a5,1408 # 2580 <__abi_tag-0xdd14>
   12120:	00510133          	add	sp,sp,t0
   12124:	00010493          	mv	s1,sp
   12128:	00050413          	mv	s0,a0
   1212c:	00f10933          	add	s2,sp,a5
   12130:	208405d3          	fmv.s	fa1,fs0
   12134:	20948553          	fmv.s	fa0,fs1
   12138:	00048513          	mv	a0,s1
   1213c:	01048493          	addi	s1,s1,16
   12140:	df4ff0ef          	jal	11734 <_ZN6nncase7NttTest11init_tensorIfNS_3ntt12basic_vectorIfJLm4EEEEEEvRT0_T_S7_>
   12144:	ff2496e3          	bne	s1,s2,12130 <_Z19benchmark_ntt_unaryIN6nncase3ntt3ops4sqrtEfLm4EEvNSt7__cxx1112basic_stringIcSt11char_traitsIcESaIcEEET0_SA_+0x44>
   12148:	000057b7          	lui	a5,0x5
   1214c:	b1078793          	addi	a5,a5,-1264 # 4b10 <__abi_tag-0xb784>
   12150:	12c00613          	li	a2,300
   12154:	00f106b3          	add	a3,sp,a5
   12158:	cd027057          	vsetivli	zero,4,e32,m1,ta,ma
   1215c:	000027b7          	lui	a5,0x2
   12160:	59078793          	addi	a5,a5,1424 # 2590 <__abi_tag-0xdd04>
   12164:	00f107b3          	add	a5,sp,a5
   12168:	00010713          	mv	a4,sp
   1216c:	02876087          	vl1re32.v	v1,(a4)
   12170:	01070713          	addi	a4,a4,16
   12174:	4e1010d7          	vfsqrt.v	v1,v1
   12178:	028780a7          	vs1r.v	v1,(a5)
   1217c:	01078793          	addi	a5,a5,16
   12180:	fed796e3          	bne	a5,a3,1216c <_Z19benchmark_ntt_unaryIN6nncase3ntt3ops4sqrtEfLm4EEvNSt7__cxx1112basic_stringIcSt11char_traitsIcESaIcEEET0_SA_+0x80>
   12184:	fff60613          	addi	a2,a2,-1 # 77e2fff <__global_pointer$+0x77c876f>
   12188:	fc061ae3          	bnez	a2,1215c <_Z19benchmark_ntt_unaryIN6nncase3ntt3ops4sqrtEfLm4EEvNSt7__cxx1112basic_stringIcSt11char_traitsIcESaIcEEET0_SA_+0x70>
   1218c:	c0102973          	rdtime	s2
   12190:	64000793          	li	a5,1600
   12194:	02f90933          	mul	s2,s2,a5
   12198:	97b427b7          	lui	a5,0x97b42
   1219c:	5ed78793          	addi	a5,a5,1517 # ffffffff97b425ed <__global_pointer$+0xffffffff97b27d5d>
   121a0:	097b4737          	lui	a4,0x97b4
   121a4:	02079793          	slli	a5,a5,0x20
   121a8:	25f70713          	addi	a4,a4,607 # 97b425f <__global_pointer$+0x97999cf>
   121ac:	00e787b3          	add	a5,a5,a4
   121b0:	12c00613          	li	a2,300
   121b4:	cd027057          	vsetivli	zero,4,e32,m1,ta,ma
   121b8:	02f93933          	mulhu	s2,s2,a5
   121bc:	00495913          	srli	s2,s2,0x4
   121c0:	000027b7          	lui	a5,0x2
   121c4:	59078793          	addi	a5,a5,1424 # 2590 <__abi_tag-0xdd04>
   121c8:	00f107b3          	add	a5,sp,a5
   121cc:	00010713          	mv	a4,sp
   121d0:	02876087          	vl1re32.v	v1,(a4)
   121d4:	01070713          	addi	a4,a4,16
   121d8:	4e1010d7          	vfsqrt.v	v1,v1
   121dc:	028780a7          	vs1r.v	v1,(a5)
   121e0:	01078793          	addi	a5,a5,16
   121e4:	fed796e3          	bne	a5,a3,121d0 <_Z19benchmark_ntt_unaryIN6nncase3ntt3ops4sqrtEfLm4EEvNSt7__cxx1112basic_stringIcSt11char_traitsIcESaIcEEET0_SA_+0xe4>
   121e8:	fff60613          	addi	a2,a2,-1
   121ec:	fc061ae3          	bnez	a2,121c0 <_Z19benchmark_ntt_unaryIN6nncase3ntt3ops4sqrtEfLm4EEvNSt7__cxx1112basic_stringIcSt11char_traitsIcESaIcEEET0_SA_+0xd4>
   121f0:	c01024f3          	rdtime	s1
   121f4:	01300613          	li	a2,19
   121f8:	00005597          	auipc	a1,0x5
   121fc:	de858593          	addi	a1,a1,-536 # 16fe0 <_IO_stdin_used+0x140>
   12200:	00008517          	auipc	a0,0x8
   12204:	de853503          	ld	a0,-536(a0) # 19fe8 <_ZSt4cout@GLIBCXX_3.4>
   12208:	b59fe0ef          	jal	10d60 <_ZSt16__ostream_insertIcSt11char_traitsIcEERSt13basic_ostreamIT_T0_ES6_PKS3_l@plt>
   1220c:	00100613          	li	a2,1
   12210:	00005597          	auipc	a1,0x5
   12214:	de858593          	addi	a1,a1,-536 # 16ff8 <_IO_stdin_used+0x158>
   12218:	00008517          	auipc	a0,0x8
   1221c:	dd053503          	ld	a0,-560(a0) # 19fe8 <_ZSt4cout@GLIBCXX_3.4>
   12220:	b41fe0ef          	jal	10d60 <_ZSt16__ostream_insertIcSt11char_traitsIcEERSt13basic_ostreamIT_T0_ES6_PKS3_l@plt>
   12224:	00843603          	ld	a2,8(s0)
   12228:	00043583          	ld	a1,0(s0)
   1222c:	00008517          	auipc	a0,0x8
   12230:	dbc53503          	ld	a0,-580(a0) # 19fe8 <_ZSt4cout@GLIBCXX_3.4>
   12234:	b2dfe0ef          	jal	10d60 <_ZSt16__ostream_insertIcSt11char_traitsIcEERSt13basic_ostreamIT_T0_ES6_PKS3_l@plt>
   12238:	00005597          	auipc	a1,0x5
   1223c:	dc858593          	addi	a1,a1,-568 # 17000 <_IO_stdin_used+0x160>
   12240:	00600613          	li	a2,6
   12244:	00050413          	mv	s0,a0
   12248:	b19fe0ef          	jal	10d60 <_ZSt16__ostream_insertIcSt11char_traitsIcEERSt13basic_ostreamIT_T0_ES6_PKS3_l@plt>
   1224c:	64000793          	li	a5,1600
   12250:	02f487b3          	mul	a5,s1,a5
   12254:	97b42737          	lui	a4,0x97b42
   12258:	5ed70713          	addi	a4,a4,1517 # ffffffff97b425ed <__global_pointer$+0xffffffff97b27d5d>
   1225c:	097b46b7          	lui	a3,0x97b4
   12260:	25f68693          	addi	a3,a3,607 # 97b425f <__global_pointer$+0x97999cf>
   12264:	02071713          	slli	a4,a4,0x20
   12268:	00d70733          	add	a4,a4,a3
   1226c:	00005697          	auipc	a3,0x5
   12270:	ca46a707          	flw	fa4,-860(a3) # 16f10 <_IO_stdin_used+0x70>
   12274:	00005697          	auipc	a3,0x5
   12278:	ca06a787          	flw	fa5,-864(a3) # 16f14 <_IO_stdin_used+0x74>
   1227c:	00043683          	ld	a3,0(s0)
   12280:	02e7b7b3          	mulhu	a5,a5,a4
   12284:	00100613          	li	a2,1
   12288:	fe86b703          	ld	a4,-24(a3)
   1228c:	00040513          	mv	a0,s0
   12290:	00e40733          	add	a4,s0,a4
   12294:	00c73423          	sd	a2,8(a4)
   12298:	fe86b703          	ld	a4,-24(a3)
   1229c:	0047d793          	srli	a5,a5,0x4
   122a0:	412787b3          	sub	a5,a5,s2
   122a4:	d037f553          	fcvt.s.lu	fa0,a5
   122a8:	00e40433          	add	s0,s0,a4
   122ac:	01842783          	lw	a5,24(s0)
   122b0:	18e57553          	fdiv.s	fa0,fa0,fa4
   122b4:	efb7f793          	andi	a5,a5,-261
   122b8:	0047e793          	ori	a5,a5,4
   122bc:	00f42c23          	sw	a5,24(s0)
   122c0:	18f57553          	fdiv.s	fa0,fa0,fa5
   122c4:	42050553          	fcvt.d.s	fa0,fa0
   122c8:	af9fe0ef          	jal	10dc0 <_ZNSo9_M_insertIdEERSoT_@plt>
   122cc:	00700613          	li	a2,7
   122d0:	00005597          	auipc	a1,0x5
   122d4:	d3858593          	addi	a1,a1,-712 # 17008 <_IO_stdin_used+0x168>
   122d8:	00050493          	mv	s1,a0
   122dc:	a85fe0ef          	jal	10d60 <_ZSt16__ostream_insertIcSt11char_traitsIcEERSt13basic_ostreamIT_T0_ES6_PKS3_l@plt>
   122e0:	0004b783          	ld	a5,0(s1)
   122e4:	fe87b783          	ld	a5,-24(a5)
   122e8:	00f487b3          	add	a5,s1,a5
   122ec:	0f07b403          	ld	s0,240(a5)
   122f0:	06040a63          	beqz	s0,12364 <_Z19benchmark_ntt_unaryIN6nncase3ntt3ops4sqrtEfLm4EEvNSt7__cxx1112basic_stringIcSt11char_traitsIcESaIcEEET0_SA_+0x278>
   122f4:	03844783          	lbu	a5,56(s0)
   122f8:	02078e63          	beqz	a5,12334 <_Z19benchmark_ntt_unaryIN6nncase3ntt3ops4sqrtEfLm4EEvNSt7__cxx1112basic_stringIcSt11char_traitsIcESaIcEEET0_SA_+0x248>
   122fc:	04344583          	lbu	a1,67(s0)
   12300:	00048513          	mv	a0,s1
   12304:	9cdfe0ef          	jal	10cd0 <_ZNSo3putEc@plt>
   12308:	000042b7          	lui	t0,0x4
   1230c:	36028293          	addi	t0,t0,864 # 4360 <__abi_tag-0xbf34>
   12310:	00510133          	add	sp,sp,t0
   12314:	7e813083          	ld	ra,2024(sp)
   12318:	7e013403          	ld	s0,2016(sp)
   1231c:	7d813483          	ld	s1,2008(sp)
   12320:	7d013903          	ld	s2,2000(sp)
   12324:	7c813407          	fld	fs0,1992(sp)
   12328:	7c013487          	fld	fs1,1984(sp)
   1232c:	7f010113          	addi	sp,sp,2032
   12330:	9d1fe06f          	j	10d00 <_ZNSo5flushEv@plt>
   12334:	00040513          	mv	a0,s0
   12338:	a39fe0ef          	jal	10d70 <_ZNKSt5ctypeIcE13_M_widen_initEv@plt>
   1233c:	00043783          	ld	a5,0(s0)
   12340:	fffff717          	auipc	a4,0xfffff
   12344:	fec70713          	addi	a4,a4,-20 # 1132c <_ZNKSt5ctypeIcE8do_widenEc>
   12348:	00a00593          	li	a1,10
   1234c:	0307b783          	ld	a5,48(a5)
   12350:	fae788e3          	beq	a5,a4,12300 <_Z19benchmark_ntt_unaryIN6nncase3ntt3ops4sqrtEfLm4EEvNSt7__cxx1112basic_stringIcSt11char_traitsIcESaIcEEET0_SA_+0x214>
   12354:	00040513          	mv	a0,s0
   12358:	000780e7          	jalr	a5
   1235c:	00050593          	mv	a1,a0
   12360:	fa1ff06f          	j	12300 <_Z19benchmark_ntt_unaryIN6nncase3ntt3ops4sqrtEfLm4EEvNSt7__cxx1112basic_stringIcSt11char_traitsIcESaIcEEET0_SA_+0x214>
   12364:	a1dfe0ef          	jal	10d80 <_ZSt16__throw_bad_castv@plt>

0000000000012368 <_Z19benchmark_ntt_unaryIN6nncase3ntt3ops3expEfLm4EEvNSt7__cxx1112basic_stringIcSt11char_traitsIcESaIcEEET0_SA_>:
   12368:	81010113          	addi	sp,sp,-2032
   1236c:	ffffc2b7          	lui	t0,0xffffc
   12370:	78813c27          	fsd	fs0,1944(sp)
   12374:	78913827          	fsd	fs1,1936(sp)
   12378:	c7028293          	addi	t0,t0,-912 # ffffffffffffbc70 <__global_pointer$+0xfffffffffffe13e0>
   1237c:	000027b7          	lui	a5,0x2
   12380:	20a504d3          	fmv.s	fs1,fa0
   12384:	20b58453          	fmv.s	fs0,fa1
   12388:	7e813023          	sd	s0,2016(sp)
   1238c:	7c913c23          	sd	s1,2008(sp)
   12390:	7b513c23          	sd	s5,1976(sp)
   12394:	7e113423          	sd	ra,2024(sp)
   12398:	7d213823          	sd	s2,2000(sp)
   1239c:	7d313423          	sd	s3,1992(sp)
   123a0:	7d413023          	sd	s4,1984(sp)
   123a4:	7b613823          	sd	s6,1968(sp)
   123a8:	7b713423          	sd	s7,1960(sp)
   123ac:	58078793          	addi	a5,a5,1408 # 2580 <__abi_tag-0xdd14>
   123b0:	00510133          	add	sp,sp,t0
   123b4:	00010413          	mv	s0,sp
   123b8:	00050a93          	mv	s5,a0
   123bc:	00f104b3          	add	s1,sp,a5
   123c0:	208405d3          	fmv.s	fa1,fs0
   123c4:	20948553          	fmv.s	fa0,fs1
   123c8:	00040513          	mv	a0,s0
   123cc:	01040413          	addi	s0,s0,16
   123d0:	b64ff0ef          	jal	11734 <_ZN6nncase7NttTest11init_tensorIfNS_3ntt12basic_vectorIfJLm4EEEEEEvRT0_T_S7_>
   123d4:	fe9416e3          	bne	s0,s1,123c0 <_Z19benchmark_ntt_unaryIN6nncase3ntt3ops3expEfLm4EEvNSt7__cxx1112basic_stringIcSt11char_traitsIcESaIcEEET0_SA_+0x58>
   123d8:	000027b7          	lui	a5,0x2
   123dc:	58078793          	addi	a5,a5,1408 # 2580 <__abi_tag-0xdd14>
   123e0:	00f10933          	add	s2,sp,a5
   123e4:	12c00993          	li	s3,300
   123e8:	000027b7          	lui	a5,0x2
   123ec:	59078793          	addi	a5,a5,1424 # 2590 <__abi_tag-0xdd04>
   123f0:	00f104b3          	add	s1,sp,a5
   123f4:	00010413          	mv	s0,sp
   123f8:	02846407          	vl1re32.v	v8,(s0)
   123fc:	01040413          	addi	s0,s0,16
   12400:	f71fe0ef          	jal	11370 <_ZL6exp_psu17__rvv_float32m1_tm.constprop.0>
   12404:	02848427          	vs1r.v	v8,(s1)
   12408:	01048493          	addi	s1,s1,16
   1240c:	ff2416e3          	bne	s0,s2,123f8 <_Z19benchmark_ntt_unaryIN6nncase3ntt3ops3expEfLm4EEvNSt7__cxx1112basic_stringIcSt11char_traitsIcESaIcEEET0_SA_+0x90>
   12410:	fff98993          	addi	s3,s3,-1
   12414:	fc099ae3          	bnez	s3,123e8 <_Z19benchmark_ntt_unaryIN6nncase3ntt3ops3expEfLm4EEvNSt7__cxx1112basic_stringIcSt11char_traitsIcESaIcEEET0_SA_+0x80>
   12418:	c0102bf3          	rdtime	s7
   1241c:	64000793          	li	a5,1600
   12420:	02fb8bb3          	mul	s7,s7,a5
   12424:	97b427b7          	lui	a5,0x97b42
   12428:	5ed78793          	addi	a5,a5,1517 # ffffffff97b425ed <__global_pointer$+0xffffffff97b27d5d>
   1242c:	097b4737          	lui	a4,0x97b4
   12430:	25f70713          	addi	a4,a4,607 # 97b425f <__global_pointer$+0x97999cf>
   12434:	02079793          	slli	a5,a5,0x20
   12438:	00e787b3          	add	a5,a5,a4
   1243c:	00005737          	lui	a4,0x5
   12440:	b1070713          	addi	a4,a4,-1264 # 4b10 <__abi_tag-0xb784>
   12444:	00e10933          	add	s2,sp,a4
   12448:	02fbbbb3          	mulhu	s7,s7,a5
   1244c:	12c00993          	li	s3,300
   12450:	004bdb93          	srli	s7,s7,0x4
   12454:	000027b7          	lui	a5,0x2
   12458:	59078793          	addi	a5,a5,1424 # 2590 <__abi_tag-0xdd04>
   1245c:	00f10433          	add	s0,sp,a5
   12460:	00010493          	mv	s1,sp
   12464:	0284e407          	vl1re32.v	v8,(s1)
   12468:	01048493          	addi	s1,s1,16
   1246c:	f05fe0ef          	jal	11370 <_ZL6exp_psu17__rvv_float32m1_tm.constprop.0>
   12470:	02840427          	vs1r.v	v8,(s0)
   12474:	01040413          	addi	s0,s0,16
   12478:	ff2416e3          	bne	s0,s2,12464 <_Z19benchmark_ntt_unaryIN6nncase3ntt3ops3expEfLm4EEvNSt7__cxx1112basic_stringIcSt11char_traitsIcESaIcEEET0_SA_+0xfc>
   1247c:	fff98993          	addi	s3,s3,-1
   12480:	fc099ae3          	bnez	s3,12454 <_Z19benchmark_ntt_unaryIN6nncase3ntt3ops3expEfLm4EEvNSt7__cxx1112basic_stringIcSt11char_traitsIcESaIcEEET0_SA_+0xec>
   12484:	c01024f3          	rdtime	s1
   12488:	01300613          	li	a2,19
   1248c:	00005597          	auipc	a1,0x5
   12490:	b5458593          	addi	a1,a1,-1196 # 16fe0 <_IO_stdin_used+0x140>
   12494:	00008517          	auipc	a0,0x8
   12498:	b5453503          	ld	a0,-1196(a0) # 19fe8 <_ZSt4cout@GLIBCXX_3.4>
   1249c:	8c5fe0ef          	jal	10d60 <_ZSt16__ostream_insertIcSt11char_traitsIcEERSt13basic_ostreamIT_T0_ES6_PKS3_l@plt>
   124a0:	00100613          	li	a2,1
   124a4:	00005597          	auipc	a1,0x5
   124a8:	b5458593          	addi	a1,a1,-1196 # 16ff8 <_IO_stdin_used+0x158>
   124ac:	00008517          	auipc	a0,0x8
   124b0:	b3c53503          	ld	a0,-1220(a0) # 19fe8 <_ZSt4cout@GLIBCXX_3.4>
   124b4:	8adfe0ef          	jal	10d60 <_ZSt16__ostream_insertIcSt11char_traitsIcEERSt13basic_ostreamIT_T0_ES6_PKS3_l@plt>
   124b8:	008ab603          	ld	a2,8(s5)
   124bc:	000ab583          	ld	a1,0(s5)
   124c0:	00008517          	auipc	a0,0x8
   124c4:	b2853503          	ld	a0,-1240(a0) # 19fe8 <_ZSt4cout@GLIBCXX_3.4>
   124c8:	899fe0ef          	jal	10d60 <_ZSt16__ostream_insertIcSt11char_traitsIcEERSt13basic_ostreamIT_T0_ES6_PKS3_l@plt>
   124cc:	00005597          	auipc	a1,0x5
   124d0:	b3458593          	addi	a1,a1,-1228 # 17000 <_IO_stdin_used+0x160>
   124d4:	00600613          	li	a2,6
   124d8:	00050413          	mv	s0,a0
   124dc:	885fe0ef          	jal	10d60 <_ZSt16__ostream_insertIcSt11char_traitsIcEERSt13basic_ostreamIT_T0_ES6_PKS3_l@plt>
   124e0:	64000793          	li	a5,1600
   124e4:	02f487b3          	mul	a5,s1,a5
   124e8:	97b42737          	lui	a4,0x97b42
   124ec:	5ed70713          	addi	a4,a4,1517 # ffffffff97b425ed <__global_pointer$+0xffffffff97b27d5d>
   124f0:	097b46b7          	lui	a3,0x97b4
   124f4:	25f68693          	addi	a3,a3,607 # 97b425f <__global_pointer$+0x97999cf>
   124f8:	02071713          	slli	a4,a4,0x20
   124fc:	00d70733          	add	a4,a4,a3
   12500:	00005697          	auipc	a3,0x5
   12504:	a106a707          	flw	fa4,-1520(a3) # 16f10 <_IO_stdin_used+0x70>
   12508:	00005697          	auipc	a3,0x5
   1250c:	a0c6a787          	flw	fa5,-1524(a3) # 16f14 <_IO_stdin_used+0x74>
   12510:	00043683          	ld	a3,0(s0)
   12514:	02e7b7b3          	mulhu	a5,a5,a4
   12518:	00100613          	li	a2,1
   1251c:	fe86b703          	ld	a4,-24(a3)
   12520:	00040513          	mv	a0,s0
   12524:	00e40733          	add	a4,s0,a4
   12528:	00c73423          	sd	a2,8(a4)
   1252c:	fe86b703          	ld	a4,-24(a3)
   12530:	0047d793          	srli	a5,a5,0x4
   12534:	417787b3          	sub	a5,a5,s7
   12538:	d037f553          	fcvt.s.lu	fa0,a5
   1253c:	00e40433          	add	s0,s0,a4
   12540:	01842783          	lw	a5,24(s0)
   12544:	18e57553          	fdiv.s	fa0,fa0,fa4
   12548:	efb7f793          	andi	a5,a5,-261
   1254c:	0047e793          	ori	a5,a5,4
   12550:	00f42c23          	sw	a5,24(s0)
   12554:	18f57553          	fdiv.s	fa0,fa0,fa5
   12558:	42050553          	fcvt.d.s	fa0,fa0
   1255c:	865fe0ef          	jal	10dc0 <_ZNSo9_M_insertIdEERSoT_@plt>
   12560:	00700613          	li	a2,7
   12564:	00005597          	auipc	a1,0x5
   12568:	aa458593          	addi	a1,a1,-1372 # 17008 <_IO_stdin_used+0x168>
   1256c:	00050493          	mv	s1,a0
   12570:	ff0fe0ef          	jal	10d60 <_ZSt16__ostream_insertIcSt11char_traitsIcEERSt13basic_ostreamIT_T0_ES6_PKS3_l@plt>
   12574:	0004b783          	ld	a5,0(s1)
   12578:	fe87b783          	ld	a5,-24(a5)
   1257c:	00f487b3          	add	a5,s1,a5
   12580:	0f07b403          	ld	s0,240(a5)
   12584:	08040463          	beqz	s0,1260c <_Z19benchmark_ntt_unaryIN6nncase3ntt3ops3expEfLm4EEvNSt7__cxx1112basic_stringIcSt11char_traitsIcESaIcEEET0_SA_+0x2a4>
   12588:	03844783          	lbu	a5,56(s0)
   1258c:	04078863          	beqz	a5,125dc <_Z19benchmark_ntt_unaryIN6nncase3ntt3ops3expEfLm4EEvNSt7__cxx1112basic_stringIcSt11char_traitsIcESaIcEEET0_SA_+0x274>
   12590:	04344583          	lbu	a1,67(s0)
   12594:	00048513          	mv	a0,s1
   12598:	f38fe0ef          	jal	10cd0 <_ZNSo3putEc@plt>
   1259c:	000042b7          	lui	t0,0x4
   125a0:	39028293          	addi	t0,t0,912 # 4390 <__abi_tag-0xbf04>
   125a4:	00510133          	add	sp,sp,t0
   125a8:	7e813083          	ld	ra,2024(sp)
   125ac:	7e013403          	ld	s0,2016(sp)
   125b0:	7d813483          	ld	s1,2008(sp)
   125b4:	7d013903          	ld	s2,2000(sp)
   125b8:	7c813983          	ld	s3,1992(sp)
   125bc:	7c013a03          	ld	s4,1984(sp)
   125c0:	7b813a83          	ld	s5,1976(sp)
   125c4:	7b013b03          	ld	s6,1968(sp)
   125c8:	7a813b83          	ld	s7,1960(sp)
   125cc:	79813407          	fld	fs0,1944(sp)
   125d0:	79013487          	fld	fs1,1936(sp)
   125d4:	7f010113          	addi	sp,sp,2032
   125d8:	f28fe06f          	j	10d00 <_ZNSo5flushEv@plt>
   125dc:	00040513          	mv	a0,s0
   125e0:	f90fe0ef          	jal	10d70 <_ZNKSt5ctypeIcE13_M_widen_initEv@plt>
   125e4:	00043783          	ld	a5,0(s0)
   125e8:	fffff717          	auipc	a4,0xfffff
   125ec:	d4470713          	addi	a4,a4,-700 # 1132c <_ZNKSt5ctypeIcE8do_widenEc>
   125f0:	00a00593          	li	a1,10
   125f4:	0307b783          	ld	a5,48(a5)
   125f8:	f8e78ee3          	beq	a5,a4,12594 <_Z19benchmark_ntt_unaryIN6nncase3ntt3ops3expEfLm4EEvNSt7__cxx1112basic_stringIcSt11char_traitsIcESaIcEEET0_SA_+0x22c>
   125fc:	00040513          	mv	a0,s0
   12600:	000780e7          	jalr	a5
   12604:	00050593          	mv	a1,a0
   12608:	f8dff06f          	j	12594 <_Z19benchmark_ntt_unaryIN6nncase3ntt3ops3expEfLm4EEvNSt7__cxx1112basic_stringIcSt11char_traitsIcESaIcEEET0_SA_+0x22c>
   1260c:	f74fe0ef          	jal	10d80 <_ZSt16__throw_bad_castv@plt>

0000000000012610 <_Z19benchmark_ntt_unaryIN6nncase3ntt3ops4coshEfLm4EEvNSt7__cxx1112basic_stringIcSt11char_traitsIcESaIcEEET0_SA_>:
   12610:	81010113          	addi	sp,sp,-2032
   12614:	ffffc2b7          	lui	t0,0xffffc
   12618:	78813c27          	fsd	fs0,1944(sp)
   1261c:	78913827          	fsd	fs1,1936(sp)
   12620:	c7028293          	addi	t0,t0,-912 # ffffffffffffbc70 <__global_pointer$+0xfffffffffffe13e0>
   12624:	000027b7          	lui	a5,0x2
   12628:	20a504d3          	fmv.s	fs1,fa0
   1262c:	20b58453          	fmv.s	fs0,fa1
   12630:	7e813023          	sd	s0,2016(sp)
   12634:	7c913c23          	sd	s1,2008(sp)
   12638:	7b513c23          	sd	s5,1976(sp)
   1263c:	7e113423          	sd	ra,2024(sp)
   12640:	7d213823          	sd	s2,2000(sp)
   12644:	7d313423          	sd	s3,1992(sp)
   12648:	7d413023          	sd	s4,1984(sp)
   1264c:	7b613823          	sd	s6,1968(sp)
   12650:	7b713423          	sd	s7,1960(sp)
   12654:	58078793          	addi	a5,a5,1408 # 2580 <__abi_tag-0xdd14>
   12658:	00510133          	add	sp,sp,t0
   1265c:	00010413          	mv	s0,sp
   12660:	00050a93          	mv	s5,a0
   12664:	00f104b3          	add	s1,sp,a5
   12668:	208405d3          	fmv.s	fa1,fs0
   1266c:	20948553          	fmv.s	fa0,fs1
   12670:	00040513          	mv	a0,s0
   12674:	01040413          	addi	s0,s0,16
   12678:	8bcff0ef          	jal	11734 <_ZN6nncase7NttTest11init_tensorIfNS_3ntt12basic_vectorIfJLm4EEEEEEvRT0_T_S7_>
   1267c:	fe9416e3          	bne	s0,s1,12668 <_Z19benchmark_ntt_unaryIN6nncase3ntt3ops4coshEfLm4EEvNSt7__cxx1112basic_stringIcSt11char_traitsIcESaIcEEET0_SA_+0x58>
   12680:	000027b7          	lui	a5,0x2
   12684:	58078793          	addi	a5,a5,1408 # 2580 <__abi_tag-0xdd14>
   12688:	00f10933          	add	s2,sp,a5
   1268c:	00005797          	auipc	a5,0x5
   12690:	8307a487          	flw	fs1,-2000(a5) # 16ebc <_IO_stdin_used+0x1c>
   12694:	00005797          	auipc	a5,0x5
   12698:	81c7a407          	flw	fs0,-2020(a5) # 16eb0 <_IO_stdin_used+0x10>
   1269c:	12c00993          	li	s3,300
   126a0:	000027b7          	lui	a5,0x2
   126a4:	59078793          	addi	a5,a5,1424 # 2590 <__abi_tag-0xdd04>
   126a8:	00f104b3          	add	s1,sp,a5
   126ac:	00010413          	mv	s0,sp
   126b0:	02846407          	vl1re32.v	v8,(s0)
   126b4:	01040413          	addi	s0,s0,16
   126b8:	cb9fe0ef          	jal	11370 <_ZL6exp_psu17__rvv_float32m1_tm.constprop.0>
   126bc:	cd027057          	vsetivli	zero,4,e32,m1,ta,ma
   126c0:	8684d0d7          	vfrdiv.vf	v1,v8,fs1
   126c4:	02809457          	vfadd.vv	v8,v8,v1
   126c8:	92845457          	vfmul.vf	v8,v8,fs0
   126cc:	02848427          	vs1r.v	v8,(s1)
   126d0:	01048493          	addi	s1,s1,16
   126d4:	fd241ee3          	bne	s0,s2,126b0 <_Z19benchmark_ntt_unaryIN6nncase3ntt3ops4coshEfLm4EEvNSt7__cxx1112basic_stringIcSt11char_traitsIcESaIcEEET0_SA_+0xa0>
   126d8:	fff98993          	addi	s3,s3,-1
   126dc:	fc0992e3          	bnez	s3,126a0 <_Z19benchmark_ntt_unaryIN6nncase3ntt3ops4coshEfLm4EEvNSt7__cxx1112basic_stringIcSt11char_traitsIcESaIcEEET0_SA_+0x90>
   126e0:	c0102bf3          	rdtime	s7
   126e4:	64000793          	li	a5,1600
   126e8:	02fb8bb3          	mul	s7,s7,a5
   126ec:	97b427b7          	lui	a5,0x97b42
   126f0:	5ed78793          	addi	a5,a5,1517 # ffffffff97b425ed <__global_pointer$+0xffffffff97b27d5d>
   126f4:	097b4737          	lui	a4,0x97b4
   126f8:	25f70713          	addi	a4,a4,607 # 97b425f <__global_pointer$+0x97999cf>
   126fc:	02079793          	slli	a5,a5,0x20
   12700:	00e787b3          	add	a5,a5,a4
   12704:	00005737          	lui	a4,0x5
   12708:	b1070713          	addi	a4,a4,-1264 # 4b10 <__abi_tag-0xb784>
   1270c:	00e10933          	add	s2,sp,a4
   12710:	02fbbbb3          	mulhu	s7,s7,a5
   12714:	12c00993          	li	s3,300
   12718:	004bdb93          	srli	s7,s7,0x4
   1271c:	000027b7          	lui	a5,0x2
   12720:	59078793          	addi	a5,a5,1424 # 2590 <__abi_tag-0xdd04>
   12724:	00f10433          	add	s0,sp,a5
   12728:	00010493          	mv	s1,sp
   1272c:	0284e407          	vl1re32.v	v8,(s1)
   12730:	01048493          	addi	s1,s1,16
   12734:	c3dfe0ef          	jal	11370 <_ZL6exp_psu17__rvv_float32m1_tm.constprop.0>
   12738:	cd027057          	vsetivli	zero,4,e32,m1,ta,ma
   1273c:	8684d0d7          	vfrdiv.vf	v1,v8,fs1
   12740:	02809457          	vfadd.vv	v8,v8,v1
   12744:	92845457          	vfmul.vf	v8,v8,fs0
   12748:	02840427          	vs1r.v	v8,(s0)
   1274c:	01040413          	addi	s0,s0,16
   12750:	fd241ee3          	bne	s0,s2,1272c <_Z19benchmark_ntt_unaryIN6nncase3ntt3ops4coshEfLm4EEvNSt7__cxx1112basic_stringIcSt11char_traitsIcESaIcEEET0_SA_+0x11c>
   12754:	fff98993          	addi	s3,s3,-1
   12758:	fc0992e3          	bnez	s3,1271c <_Z19benchmark_ntt_unaryIN6nncase3ntt3ops4coshEfLm4EEvNSt7__cxx1112basic_stringIcSt11char_traitsIcESaIcEEET0_SA_+0x10c>
   1275c:	c01024f3          	rdtime	s1
   12760:	01300613          	li	a2,19
   12764:	00005597          	auipc	a1,0x5
   12768:	87c58593          	addi	a1,a1,-1924 # 16fe0 <_IO_stdin_used+0x140>
   1276c:	00008517          	auipc	a0,0x8
   12770:	87c53503          	ld	a0,-1924(a0) # 19fe8 <_ZSt4cout@GLIBCXX_3.4>
   12774:	decfe0ef          	jal	10d60 <_ZSt16__ostream_insertIcSt11char_traitsIcEERSt13basic_ostreamIT_T0_ES6_PKS3_l@plt>
   12778:	00100613          	li	a2,1
   1277c:	00005597          	auipc	a1,0x5
   12780:	87c58593          	addi	a1,a1,-1924 # 16ff8 <_IO_stdin_used+0x158>
   12784:	00008517          	auipc	a0,0x8
   12788:	86453503          	ld	a0,-1948(a0) # 19fe8 <_ZSt4cout@GLIBCXX_3.4>
   1278c:	dd4fe0ef          	jal	10d60 <_ZSt16__ostream_insertIcSt11char_traitsIcEERSt13basic_ostreamIT_T0_ES6_PKS3_l@plt>
   12790:	008ab603          	ld	a2,8(s5)
   12794:	000ab583          	ld	a1,0(s5)
   12798:	00008517          	auipc	a0,0x8
   1279c:	85053503          	ld	a0,-1968(a0) # 19fe8 <_ZSt4cout@GLIBCXX_3.4>
   127a0:	dc0fe0ef          	jal	10d60 <_ZSt16__ostream_insertIcSt11char_traitsIcEERSt13basic_ostreamIT_T0_ES6_PKS3_l@plt>
   127a4:	00005597          	auipc	a1,0x5
   127a8:	85c58593          	addi	a1,a1,-1956 # 17000 <_IO_stdin_used+0x160>
   127ac:	00600613          	li	a2,6
   127b0:	00050413          	mv	s0,a0
   127b4:	dacfe0ef          	jal	10d60 <_ZSt16__ostream_insertIcSt11char_traitsIcEERSt13basic_ostreamIT_T0_ES6_PKS3_l@plt>
   127b8:	64000793          	li	a5,1600
   127bc:	02f487b3          	mul	a5,s1,a5
   127c0:	97b42737          	lui	a4,0x97b42
   127c4:	5ed70713          	addi	a4,a4,1517 # ffffffff97b425ed <__global_pointer$+0xffffffff97b27d5d>
   127c8:	097b46b7          	lui	a3,0x97b4
   127cc:	25f68693          	addi	a3,a3,607 # 97b425f <__global_pointer$+0x97999cf>
   127d0:	02071713          	slli	a4,a4,0x20
   127d4:	00d70733          	add	a4,a4,a3
   127d8:	00004697          	auipc	a3,0x4
   127dc:	7386a707          	flw	fa4,1848(a3) # 16f10 <_IO_stdin_used+0x70>
   127e0:	00004697          	auipc	a3,0x4
   127e4:	7346a787          	flw	fa5,1844(a3) # 16f14 <_IO_stdin_used+0x74>
   127e8:	00043683          	ld	a3,0(s0)
   127ec:	02e7b7b3          	mulhu	a5,a5,a4
   127f0:	00100613          	li	a2,1
   127f4:	fe86b703          	ld	a4,-24(a3)
   127f8:	00040513          	mv	a0,s0
   127fc:	00e40733          	add	a4,s0,a4
   12800:	00c73423          	sd	a2,8(a4)
   12804:	fe86b703          	ld	a4,-24(a3)
   12808:	0047d793          	srli	a5,a5,0x4
   1280c:	417787b3          	sub	a5,a5,s7
   12810:	d037f553          	fcvt.s.lu	fa0,a5
   12814:	00e40433          	add	s0,s0,a4
   12818:	01842783          	lw	a5,24(s0)
   1281c:	18e57553          	fdiv.s	fa0,fa0,fa4
   12820:	efb7f793          	andi	a5,a5,-261
   12824:	0047e793          	ori	a5,a5,4
   12828:	00f42c23          	sw	a5,24(s0)
   1282c:	18f57553          	fdiv.s	fa0,fa0,fa5
   12830:	42050553          	fcvt.d.s	fa0,fa0
   12834:	d8cfe0ef          	jal	10dc0 <_ZNSo9_M_insertIdEERSoT_@plt>
   12838:	00700613          	li	a2,7
   1283c:	00004597          	auipc	a1,0x4
   12840:	7cc58593          	addi	a1,a1,1996 # 17008 <_IO_stdin_used+0x168>
   12844:	00050493          	mv	s1,a0
   12848:	d18fe0ef          	jal	10d60 <_ZSt16__ostream_insertIcSt11char_traitsIcEERSt13basic_ostreamIT_T0_ES6_PKS3_l@plt>
   1284c:	0004b783          	ld	a5,0(s1)
   12850:	fe87b783          	ld	a5,-24(a5)
   12854:	00f487b3          	add	a5,s1,a5
   12858:	0f07b403          	ld	s0,240(a5)
   1285c:	08040463          	beqz	s0,128e4 <_Z19benchmark_ntt_unaryIN6nncase3ntt3ops4coshEfLm4EEvNSt7__cxx1112basic_stringIcSt11char_traitsIcESaIcEEET0_SA_+0x2d4>
   12860:	03844783          	lbu	a5,56(s0)
   12864:	04078863          	beqz	a5,128b4 <_Z19benchmark_ntt_unaryIN6nncase3ntt3ops4coshEfLm4EEvNSt7__cxx1112basic_stringIcSt11char_traitsIcESaIcEEET0_SA_+0x2a4>
   12868:	04344583          	lbu	a1,67(s0)
   1286c:	00048513          	mv	a0,s1
   12870:	c60fe0ef          	jal	10cd0 <_ZNSo3putEc@plt>
   12874:	000042b7          	lui	t0,0x4
   12878:	39028293          	addi	t0,t0,912 # 4390 <__abi_tag-0xbf04>
   1287c:	00510133          	add	sp,sp,t0
   12880:	7e813083          	ld	ra,2024(sp)
   12884:	7e013403          	ld	s0,2016(sp)
   12888:	7d813483          	ld	s1,2008(sp)
   1288c:	7d013903          	ld	s2,2000(sp)
   12890:	7c813983          	ld	s3,1992(sp)
   12894:	7c013a03          	ld	s4,1984(sp)
   12898:	7b813a83          	ld	s5,1976(sp)
   1289c:	7b013b03          	ld	s6,1968(sp)
   128a0:	7a813b83          	ld	s7,1960(sp)
   128a4:	79813407          	fld	fs0,1944(sp)
   128a8:	79013487          	fld	fs1,1936(sp)
   128ac:	7f010113          	addi	sp,sp,2032
   128b0:	c50fe06f          	j	10d00 <_ZNSo5flushEv@plt>
   128b4:	00040513          	mv	a0,s0
   128b8:	cb8fe0ef          	jal	10d70 <_ZNKSt5ctypeIcE13_M_widen_initEv@plt>
   128bc:	00043783          	ld	a5,0(s0)
   128c0:	fffff717          	auipc	a4,0xfffff
   128c4:	a6c70713          	addi	a4,a4,-1428 # 1132c <_ZNKSt5ctypeIcE8do_widenEc>
   128c8:	00a00593          	li	a1,10
   128cc:	0307b783          	ld	a5,48(a5)
   128d0:	f8e78ee3          	beq	a5,a4,1286c <_Z19benchmark_ntt_unaryIN6nncase3ntt3ops4coshEfLm4EEvNSt7__cxx1112basic_stringIcSt11char_traitsIcESaIcEEET0_SA_+0x25c>
   128d4:	00040513          	mv	a0,s0
   128d8:	000780e7          	jalr	a5
   128dc:	00050593          	mv	a1,a0
   128e0:	f8dff06f          	j	1286c <_Z19benchmark_ntt_unaryIN6nncase3ntt3ops4coshEfLm4EEvNSt7__cxx1112basic_stringIcSt11char_traitsIcESaIcEEET0_SA_+0x25c>
   128e4:	c9cfe0ef          	jal	10d80 <_ZSt16__throw_bad_castv@plt>

00000000000128e8 <_Z19benchmark_ntt_unaryIN6nncase3ntt3ops4sinhEfLm4EEvNSt7__cxx1112basic_stringIcSt11char_traitsIcESaIcEEET0_SA_>:
   128e8:	81010113          	addi	sp,sp,-2032
   128ec:	ffffc2b7          	lui	t0,0xffffc
   128f0:	78813c27          	fsd	fs0,1944(sp)
   128f4:	78913827          	fsd	fs1,1936(sp)
   128f8:	c7028293          	addi	t0,t0,-912 # ffffffffffffbc70 <__global_pointer$+0xfffffffffffe13e0>
   128fc:	000027b7          	lui	a5,0x2
   12900:	20a504d3          	fmv.s	fs1,fa0
   12904:	20b58453          	fmv.s	fs0,fa1
   12908:	7e813023          	sd	s0,2016(sp)
   1290c:	7c913c23          	sd	s1,2008(sp)
   12910:	7b513c23          	sd	s5,1976(sp)
   12914:	7e113423          	sd	ra,2024(sp)
   12918:	7d213823          	sd	s2,2000(sp)
   1291c:	7d313423          	sd	s3,1992(sp)
   12920:	7d413023          	sd	s4,1984(sp)
   12924:	7b613823          	sd	s6,1968(sp)
   12928:	7b713423          	sd	s7,1960(sp)
   1292c:	58078793          	addi	a5,a5,1408 # 2580 <__abi_tag-0xdd14>
   12930:	00510133          	add	sp,sp,t0
   12934:	00010413          	mv	s0,sp
   12938:	00050a93          	mv	s5,a0
   1293c:	00f104b3          	add	s1,sp,a5
   12940:	208405d3          	fmv.s	fa1,fs0
   12944:	20948553          	fmv.s	fa0,fs1
   12948:	00040513          	mv	a0,s0
   1294c:	01040413          	addi	s0,s0,16
   12950:	de5fe0ef          	jal	11734 <_ZN6nncase7NttTest11init_tensorIfNS_3ntt12basic_vectorIfJLm4EEEEEEvRT0_T_S7_>
   12954:	fe9416e3          	bne	s0,s1,12940 <_Z19benchmark_ntt_unaryIN6nncase3ntt3ops4sinhEfLm4EEvNSt7__cxx1112basic_stringIcSt11char_traitsIcESaIcEEET0_SA_+0x58>
   12958:	000027b7          	lui	a5,0x2
   1295c:	58078793          	addi	a5,a5,1408 # 2580 <__abi_tag-0xdd14>
   12960:	00f10933          	add	s2,sp,a5
   12964:	00004797          	auipc	a5,0x4
   12968:	5587a487          	flw	fs1,1368(a5) # 16ebc <_IO_stdin_used+0x1c>
   1296c:	00004797          	auipc	a5,0x4
   12970:	5447a407          	flw	fs0,1348(a5) # 16eb0 <_IO_stdin_used+0x10>
   12974:	12c00993          	li	s3,300
   12978:	000027b7          	lui	a5,0x2
   1297c:	59078793          	addi	a5,a5,1424 # 2590 <__abi_tag-0xdd04>
   12980:	00f104b3          	add	s1,sp,a5
   12984:	00010413          	mv	s0,sp
   12988:	02846407          	vl1re32.v	v8,(s0)
   1298c:	01040413          	addi	s0,s0,16
   12990:	9e1fe0ef          	jal	11370 <_ZL6exp_psu17__rvv_float32m1_tm.constprop.0>
   12994:	cd027057          	vsetivli	zero,4,e32,m1,ta,ma
   12998:	8684d0d7          	vfrdiv.vf	v1,v8,fs1
   1299c:	0a809457          	vfsub.vv	v8,v8,v1
   129a0:	92845457          	vfmul.vf	v8,v8,fs0
   129a4:	02848427          	vs1r.v	v8,(s1)
   129a8:	01048493          	addi	s1,s1,16
   129ac:	fd241ee3          	bne	s0,s2,12988 <_Z19benchmark_ntt_unaryIN6nncase3ntt3ops4sinhEfLm4EEvNSt7__cxx1112basic_stringIcSt11char_traitsIcESaIcEEET0_SA_+0xa0>
   129b0:	fff98993          	addi	s3,s3,-1
   129b4:	fc0992e3          	bnez	s3,12978 <_Z19benchmark_ntt_unaryIN6nncase3ntt3ops4sinhEfLm4EEvNSt7__cxx1112basic_stringIcSt11char_traitsIcESaIcEEET0_SA_+0x90>
   129b8:	c0102bf3          	rdtime	s7
   129bc:	64000793          	li	a5,1600
   129c0:	02fb8bb3          	mul	s7,s7,a5
   129c4:	97b427b7          	lui	a5,0x97b42
   129c8:	5ed78793          	addi	a5,a5,1517 # ffffffff97b425ed <__global_pointer$+0xffffffff97b27d5d>
   129cc:	097b4737          	lui	a4,0x97b4
   129d0:	25f70713          	addi	a4,a4,607 # 97b425f <__global_pointer$+0x97999cf>
   129d4:	02079793          	slli	a5,a5,0x20
   129d8:	00e787b3          	add	a5,a5,a4
   129dc:	00005737          	lui	a4,0x5
   129e0:	b1070713          	addi	a4,a4,-1264 # 4b10 <__abi_tag-0xb784>
   129e4:	00e10933          	add	s2,sp,a4
   129e8:	02fbbbb3          	mulhu	s7,s7,a5
   129ec:	12c00993          	li	s3,300
   129f0:	004bdb93          	srli	s7,s7,0x4
   129f4:	000027b7          	lui	a5,0x2
   129f8:	59078793          	addi	a5,a5,1424 # 2590 <__abi_tag-0xdd04>
   129fc:	00f10433          	add	s0,sp,a5
   12a00:	00010493          	mv	s1,sp
   12a04:	0284e407          	vl1re32.v	v8,(s1)
   12a08:	01048493          	addi	s1,s1,16
   12a0c:	965fe0ef          	jal	11370 <_ZL6exp_psu17__rvv_float32m1_tm.constprop.0>
   12a10:	cd027057          	vsetivli	zero,4,e32,m1,ta,ma
   12a14:	8684d0d7          	vfrdiv.vf	v1,v8,fs1
   12a18:	0a809457          	vfsub.vv	v8,v8,v1
   12a1c:	92845457          	vfmul.vf	v8,v8,fs0
   12a20:	02840427          	vs1r.v	v8,(s0)
   12a24:	01040413          	addi	s0,s0,16
   12a28:	fd241ee3          	bne	s0,s2,12a04 <_Z19benchmark_ntt_unaryIN6nncase3ntt3ops4sinhEfLm4EEvNSt7__cxx1112basic_stringIcSt11char_traitsIcESaIcEEET0_SA_+0x11c>
   12a2c:	fff98993          	addi	s3,s3,-1
   12a30:	fc0992e3          	bnez	s3,129f4 <_Z19benchmark_ntt_unaryIN6nncase3ntt3ops4sinhEfLm4EEvNSt7__cxx1112basic_stringIcSt11char_traitsIcESaIcEEET0_SA_+0x10c>
   12a34:	c01024f3          	rdtime	s1
   12a38:	01300613          	li	a2,19
   12a3c:	00004597          	auipc	a1,0x4
   12a40:	5a458593          	addi	a1,a1,1444 # 16fe0 <_IO_stdin_used+0x140>
   12a44:	00007517          	auipc	a0,0x7
   12a48:	5a453503          	ld	a0,1444(a0) # 19fe8 <_ZSt4cout@GLIBCXX_3.4>
   12a4c:	b14fe0ef          	jal	10d60 <_ZSt16__ostream_insertIcSt11char_traitsIcEERSt13basic_ostreamIT_T0_ES6_PKS3_l@plt>
   12a50:	00100613          	li	a2,1
   12a54:	00004597          	auipc	a1,0x4
   12a58:	5a458593          	addi	a1,a1,1444 # 16ff8 <_IO_stdin_used+0x158>
   12a5c:	00007517          	auipc	a0,0x7
   12a60:	58c53503          	ld	a0,1420(a0) # 19fe8 <_ZSt4cout@GLIBCXX_3.4>
   12a64:	afcfe0ef          	jal	10d60 <_ZSt16__ostream_insertIcSt11char_traitsIcEERSt13basic_ostreamIT_T0_ES6_PKS3_l@plt>
   12a68:	008ab603          	ld	a2,8(s5)
   12a6c:	000ab583          	ld	a1,0(s5)
   12a70:	00007517          	auipc	a0,0x7
   12a74:	57853503          	ld	a0,1400(a0) # 19fe8 <_ZSt4cout@GLIBCXX_3.4>
   12a78:	ae8fe0ef          	jal	10d60 <_ZSt16__ostream_insertIcSt11char_traitsIcEERSt13basic_ostreamIT_T0_ES6_PKS3_l@plt>
   12a7c:	00004597          	auipc	a1,0x4
   12a80:	58458593          	addi	a1,a1,1412 # 17000 <_IO_stdin_used+0x160>
   12a84:	00600613          	li	a2,6
   12a88:	00050413          	mv	s0,a0
   12a8c:	ad4fe0ef          	jal	10d60 <_ZSt16__ostream_insertIcSt11char_traitsIcEERSt13basic_ostreamIT_T0_ES6_PKS3_l@plt>
   12a90:	64000793          	li	a5,1600
   12a94:	02f487b3          	mul	a5,s1,a5
   12a98:	97b42737          	lui	a4,0x97b42
   12a9c:	5ed70713          	addi	a4,a4,1517 # ffffffff97b425ed <__global_pointer$+0xffffffff97b27d5d>
   12aa0:	097b46b7          	lui	a3,0x97b4
   12aa4:	25f68693          	addi	a3,a3,607 # 97b425f <__global_pointer$+0x97999cf>
   12aa8:	02071713          	slli	a4,a4,0x20
   12aac:	00d70733          	add	a4,a4,a3
   12ab0:	00004697          	auipc	a3,0x4
   12ab4:	4606a707          	flw	fa4,1120(a3) # 16f10 <_IO_stdin_used+0x70>
   12ab8:	00004697          	auipc	a3,0x4
   12abc:	45c6a787          	flw	fa5,1116(a3) # 16f14 <_IO_stdin_used+0x74>
   12ac0:	00043683          	ld	a3,0(s0)
   12ac4:	02e7b7b3          	mulhu	a5,a5,a4
   12ac8:	00100613          	li	a2,1
   12acc:	fe86b703          	ld	a4,-24(a3)
   12ad0:	00040513          	mv	a0,s0
   12ad4:	00e40733          	add	a4,s0,a4
   12ad8:	00c73423          	sd	a2,8(a4)
   12adc:	fe86b703          	ld	a4,-24(a3)
   12ae0:	0047d793          	srli	a5,a5,0x4
   12ae4:	417787b3          	sub	a5,a5,s7
   12ae8:	d037f553          	fcvt.s.lu	fa0,a5
   12aec:	00e40433          	add	s0,s0,a4
   12af0:	01842783          	lw	a5,24(s0)
   12af4:	18e57553          	fdiv.s	fa0,fa0,fa4
   12af8:	efb7f793          	andi	a5,a5,-261
   12afc:	0047e793          	ori	a5,a5,4
   12b00:	00f42c23          	sw	a5,24(s0)
   12b04:	18f57553          	fdiv.s	fa0,fa0,fa5
   12b08:	42050553          	fcvt.d.s	fa0,fa0
   12b0c:	ab4fe0ef          	jal	10dc0 <_ZNSo9_M_insertIdEERSoT_@plt>
   12b10:	00700613          	li	a2,7
   12b14:	00004597          	auipc	a1,0x4
   12b18:	4f458593          	addi	a1,a1,1268 # 17008 <_IO_stdin_used+0x168>
   12b1c:	00050493          	mv	s1,a0
   12b20:	a40fe0ef          	jal	10d60 <_ZSt16__ostream_insertIcSt11char_traitsIcEERSt13basic_ostreamIT_T0_ES6_PKS3_l@plt>
   12b24:	0004b783          	ld	a5,0(s1)
   12b28:	fe87b783          	ld	a5,-24(a5)
   12b2c:	00f487b3          	add	a5,s1,a5
   12b30:	0f07b403          	ld	s0,240(a5)
   12b34:	08040463          	beqz	s0,12bbc <_Z19benchmark_ntt_unaryIN6nncase3ntt3ops4sinhEfLm4EEvNSt7__cxx1112basic_stringIcSt11char_traitsIcESaIcEEET0_SA_+0x2d4>
   12b38:	03844783          	lbu	a5,56(s0)
   12b3c:	04078863          	beqz	a5,12b8c <_Z19benchmark_ntt_unaryIN6nncase3ntt3ops4sinhEfLm4EEvNSt7__cxx1112basic_stringIcSt11char_traitsIcESaIcEEET0_SA_+0x2a4>
   12b40:	04344583          	lbu	a1,67(s0)
   12b44:	00048513          	mv	a0,s1
   12b48:	988fe0ef          	jal	10cd0 <_ZNSo3putEc@plt>
   12b4c:	000042b7          	lui	t0,0x4
   12b50:	39028293          	addi	t0,t0,912 # 4390 <__abi_tag-0xbf04>
   12b54:	00510133          	add	sp,sp,t0
   12b58:	7e813083          	ld	ra,2024(sp)
   12b5c:	7e013403          	ld	s0,2016(sp)
   12b60:	7d813483          	ld	s1,2008(sp)
   12b64:	7d013903          	ld	s2,2000(sp)
   12b68:	7c813983          	ld	s3,1992(sp)
   12b6c:	7c013a03          	ld	s4,1984(sp)
   12b70:	7b813a83          	ld	s5,1976(sp)
   12b74:	7b013b03          	ld	s6,1968(sp)
   12b78:	7a813b83          	ld	s7,1960(sp)
   12b7c:	79813407          	fld	fs0,1944(sp)
   12b80:	79013487          	fld	fs1,1936(sp)
   12b84:	7f010113          	addi	sp,sp,2032
   12b88:	978fe06f          	j	10d00 <_ZNSo5flushEv@plt>
   12b8c:	00040513          	mv	a0,s0
   12b90:	9e0fe0ef          	jal	10d70 <_ZNKSt5ctypeIcE13_M_widen_initEv@plt>
   12b94:	00043783          	ld	a5,0(s0)
   12b98:	ffffe717          	auipc	a4,0xffffe
   12b9c:	79470713          	addi	a4,a4,1940 # 1132c <_ZNKSt5ctypeIcE8do_widenEc>
   12ba0:	00a00593          	li	a1,10
   12ba4:	0307b783          	ld	a5,48(a5)
   12ba8:	f8e78ee3          	beq	a5,a4,12b44 <_Z19benchmark_ntt_unaryIN6nncase3ntt3ops4sinhEfLm4EEvNSt7__cxx1112basic_stringIcSt11char_traitsIcESaIcEEET0_SA_+0x25c>
   12bac:	00040513          	mv	a0,s0
   12bb0:	000780e7          	jalr	a5
   12bb4:	00050593          	mv	a1,a0
   12bb8:	f8dff06f          	j	12b44 <_Z19benchmark_ntt_unaryIN6nncase3ntt3ops4sinhEfLm4EEvNSt7__cxx1112basic_stringIcSt11char_traitsIcESaIcEEET0_SA_+0x25c>
   12bbc:	9c4fe0ef          	jal	10d80 <_ZSt16__throw_bad_castv@plt>

0000000000012bc0 <_Z19benchmark_ntt_unaryIN6nncase3ntt3ops5swishEfLm4EEvNSt7__cxx1112basic_stringIcSt11char_traitsIcESaIcEEET0_SA_>:
   12bc0:	81010113          	addi	sp,sp,-2032
   12bc4:	ffffc2b7          	lui	t0,0xffffc
   12bc8:	78813c27          	fsd	fs0,1944(sp)
   12bcc:	78913827          	fsd	fs1,1936(sp)
   12bd0:	c7028293          	addi	t0,t0,-912 # ffffffffffffbc70 <__global_pointer$+0xfffffffffffe13e0>
   12bd4:	000027b7          	lui	a5,0x2
   12bd8:	20a504d3          	fmv.s	fs1,fa0
   12bdc:	20b58453          	fmv.s	fs0,fa1
   12be0:	7e813023          	sd	s0,2016(sp)
   12be4:	7c913c23          	sd	s1,2008(sp)
   12be8:	7b513c23          	sd	s5,1976(sp)
   12bec:	7e113423          	sd	ra,2024(sp)
   12bf0:	7d213823          	sd	s2,2000(sp)
   12bf4:	7d313423          	sd	s3,1992(sp)
   12bf8:	7d413023          	sd	s4,1984(sp)
   12bfc:	7b613823          	sd	s6,1968(sp)
   12c00:	7b713423          	sd	s7,1960(sp)
   12c04:	58078793          	addi	a5,a5,1408 # 2580 <__abi_tag-0xdd14>
   12c08:	00510133          	add	sp,sp,t0
   12c0c:	00010413          	mv	s0,sp
   12c10:	00050a93          	mv	s5,a0
   12c14:	00f104b3          	add	s1,sp,a5
   12c18:	208405d3          	fmv.s	fa1,fs0
   12c1c:	20948553          	fmv.s	fa0,fs1
   12c20:	00040513          	mv	a0,s0
   12c24:	01040413          	addi	s0,s0,16
   12c28:	b0dfe0ef          	jal	11734 <_ZN6nncase7NttTest11init_tensorIfNS_3ntt12basic_vectorIfJLm4EEEEEEvRT0_T_S7_>
   12c2c:	fe9416e3          	bne	s0,s1,12c18 <_Z19benchmark_ntt_unaryIN6nncase3ntt3ops5swishEfLm4EEvNSt7__cxx1112basic_stringIcSt11char_traitsIcESaIcEEET0_SA_+0x58>
   12c30:	000027b7          	lui	a5,0x2
   12c34:	58078793          	addi	a5,a5,1408 # 2580 <__abi_tag-0xdd14>
   12c38:	00f10933          	add	s2,sp,a5
   12c3c:	00004797          	auipc	a5,0x4
   12c40:	2807a407          	flw	fs0,640(a5) # 16ebc <_IO_stdin_used+0x1c>
   12c44:	12c00993          	li	s3,300
   12c48:	cd027057          	vsetivli	zero,4,e32,m1,ta,ma
   12c4c:	000027b7          	lui	a5,0x2
   12c50:	59078793          	addi	a5,a5,1424 # 2590 <__abi_tag-0xdd04>
   12c54:	00f104b3          	add	s1,sp,a5
   12c58:	00010413          	mv	s0,sp
   12c5c:	02846087          	vl1re32.v	v1,(s0)
   12c60:	01040413          	addi	s0,s0,16
   12c64:	26109457          	vfneg.v	v8,v1
   12c68:	f08fe0ef          	jal	11370 <_ZL6exp_psu17__rvv_float32m1_tm.constprop.0>
   12c6c:	cd027057          	vsetivli	zero,4,e32,m1,ta,ma
   12c70:	02845457          	vfadd.vf	v8,v8,fs0
   12c74:	821410d7          	vfdiv.vv	v1,v1,v8
   12c78:	028480a7          	vs1r.v	v1,(s1)
   12c7c:	01048493          	addi	s1,s1,16
   12c80:	fd241ee3          	bne	s0,s2,12c5c <_Z19benchmark_ntt_unaryIN6nncase3ntt3ops5swishEfLm4EEvNSt7__cxx1112basic_stringIcSt11char_traitsIcESaIcEEET0_SA_+0x9c>
   12c84:	fff98993          	addi	s3,s3,-1
   12c88:	fc0992e3          	bnez	s3,12c4c <_Z19benchmark_ntt_unaryIN6nncase3ntt3ops5swishEfLm4EEvNSt7__cxx1112basic_stringIcSt11char_traitsIcESaIcEEET0_SA_+0x8c>
   12c8c:	c0102bf3          	rdtime	s7
   12c90:	64000793          	li	a5,1600
   12c94:	02fb8bb3          	mul	s7,s7,a5
   12c98:	97b427b7          	lui	a5,0x97b42
   12c9c:	5ed78793          	addi	a5,a5,1517 # ffffffff97b425ed <__global_pointer$+0xffffffff97b27d5d>
   12ca0:	097b4737          	lui	a4,0x97b4
   12ca4:	25f70713          	addi	a4,a4,607 # 97b425f <__global_pointer$+0x97999cf>
   12ca8:	02079793          	slli	a5,a5,0x20
   12cac:	00e787b3          	add	a5,a5,a4
   12cb0:	00005737          	lui	a4,0x5
   12cb4:	b1070713          	addi	a4,a4,-1264 # 4b10 <__abi_tag-0xb784>
   12cb8:	00e10933          	add	s2,sp,a4
   12cbc:	02fbbbb3          	mulhu	s7,s7,a5
   12cc0:	12c00993          	li	s3,300
   12cc4:	cd027057          	vsetivli	zero,4,e32,m1,ta,ma
   12cc8:	004bdb93          	srli	s7,s7,0x4
   12ccc:	000027b7          	lui	a5,0x2
   12cd0:	59078793          	addi	a5,a5,1424 # 2590 <__abi_tag-0xdd04>
   12cd4:	00f10433          	add	s0,sp,a5
   12cd8:	00010493          	mv	s1,sp
   12cdc:	0284e087          	vl1re32.v	v1,(s1)
   12ce0:	01048493          	addi	s1,s1,16
   12ce4:	26109457          	vfneg.v	v8,v1
   12ce8:	e88fe0ef          	jal	11370 <_ZL6exp_psu17__rvv_float32m1_tm.constprop.0>
   12cec:	cd027057          	vsetivli	zero,4,e32,m1,ta,ma
   12cf0:	02845457          	vfadd.vf	v8,v8,fs0
   12cf4:	821410d7          	vfdiv.vv	v1,v1,v8
   12cf8:	028400a7          	vs1r.v	v1,(s0)
   12cfc:	01040413          	addi	s0,s0,16
   12d00:	fd241ee3          	bne	s0,s2,12cdc <_Z19benchmark_ntt_unaryIN6nncase3ntt3ops5swishEfLm4EEvNSt7__cxx1112basic_stringIcSt11char_traitsIcESaIcEEET0_SA_+0x11c>
   12d04:	fff98993          	addi	s3,s3,-1
   12d08:	fc0992e3          	bnez	s3,12ccc <_Z19benchmark_ntt_unaryIN6nncase3ntt3ops5swishEfLm4EEvNSt7__cxx1112basic_stringIcSt11char_traitsIcESaIcEEET0_SA_+0x10c>
   12d0c:	c01024f3          	rdtime	s1
   12d10:	01300613          	li	a2,19
   12d14:	00004597          	auipc	a1,0x4
   12d18:	2cc58593          	addi	a1,a1,716 # 16fe0 <_IO_stdin_used+0x140>
   12d1c:	00007517          	auipc	a0,0x7
   12d20:	2cc53503          	ld	a0,716(a0) # 19fe8 <_ZSt4cout@GLIBCXX_3.4>
   12d24:	83cfe0ef          	jal	10d60 <_ZSt16__ostream_insertIcSt11char_traitsIcEERSt13basic_ostreamIT_T0_ES6_PKS3_l@plt>
   12d28:	00100613          	li	a2,1
   12d2c:	00004597          	auipc	a1,0x4
   12d30:	2cc58593          	addi	a1,a1,716 # 16ff8 <_IO_stdin_used+0x158>
   12d34:	00007517          	auipc	a0,0x7
   12d38:	2b453503          	ld	a0,692(a0) # 19fe8 <_ZSt4cout@GLIBCXX_3.4>
   12d3c:	824fe0ef          	jal	10d60 <_ZSt16__ostream_insertIcSt11char_traitsIcEERSt13basic_ostreamIT_T0_ES6_PKS3_l@plt>
   12d40:	008ab603          	ld	a2,8(s5)
   12d44:	000ab583          	ld	a1,0(s5)
   12d48:	00007517          	auipc	a0,0x7
   12d4c:	2a053503          	ld	a0,672(a0) # 19fe8 <_ZSt4cout@GLIBCXX_3.4>
   12d50:	810fe0ef          	jal	10d60 <_ZSt16__ostream_insertIcSt11char_traitsIcEERSt13basic_ostreamIT_T0_ES6_PKS3_l@plt>
   12d54:	00004597          	auipc	a1,0x4
   12d58:	2ac58593          	addi	a1,a1,684 # 17000 <_IO_stdin_used+0x160>
   12d5c:	00600613          	li	a2,6
   12d60:	00050413          	mv	s0,a0
   12d64:	ffdfd0ef          	jal	10d60 <_ZSt16__ostream_insertIcSt11char_traitsIcEERSt13basic_ostreamIT_T0_ES6_PKS3_l@plt>
   12d68:	64000793          	li	a5,1600
   12d6c:	02f487b3          	mul	a5,s1,a5
   12d70:	97b42737          	lui	a4,0x97b42
   12d74:	5ed70713          	addi	a4,a4,1517 # ffffffff97b425ed <__global_pointer$+0xffffffff97b27d5d>
   12d78:	097b46b7          	lui	a3,0x97b4
   12d7c:	25f68693          	addi	a3,a3,607 # 97b425f <__global_pointer$+0x97999cf>
   12d80:	02071713          	slli	a4,a4,0x20
   12d84:	00d70733          	add	a4,a4,a3
   12d88:	00004697          	auipc	a3,0x4
   12d8c:	1886a707          	flw	fa4,392(a3) # 16f10 <_IO_stdin_used+0x70>
   12d90:	00004697          	auipc	a3,0x4
   12d94:	1846a787          	flw	fa5,388(a3) # 16f14 <_IO_stdin_used+0x74>
   12d98:	00043683          	ld	a3,0(s0)
   12d9c:	02e7b7b3          	mulhu	a5,a5,a4
   12da0:	00100613          	li	a2,1
   12da4:	fe86b703          	ld	a4,-24(a3)
   12da8:	00040513          	mv	a0,s0
   12dac:	00e40733          	add	a4,s0,a4
   12db0:	00c73423          	sd	a2,8(a4)
   12db4:	fe86b703          	ld	a4,-24(a3)
   12db8:	0047d793          	srli	a5,a5,0x4
   12dbc:	417787b3          	sub	a5,a5,s7
   12dc0:	d037f553          	fcvt.s.lu	fa0,a5
   12dc4:	00e40433          	add	s0,s0,a4
   12dc8:	01842783          	lw	a5,24(s0)
   12dcc:	18e57553          	fdiv.s	fa0,fa0,fa4
   12dd0:	efb7f793          	andi	a5,a5,-261
   12dd4:	0047e793          	ori	a5,a5,4
   12dd8:	00f42c23          	sw	a5,24(s0)
   12ddc:	18f57553          	fdiv.s	fa0,fa0,fa5
   12de0:	42050553          	fcvt.d.s	fa0,fa0
   12de4:	fddfd0ef          	jal	10dc0 <_ZNSo9_M_insertIdEERSoT_@plt>
   12de8:	00700613          	li	a2,7
   12dec:	00004597          	auipc	a1,0x4
   12df0:	21c58593          	addi	a1,a1,540 # 17008 <_IO_stdin_used+0x168>
   12df4:	00050493          	mv	s1,a0
   12df8:	f69fd0ef          	jal	10d60 <_ZSt16__ostream_insertIcSt11char_traitsIcEERSt13basic_ostreamIT_T0_ES6_PKS3_l@plt>
   12dfc:	0004b783          	ld	a5,0(s1)
   12e00:	fe87b783          	ld	a5,-24(a5)
   12e04:	00f487b3          	add	a5,s1,a5
   12e08:	0f07b403          	ld	s0,240(a5)
   12e0c:	08040463          	beqz	s0,12e94 <_Z19benchmark_ntt_unaryIN6nncase3ntt3ops5swishEfLm4EEvNSt7__cxx1112basic_stringIcSt11char_traitsIcESaIcEEET0_SA_+0x2d4>
   12e10:	03844783          	lbu	a5,56(s0)
   12e14:	04078863          	beqz	a5,12e64 <_Z19benchmark_ntt_unaryIN6nncase3ntt3ops5swishEfLm4EEvNSt7__cxx1112basic_stringIcSt11char_traitsIcESaIcEEET0_SA_+0x2a4>
   12e18:	04344583          	lbu	a1,67(s0)
   12e1c:	00048513          	mv	a0,s1
   12e20:	eb1fd0ef          	jal	10cd0 <_ZNSo3putEc@plt>
   12e24:	000042b7          	lui	t0,0x4
   12e28:	39028293          	addi	t0,t0,912 # 4390 <__abi_tag-0xbf04>
   12e2c:	00510133          	add	sp,sp,t0
   12e30:	7e813083          	ld	ra,2024(sp)
   12e34:	7e013403          	ld	s0,2016(sp)
   12e38:	7d813483          	ld	s1,2008(sp)
   12e3c:	7d013903          	ld	s2,2000(sp)
   12e40:	7c813983          	ld	s3,1992(sp)
   12e44:	7c013a03          	ld	s4,1984(sp)
   12e48:	7b813a83          	ld	s5,1976(sp)
   12e4c:	7b013b03          	ld	s6,1968(sp)
   12e50:	7a813b83          	ld	s7,1960(sp)
   12e54:	79813407          	fld	fs0,1944(sp)
   12e58:	79013487          	fld	fs1,1936(sp)
   12e5c:	7f010113          	addi	sp,sp,2032
   12e60:	ea1fd06f          	j	10d00 <_ZNSo5flushEv@plt>
   12e64:	00040513          	mv	a0,s0
   12e68:	f09fd0ef          	jal	10d70 <_ZNKSt5ctypeIcE13_M_widen_initEv@plt>
   12e6c:	00043783          	ld	a5,0(s0)
   12e70:	ffffe717          	auipc	a4,0xffffe
   12e74:	4bc70713          	addi	a4,a4,1212 # 1132c <_ZNKSt5ctypeIcE8do_widenEc>
   12e78:	00a00593          	li	a1,10
   12e7c:	0307b783          	ld	a5,48(a5)
   12e80:	f8e78ee3          	beq	a5,a4,12e1c <_Z19benchmark_ntt_unaryIN6nncase3ntt3ops5swishEfLm4EEvNSt7__cxx1112basic_stringIcSt11char_traitsIcESaIcEEET0_SA_+0x25c>
   12e84:	00040513          	mv	a0,s0
   12e88:	000780e7          	jalr	a5
   12e8c:	00050593          	mv	a1,a0
   12e90:	f8dff06f          	j	12e1c <_Z19benchmark_ntt_unaryIN6nncase3ntt3ops5swishEfLm4EEvNSt7__cxx1112basic_stringIcSt11char_traitsIcESaIcEEET0_SA_+0x25c>
   12e94:	eedfd0ef          	jal	10d80 <_ZSt16__throw_bad_castv@plt>

0000000000012e98 <_Z19benchmark_ntt_unaryIN6nncase3ntt3ops3absEfLm4EEvNSt7__cxx1112basic_stringIcSt11char_traitsIcESaIcEEET0_SA_>:
   12e98:	ffffc2b7          	lui	t0,0xffffc
   12e9c:	81010113          	addi	sp,sp,-2032
   12ea0:	ca028293          	addi	t0,t0,-864 # ffffffffffffbca0 <__global_pointer$+0xfffffffffffe1410>
   12ea4:	7e813023          	sd	s0,2016(sp)
   12ea8:	7c913c23          	sd	s1,2008(sp)
   12eac:	7d213823          	sd	s2,2000(sp)
   12eb0:	7e113423          	sd	ra,2024(sp)
   12eb4:	000027b7          	lui	a5,0x2
   12eb8:	00510133          	add	sp,sp,t0
   12ebc:	01010493          	addi	s1,sp,16
   12ec0:	58078793          	addi	a5,a5,1408 # 2580 <__abi_tag-0xdd14>
   12ec4:	00050413          	mv	s0,a0
   12ec8:	00f48933          	add	s2,s1,a5
   12ecc:	00048513          	mv	a0,s1
   12ed0:	00b12627          	fsw	fa1,12(sp)
   12ed4:	00a12427          	fsw	fa0,8(sp)
   12ed8:	01048493          	addi	s1,s1,16
   12edc:	859fe0ef          	jal	11734 <_ZN6nncase7NttTest11init_tensorIfNS_3ntt12basic_vectorIfJLm4EEEEEEvRT0_T_S7_>
   12ee0:	00812507          	flw	fa0,8(sp)
   12ee4:	00c12587          	flw	fa1,12(sp)
   12ee8:	ff2492e3          	bne	s1,s2,12ecc <_Z19benchmark_ntt_unaryIN6nncase3ntt3ops3absEfLm4EEvNSt7__cxx1112basic_stringIcSt11char_traitsIcESaIcEEET0_SA_+0x34>
   12eec:	00002337          	lui	t1,0x2
   12ef0:	5a030793          	addi	a5,t1,1440 # 25a0 <__abi_tag-0xdcf4>
   12ef4:	01010813          	addi	a6,sp,16
   12ef8:	00278533          	add	a0,a5,sp
   12efc:	5f030313          	addi	t1,t1,1520
   12f00:	12c00e13          	li	t3,300
   12f04:	cd027057          	vsetivli	zero,4,e32,m1,ta,ma
   12f08:	07000613          	li	a2,112
   12f0c:	03000593          	li	a1,48
   12f10:	00b807b3          	add	a5,a6,a1
   12f14:	fd078713          	addi	a4,a5,-48
   12f18:	02876407          	vl1re32.v	v8,(a4)
   12f1c:	fe078713          	addi	a4,a5,-32
   12f20:	02876387          	vl1re32.v	v7,(a4)
   12f24:	ff078693          	addi	a3,a5,-16
   12f28:	00c80733          	add	a4,a6,a2
   12f2c:	0286e307          	vl1re32.v	v6,(a3)
   12f30:	fc070693          	addi	a3,a4,-64
   12f34:	0286e287          	vl1re32.v	v5,(a3)
   12f38:	fd070693          	addi	a3,a4,-48
   12f3c:	0286e207          	vl1re32.v	v4,(a3)
   12f40:	fe070893          	addi	a7,a4,-32
   12f44:	ff070693          	addi	a3,a4,-16
   12f48:	0288e187          	vl1re32.v	v3,(a7)
   12f4c:	0286e107          	vl1re32.v	v2,(a3)
   12f50:	04078713          	addi	a4,a5,64
   12f54:	2a841457          	vfabs.v	v8,v8
   12f58:	02876087          	vl1re32.v	v1,(a4)
   12f5c:	00b507b3          	add	a5,a0,a1
   12f60:	2a7393d7          	vfabs.v	v7,v7
   12f64:	fd078713          	addi	a4,a5,-48
   12f68:	2a631357          	vfabs.v	v6,v6
   12f6c:	02870427          	vs1r.v	v8,(a4)
   12f70:	2a5292d7          	vfabs.v	v5,v5
   12f74:	fe078713          	addi	a4,a5,-32
   12f78:	028703a7          	vs1r.v	v7,(a4)
   12f7c:	ff078693          	addi	a3,a5,-16
   12f80:	00c50733          	add	a4,a0,a2
   12f84:	2a421257          	vfabs.v	v4,v4
   12f88:	02868327          	vs1r.v	v6,(a3)
   12f8c:	2a3191d7          	vfabs.v	v3,v3
   12f90:	fc070693          	addi	a3,a4,-64
   12f94:	028682a7          	vs1r.v	v5,(a3)
   12f98:	2a211157          	vfabs.v	v2,v2
   12f9c:	fd070693          	addi	a3,a4,-48
   12fa0:	02868227          	vs1r.v	v4,(a3)
   12fa4:	2a1090d7          	vfabs.v	v1,v1
   12fa8:	fe070693          	addi	a3,a4,-32
   12fac:	028681a7          	vs1r.v	v3,(a3)
   12fb0:	ff070713          	addi	a4,a4,-16
   12fb4:	02870127          	vs1r.v	v2,(a4)
   12fb8:	04078793          	addi	a5,a5,64
   12fbc:	028780a7          	vs1r.v	v1,(a5)
   12fc0:	08060613          	addi	a2,a2,128
   12fc4:	08058593          	addi	a1,a1,128
   12fc8:	f46614e3          	bne	a2,t1,12f10 <_Z19benchmark_ntt_unaryIN6nncase3ntt3ops3absEfLm4EEvNSt7__cxx1112basic_stringIcSt11char_traitsIcESaIcEEET0_SA_+0x78>
   12fcc:	fffe0e13          	addi	t3,t3,-1
   12fd0:	f20e1ce3          	bnez	t3,12f08 <_Z19benchmark_ntt_unaryIN6nncase3ntt3ops3absEfLm4EEvNSt7__cxx1112basic_stringIcSt11char_traitsIcESaIcEEET0_SA_+0x70>
   12fd4:	c01024f3          	rdtime	s1
   12fd8:	64000793          	li	a5,1600
   12fdc:	02f484b3          	mul	s1,s1,a5
   12fe0:	97b427b7          	lui	a5,0x97b42
   12fe4:	5ed78793          	addi	a5,a5,1517 # ffffffff97b425ed <__global_pointer$+0xffffffff97b27d5d>
   12fe8:	097b4737          	lui	a4,0x97b4
   12fec:	02079793          	slli	a5,a5,0x20
   12ff0:	25f70713          	addi	a4,a4,607 # 97b425f <__global_pointer$+0x97999cf>
   12ff4:	00e787b3          	add	a5,a5,a4
   12ff8:	00002337          	lui	t1,0x2
   12ffc:	01010813          	addi	a6,sp,16
   13000:	12c00e13          	li	t3,300
   13004:	02f4b4b3          	mulhu	s1,s1,a5
   13008:	5a030793          	addi	a5,t1,1440 # 25a0 <__abi_tag-0xdcf4>
   1300c:	00278533          	add	a0,a5,sp
   13010:	5f030313          	addi	t1,t1,1520
   13014:	cd027057          	vsetivli	zero,4,e32,m1,ta,ma
   13018:	0044d493          	srli	s1,s1,0x4
   1301c:	07000613          	li	a2,112
   13020:	03000593          	li	a1,48
   13024:	00b807b3          	add	a5,a6,a1
   13028:	fd078713          	addi	a4,a5,-48
   1302c:	02876407          	vl1re32.v	v8,(a4)
   13030:	fe078713          	addi	a4,a5,-32
   13034:	02876387          	vl1re32.v	v7,(a4)
   13038:	ff078693          	addi	a3,a5,-16
   1303c:	00c80733          	add	a4,a6,a2
   13040:	0286e307          	vl1re32.v	v6,(a3)
   13044:	fc070693          	addi	a3,a4,-64
   13048:	0286e287          	vl1re32.v	v5,(a3)
   1304c:	fd070693          	addi	a3,a4,-48
   13050:	0286e207          	vl1re32.v	v4,(a3)
   13054:	fe070893          	addi	a7,a4,-32
   13058:	ff070693          	addi	a3,a4,-16
   1305c:	0288e187          	vl1re32.v	v3,(a7)
   13060:	0286e107          	vl1re32.v	v2,(a3)
   13064:	04078713          	addi	a4,a5,64
   13068:	2a841457          	vfabs.v	v8,v8
   1306c:	02876087          	vl1re32.v	v1,(a4)
   13070:	00b507b3          	add	a5,a0,a1
   13074:	2a7393d7          	vfabs.v	v7,v7
   13078:	fd078713          	addi	a4,a5,-48
   1307c:	2a631357          	vfabs.v	v6,v6
   13080:	02870427          	vs1r.v	v8,(a4)
   13084:	2a5292d7          	vfabs.v	v5,v5
   13088:	fe078713          	addi	a4,a5,-32
   1308c:	028703a7          	vs1r.v	v7,(a4)
   13090:	ff078693          	addi	a3,a5,-16
   13094:	00c50733          	add	a4,a0,a2
   13098:	2a421257          	vfabs.v	v4,v4
   1309c:	02868327          	vs1r.v	v6,(a3)
   130a0:	2a3191d7          	vfabs.v	v3,v3
   130a4:	fc070693          	addi	a3,a4,-64
   130a8:	028682a7          	vs1r.v	v5,(a3)
   130ac:	2a211157          	vfabs.v	v2,v2
   130b0:	fd070693          	addi	a3,a4,-48
   130b4:	02868227          	vs1r.v	v4,(a3)
   130b8:	2a1090d7          	vfabs.v	v1,v1
   130bc:	fe070693          	addi	a3,a4,-32
   130c0:	028681a7          	vs1r.v	v3,(a3)
   130c4:	ff070713          	addi	a4,a4,-16
   130c8:	02870127          	vs1r.v	v2,(a4)
   130cc:	04078793          	addi	a5,a5,64
   130d0:	028780a7          	vs1r.v	v1,(a5)
   130d4:	08060613          	addi	a2,a2,128
   130d8:	08058593          	addi	a1,a1,128
   130dc:	f46614e3          	bne	a2,t1,13024 <_Z19benchmark_ntt_unaryIN6nncase3ntt3ops3absEfLm4EEvNSt7__cxx1112basic_stringIcSt11char_traitsIcESaIcEEET0_SA_+0x18c>
   130e0:	fffe0e13          	addi	t3,t3,-1
   130e4:	f20e1ce3          	bnez	t3,1301c <_Z19benchmark_ntt_unaryIN6nncase3ntt3ops3absEfLm4EEvNSt7__cxx1112basic_stringIcSt11char_traitsIcESaIcEEET0_SA_+0x184>
   130e8:	c0102973          	rdtime	s2
   130ec:	01300613          	li	a2,19
   130f0:	00004597          	auipc	a1,0x4
   130f4:	ef058593          	addi	a1,a1,-272 # 16fe0 <_IO_stdin_used+0x140>
   130f8:	00007517          	auipc	a0,0x7
   130fc:	ef053503          	ld	a0,-272(a0) # 19fe8 <_ZSt4cout@GLIBCXX_3.4>
   13100:	c61fd0ef          	jal	10d60 <_ZSt16__ostream_insertIcSt11char_traitsIcEERSt13basic_ostreamIT_T0_ES6_PKS3_l@plt>
   13104:	00100613          	li	a2,1
   13108:	00004597          	auipc	a1,0x4
   1310c:	ef058593          	addi	a1,a1,-272 # 16ff8 <_IO_stdin_used+0x158>
   13110:	00007517          	auipc	a0,0x7
   13114:	ed853503          	ld	a0,-296(a0) # 19fe8 <_ZSt4cout@GLIBCXX_3.4>
   13118:	c49fd0ef          	jal	10d60 <_ZSt16__ostream_insertIcSt11char_traitsIcEERSt13basic_ostreamIT_T0_ES6_PKS3_l@plt>
   1311c:	00843603          	ld	a2,8(s0)
   13120:	00043583          	ld	a1,0(s0)
   13124:	00007517          	auipc	a0,0x7
   13128:	ec453503          	ld	a0,-316(a0) # 19fe8 <_ZSt4cout@GLIBCXX_3.4>
   1312c:	c35fd0ef          	jal	10d60 <_ZSt16__ostream_insertIcSt11char_traitsIcEERSt13basic_ostreamIT_T0_ES6_PKS3_l@plt>
   13130:	00004597          	auipc	a1,0x4
   13134:	ed058593          	addi	a1,a1,-304 # 17000 <_IO_stdin_used+0x160>
   13138:	00600613          	li	a2,6
   1313c:	00050413          	mv	s0,a0
   13140:	c21fd0ef          	jal	10d60 <_ZSt16__ostream_insertIcSt11char_traitsIcEERSt13basic_ostreamIT_T0_ES6_PKS3_l@plt>
   13144:	64000793          	li	a5,1600
   13148:	02f907b3          	mul	a5,s2,a5
   1314c:	97b42737          	lui	a4,0x97b42
   13150:	5ed70713          	addi	a4,a4,1517 # ffffffff97b425ed <__global_pointer$+0xffffffff97b27d5d>
   13154:	097b46b7          	lui	a3,0x97b4
   13158:	25f68693          	addi	a3,a3,607 # 97b425f <__global_pointer$+0x97999cf>
   1315c:	02071713          	slli	a4,a4,0x20
   13160:	00d70733          	add	a4,a4,a3
   13164:	00004697          	auipc	a3,0x4
   13168:	dac6a707          	flw	fa4,-596(a3) # 16f10 <_IO_stdin_used+0x70>
   1316c:	00004697          	auipc	a3,0x4
   13170:	da86a787          	flw	fa5,-600(a3) # 16f14 <_IO_stdin_used+0x74>
   13174:	00043683          	ld	a3,0(s0)
   13178:	02e7b7b3          	mulhu	a5,a5,a4
   1317c:	00100613          	li	a2,1
   13180:	fe86b703          	ld	a4,-24(a3)
   13184:	00040513          	mv	a0,s0
   13188:	00e40733          	add	a4,s0,a4
   1318c:	00c73423          	sd	a2,8(a4)
   13190:	fe86b703          	ld	a4,-24(a3)
   13194:	0047d793          	srli	a5,a5,0x4
   13198:	409787b3          	sub	a5,a5,s1
   1319c:	d037f553          	fcvt.s.lu	fa0,a5
   131a0:	00e40433          	add	s0,s0,a4
   131a4:	01842783          	lw	a5,24(s0)
   131a8:	18e57553          	fdiv.s	fa0,fa0,fa4
   131ac:	efb7f793          	andi	a5,a5,-261
   131b0:	0047e793          	ori	a5,a5,4
   131b4:	00f42c23          	sw	a5,24(s0)
   131b8:	18f57553          	fdiv.s	fa0,fa0,fa5
   131bc:	42050553          	fcvt.d.s	fa0,fa0
   131c0:	c01fd0ef          	jal	10dc0 <_ZNSo9_M_insertIdEERSoT_@plt>
   131c4:	00700613          	li	a2,7
   131c8:	00004597          	auipc	a1,0x4
   131cc:	e4058593          	addi	a1,a1,-448 # 17008 <_IO_stdin_used+0x168>
   131d0:	00050493          	mv	s1,a0
   131d4:	b8dfd0ef          	jal	10d60 <_ZSt16__ostream_insertIcSt11char_traitsIcEERSt13basic_ostreamIT_T0_ES6_PKS3_l@plt>
   131d8:	0004b783          	ld	a5,0(s1)
   131dc:	fe87b783          	ld	a5,-24(a5)
   131e0:	00f487b3          	add	a5,s1,a5
   131e4:	0f07b403          	ld	s0,240(a5)
   131e8:	06040663          	beqz	s0,13254 <_Z19benchmark_ntt_unaryIN6nncase3ntt3ops3absEfLm4EEvNSt7__cxx1112basic_stringIcSt11char_traitsIcESaIcEEET0_SA_+0x3bc>
   131ec:	03844783          	lbu	a5,56(s0)
   131f0:	02078a63          	beqz	a5,13224 <_Z19benchmark_ntt_unaryIN6nncase3ntt3ops3absEfLm4EEvNSt7__cxx1112basic_stringIcSt11char_traitsIcESaIcEEET0_SA_+0x38c>
   131f4:	04344583          	lbu	a1,67(s0)
   131f8:	00048513          	mv	a0,s1
   131fc:	ad5fd0ef          	jal	10cd0 <_ZNSo3putEc@plt>
   13200:	000042b7          	lui	t0,0x4
   13204:	36028293          	addi	t0,t0,864 # 4360 <__abi_tag-0xbf34>
   13208:	00510133          	add	sp,sp,t0
   1320c:	7e813083          	ld	ra,2024(sp)
   13210:	7e013403          	ld	s0,2016(sp)
   13214:	7d813483          	ld	s1,2008(sp)
   13218:	7d013903          	ld	s2,2000(sp)
   1321c:	7f010113          	addi	sp,sp,2032
   13220:	ae1fd06f          	j	10d00 <_ZNSo5flushEv@plt>
   13224:	00040513          	mv	a0,s0
   13228:	b49fd0ef          	jal	10d70 <_ZNKSt5ctypeIcE13_M_widen_initEv@plt>
   1322c:	00043783          	ld	a5,0(s0)
   13230:	ffffe717          	auipc	a4,0xffffe
   13234:	0fc70713          	addi	a4,a4,252 # 1132c <_ZNKSt5ctypeIcE8do_widenEc>
   13238:	00a00593          	li	a1,10
   1323c:	0307b783          	ld	a5,48(a5)
   13240:	fae78ce3          	beq	a5,a4,131f8 <_Z19benchmark_ntt_unaryIN6nncase3ntt3ops3absEfLm4EEvNSt7__cxx1112basic_stringIcSt11char_traitsIcESaIcEEET0_SA_+0x360>
   13244:	00040513          	mv	a0,s0
   13248:	000780e7          	jalr	a5
   1324c:	00050593          	mv	a1,a0
   13250:	fa9ff06f          	j	131f8 <_Z19benchmark_ntt_unaryIN6nncase3ntt3ops3absEfLm4EEvNSt7__cxx1112basic_stringIcSt11char_traitsIcESaIcEEET0_SA_+0x360>
   13254:	b2dfd0ef          	jal	10d80 <_ZSt16__throw_bad_castv@plt>

0000000000013258 <_Z19benchmark_ntt_unaryIN6nncase3ntt3ops3negEfLm4EEvNSt7__cxx1112basic_stringIcSt11char_traitsIcESaIcEEET0_SA_>:
   13258:	ffffc2b7          	lui	t0,0xffffc
   1325c:	81010113          	addi	sp,sp,-2032
   13260:	ca028293          	addi	t0,t0,-864 # ffffffffffffbca0 <__global_pointer$+0xfffffffffffe1410>
   13264:	7e813023          	sd	s0,2016(sp)
   13268:	7c913c23          	sd	s1,2008(sp)
   1326c:	7d213823          	sd	s2,2000(sp)
   13270:	7e113423          	sd	ra,2024(sp)
   13274:	000027b7          	lui	a5,0x2
   13278:	00510133          	add	sp,sp,t0
   1327c:	01010493          	addi	s1,sp,16
   13280:	58078793          	addi	a5,a5,1408 # 2580 <__abi_tag-0xdd14>
   13284:	00050413          	mv	s0,a0
   13288:	00f48933          	add	s2,s1,a5
   1328c:	00048513          	mv	a0,s1
   13290:	00b12627          	fsw	fa1,12(sp)
   13294:	00a12427          	fsw	fa0,8(sp)
   13298:	01048493          	addi	s1,s1,16
   1329c:	c98fe0ef          	jal	11734 <_ZN6nncase7NttTest11init_tensorIfNS_3ntt12basic_vectorIfJLm4EEEEEEvRT0_T_S7_>
   132a0:	00812507          	flw	fa0,8(sp)
   132a4:	00c12587          	flw	fa1,12(sp)
   132a8:	ff2492e3          	bne	s1,s2,1328c <_Z19benchmark_ntt_unaryIN6nncase3ntt3ops3negEfLm4EEvNSt7__cxx1112basic_stringIcSt11char_traitsIcESaIcEEET0_SA_+0x34>
   132ac:	00002337          	lui	t1,0x2
   132b0:	5a030793          	addi	a5,t1,1440 # 25a0 <__abi_tag-0xdcf4>
   132b4:	01010813          	addi	a6,sp,16
   132b8:	00278533          	add	a0,a5,sp
   132bc:	5f030313          	addi	t1,t1,1520
   132c0:	12c00e13          	li	t3,300
   132c4:	cd027057          	vsetivli	zero,4,e32,m1,ta,ma
   132c8:	07000613          	li	a2,112
   132cc:	03000593          	li	a1,48
   132d0:	00b807b3          	add	a5,a6,a1
   132d4:	fd078713          	addi	a4,a5,-48
   132d8:	02876407          	vl1re32.v	v8,(a4)
   132dc:	fe078713          	addi	a4,a5,-32
   132e0:	02876387          	vl1re32.v	v7,(a4)
   132e4:	ff078693          	addi	a3,a5,-16
   132e8:	00c80733          	add	a4,a6,a2
   132ec:	0286e307          	vl1re32.v	v6,(a3)
   132f0:	fc070693          	addi	a3,a4,-64
   132f4:	0286e287          	vl1re32.v	v5,(a3)
   132f8:	fd070693          	addi	a3,a4,-48
   132fc:	0286e207          	vl1re32.v	v4,(a3)
   13300:	fe070893          	addi	a7,a4,-32
   13304:	ff070693          	addi	a3,a4,-16
   13308:	0288e187          	vl1re32.v	v3,(a7)
   1330c:	0286e107          	vl1re32.v	v2,(a3)
   13310:	04078713          	addi	a4,a5,64
   13314:	26841457          	vfneg.v	v8,v8
   13318:	02876087          	vl1re32.v	v1,(a4)
   1331c:	00b507b3          	add	a5,a0,a1
   13320:	267393d7          	vfneg.v	v7,v7
   13324:	fd078713          	addi	a4,a5,-48
   13328:	26631357          	vfneg.v	v6,v6
   1332c:	02870427          	vs1r.v	v8,(a4)
   13330:	265292d7          	vfneg.v	v5,v5
   13334:	fe078713          	addi	a4,a5,-32
   13338:	028703a7          	vs1r.v	v7,(a4)
   1333c:	ff078693          	addi	a3,a5,-16
   13340:	00c50733          	add	a4,a0,a2
   13344:	26421257          	vfneg.v	v4,v4
   13348:	02868327          	vs1r.v	v6,(a3)
   1334c:	263191d7          	vfneg.v	v3,v3
   13350:	fc070693          	addi	a3,a4,-64
   13354:	028682a7          	vs1r.v	v5,(a3)
   13358:	26211157          	vfneg.v	v2,v2
   1335c:	fd070693          	addi	a3,a4,-48
   13360:	02868227          	vs1r.v	v4,(a3)
   13364:	261090d7          	vfneg.v	v1,v1
   13368:	fe070693          	addi	a3,a4,-32
   1336c:	028681a7          	vs1r.v	v3,(a3)
   13370:	ff070713          	addi	a4,a4,-16
   13374:	02870127          	vs1r.v	v2,(a4)
   13378:	04078793          	addi	a5,a5,64
   1337c:	028780a7          	vs1r.v	v1,(a5)
   13380:	08060613          	addi	a2,a2,128
   13384:	08058593          	addi	a1,a1,128
   13388:	f46614e3          	bne	a2,t1,132d0 <_Z19benchmark_ntt_unaryIN6nncase3ntt3ops3negEfLm4EEvNSt7__cxx1112basic_stringIcSt11char_traitsIcESaIcEEET0_SA_+0x78>
   1338c:	fffe0e13          	addi	t3,t3,-1
   13390:	f20e1ce3          	bnez	t3,132c8 <_Z19benchmark_ntt_unaryIN6nncase3ntt3ops3negEfLm4EEvNSt7__cxx1112basic_stringIcSt11char_traitsIcESaIcEEET0_SA_+0x70>
   13394:	c01024f3          	rdtime	s1
   13398:	64000793          	li	a5,1600
   1339c:	02f484b3          	mul	s1,s1,a5
   133a0:	97b427b7          	lui	a5,0x97b42
   133a4:	5ed78793          	addi	a5,a5,1517 # ffffffff97b425ed <__global_pointer$+0xffffffff97b27d5d>
   133a8:	097b4737          	lui	a4,0x97b4
   133ac:	02079793          	slli	a5,a5,0x20
   133b0:	25f70713          	addi	a4,a4,607 # 97b425f <__global_pointer$+0x97999cf>
   133b4:	00e787b3          	add	a5,a5,a4
   133b8:	00002337          	lui	t1,0x2
   133bc:	01010813          	addi	a6,sp,16
   133c0:	12c00e13          	li	t3,300
   133c4:	02f4b4b3          	mulhu	s1,s1,a5
   133c8:	5a030793          	addi	a5,t1,1440 # 25a0 <__abi_tag-0xdcf4>
   133cc:	00278533          	add	a0,a5,sp
   133d0:	5f030313          	addi	t1,t1,1520
   133d4:	cd027057          	vsetivli	zero,4,e32,m1,ta,ma
   133d8:	0044d493          	srli	s1,s1,0x4
   133dc:	07000613          	li	a2,112
   133e0:	03000593          	li	a1,48
   133e4:	00b807b3          	add	a5,a6,a1
   133e8:	fd078713          	addi	a4,a5,-48
   133ec:	02876407          	vl1re32.v	v8,(a4)
   133f0:	fe078713          	addi	a4,a5,-32
   133f4:	02876387          	vl1re32.v	v7,(a4)
   133f8:	ff078693          	addi	a3,a5,-16
   133fc:	00c80733          	add	a4,a6,a2
   13400:	0286e307          	vl1re32.v	v6,(a3)
   13404:	fc070693          	addi	a3,a4,-64
   13408:	0286e287          	vl1re32.v	v5,(a3)
   1340c:	fd070693          	addi	a3,a4,-48
   13410:	0286e207          	vl1re32.v	v4,(a3)
   13414:	fe070893          	addi	a7,a4,-32
   13418:	ff070693          	addi	a3,a4,-16
   1341c:	0288e187          	vl1re32.v	v3,(a7)
   13420:	0286e107          	vl1re32.v	v2,(a3)
   13424:	04078713          	addi	a4,a5,64
   13428:	26841457          	vfneg.v	v8,v8
   1342c:	02876087          	vl1re32.v	v1,(a4)
   13430:	00b507b3          	add	a5,a0,a1
   13434:	267393d7          	vfneg.v	v7,v7
   13438:	fd078713          	addi	a4,a5,-48
   1343c:	26631357          	vfneg.v	v6,v6
   13440:	02870427          	vs1r.v	v8,(a4)
   13444:	265292d7          	vfneg.v	v5,v5
   13448:	fe078713          	addi	a4,a5,-32
   1344c:	028703a7          	vs1r.v	v7,(a4)
   13450:	ff078693          	addi	a3,a5,-16
   13454:	00c50733          	add	a4,a0,a2
   13458:	26421257          	vfneg.v	v4,v4
   1345c:	02868327          	vs1r.v	v6,(a3)
   13460:	263191d7          	vfneg.v	v3,v3
   13464:	fc070693          	addi	a3,a4,-64
   13468:	028682a7          	vs1r.v	v5,(a3)
   1346c:	26211157          	vfneg.v	v2,v2
   13470:	fd070693          	addi	a3,a4,-48
   13474:	02868227          	vs1r.v	v4,(a3)
   13478:	261090d7          	vfneg.v	v1,v1
   1347c:	fe070693          	addi	a3,a4,-32
   13480:	028681a7          	vs1r.v	v3,(a3)
   13484:	ff070713          	addi	a4,a4,-16
   13488:	02870127          	vs1r.v	v2,(a4)
   1348c:	04078793          	addi	a5,a5,64
   13490:	028780a7          	vs1r.v	v1,(a5)
   13494:	08060613          	addi	a2,a2,128
   13498:	08058593          	addi	a1,a1,128
   1349c:	f46614e3          	bne	a2,t1,133e4 <_Z19benchmark_ntt_unaryIN6nncase3ntt3ops3negEfLm4EEvNSt7__cxx1112basic_stringIcSt11char_traitsIcESaIcEEET0_SA_+0x18c>
   134a0:	fffe0e13          	addi	t3,t3,-1
   134a4:	f20e1ce3          	bnez	t3,133dc <_Z19benchmark_ntt_unaryIN6nncase3ntt3ops3negEfLm4EEvNSt7__cxx1112basic_stringIcSt11char_traitsIcESaIcEEET0_SA_+0x184>
   134a8:	c0102973          	rdtime	s2
   134ac:	01300613          	li	a2,19
   134b0:	00004597          	auipc	a1,0x4
   134b4:	b3058593          	addi	a1,a1,-1232 # 16fe0 <_IO_stdin_used+0x140>
   134b8:	00007517          	auipc	a0,0x7
   134bc:	b3053503          	ld	a0,-1232(a0) # 19fe8 <_ZSt4cout@GLIBCXX_3.4>
   134c0:	8a1fd0ef          	jal	10d60 <_ZSt16__ostream_insertIcSt11char_traitsIcEERSt13basic_ostreamIT_T0_ES6_PKS3_l@plt>
   134c4:	00100613          	li	a2,1
   134c8:	00004597          	auipc	a1,0x4
   134cc:	b3058593          	addi	a1,a1,-1232 # 16ff8 <_IO_stdin_used+0x158>
   134d0:	00007517          	auipc	a0,0x7
   134d4:	b1853503          	ld	a0,-1256(a0) # 19fe8 <_ZSt4cout@GLIBCXX_3.4>
   134d8:	889fd0ef          	jal	10d60 <_ZSt16__ostream_insertIcSt11char_traitsIcEERSt13basic_ostreamIT_T0_ES6_PKS3_l@plt>
   134dc:	00843603          	ld	a2,8(s0)
   134e0:	00043583          	ld	a1,0(s0)
   134e4:	00007517          	auipc	a0,0x7
   134e8:	b0453503          	ld	a0,-1276(a0) # 19fe8 <_ZSt4cout@GLIBCXX_3.4>
   134ec:	875fd0ef          	jal	10d60 <_ZSt16__ostream_insertIcSt11char_traitsIcEERSt13basic_ostreamIT_T0_ES6_PKS3_l@plt>
   134f0:	00004597          	auipc	a1,0x4
   134f4:	b1058593          	addi	a1,a1,-1264 # 17000 <_IO_stdin_used+0x160>
   134f8:	00600613          	li	a2,6
   134fc:	00050413          	mv	s0,a0
   13500:	861fd0ef          	jal	10d60 <_ZSt16__ostream_insertIcSt11char_traitsIcEERSt13basic_ostreamIT_T0_ES6_PKS3_l@plt>
   13504:	64000793          	li	a5,1600
   13508:	02f907b3          	mul	a5,s2,a5
   1350c:	97b42737          	lui	a4,0x97b42
   13510:	5ed70713          	addi	a4,a4,1517 # ffffffff97b425ed <__global_pointer$+0xffffffff97b27d5d>
   13514:	097b46b7          	lui	a3,0x97b4
   13518:	25f68693          	addi	a3,a3,607 # 97b425f <__global_pointer$+0x97999cf>
   1351c:	02071713          	slli	a4,a4,0x20
   13520:	00d70733          	add	a4,a4,a3
   13524:	00004697          	auipc	a3,0x4
   13528:	9ec6a707          	flw	fa4,-1556(a3) # 16f10 <_IO_stdin_used+0x70>
   1352c:	00004697          	auipc	a3,0x4
   13530:	9e86a787          	flw	fa5,-1560(a3) # 16f14 <_IO_stdin_used+0x74>
   13534:	00043683          	ld	a3,0(s0)
   13538:	02e7b7b3          	mulhu	a5,a5,a4
   1353c:	00100613          	li	a2,1
   13540:	fe86b703          	ld	a4,-24(a3)
   13544:	00040513          	mv	a0,s0
   13548:	00e40733          	add	a4,s0,a4
   1354c:	00c73423          	sd	a2,8(a4)
   13550:	fe86b703          	ld	a4,-24(a3)
   13554:	0047d793          	srli	a5,a5,0x4
   13558:	409787b3          	sub	a5,a5,s1
   1355c:	d037f553          	fcvt.s.lu	fa0,a5
   13560:	00e40433          	add	s0,s0,a4
   13564:	01842783          	lw	a5,24(s0)
   13568:	18e57553          	fdiv.s	fa0,fa0,fa4
   1356c:	efb7f793          	andi	a5,a5,-261
   13570:	0047e793          	ori	a5,a5,4
   13574:	00f42c23          	sw	a5,24(s0)
   13578:	18f57553          	fdiv.s	fa0,fa0,fa5
   1357c:	42050553          	fcvt.d.s	fa0,fa0
   13580:	841fd0ef          	jal	10dc0 <_ZNSo9_M_insertIdEERSoT_@plt>
   13584:	00700613          	li	a2,7
   13588:	00004597          	auipc	a1,0x4
   1358c:	a8058593          	addi	a1,a1,-1408 # 17008 <_IO_stdin_used+0x168>
   13590:	00050493          	mv	s1,a0
   13594:	fccfd0ef          	jal	10d60 <_ZSt16__ostream_insertIcSt11char_traitsIcEERSt13basic_ostreamIT_T0_ES6_PKS3_l@plt>
   13598:	0004b783          	ld	a5,0(s1)
   1359c:	fe87b783          	ld	a5,-24(a5)
   135a0:	00f487b3          	add	a5,s1,a5
   135a4:	0f07b403          	ld	s0,240(a5)
   135a8:	06040663          	beqz	s0,13614 <_Z19benchmark_ntt_unaryIN6nncase3ntt3ops3negEfLm4EEvNSt7__cxx1112basic_stringIcSt11char_traitsIcESaIcEEET0_SA_+0x3bc>
   135ac:	03844783          	lbu	a5,56(s0)
   135b0:	02078a63          	beqz	a5,135e4 <_Z19benchmark_ntt_unaryIN6nncase3ntt3ops3negEfLm4EEvNSt7__cxx1112basic_stringIcSt11char_traitsIcESaIcEEET0_SA_+0x38c>
   135b4:	04344583          	lbu	a1,67(s0)
   135b8:	00048513          	mv	a0,s1
   135bc:	f14fd0ef          	jal	10cd0 <_ZNSo3putEc@plt>
   135c0:	000042b7          	lui	t0,0x4
   135c4:	36028293          	addi	t0,t0,864 # 4360 <__abi_tag-0xbf34>
   135c8:	00510133          	add	sp,sp,t0
   135cc:	7e813083          	ld	ra,2024(sp)
   135d0:	7e013403          	ld	s0,2016(sp)
   135d4:	7d813483          	ld	s1,2008(sp)
   135d8:	7d013903          	ld	s2,2000(sp)
   135dc:	7f010113          	addi	sp,sp,2032
   135e0:	f20fd06f          	j	10d00 <_ZNSo5flushEv@plt>
   135e4:	00040513          	mv	a0,s0
   135e8:	f88fd0ef          	jal	10d70 <_ZNKSt5ctypeIcE13_M_widen_initEv@plt>
   135ec:	00043783          	ld	a5,0(s0)
   135f0:	ffffe717          	auipc	a4,0xffffe
   135f4:	d3c70713          	addi	a4,a4,-708 # 1132c <_ZNKSt5ctypeIcE8do_widenEc>
   135f8:	00a00593          	li	a1,10
   135fc:	0307b783          	ld	a5,48(a5)
   13600:	fae78ce3          	beq	a5,a4,135b8 <_Z19benchmark_ntt_unaryIN6nncase3ntt3ops3negEfLm4EEvNSt7__cxx1112basic_stringIcSt11char_traitsIcESaIcEEET0_SA_+0x360>
   13604:	00040513          	mv	a0,s0
   13608:	000780e7          	jalr	a5
   1360c:	00050593          	mv	a1,a0
   13610:	fa9ff06f          	j	135b8 <_Z19benchmark_ntt_unaryIN6nncase3ntt3ops3negEfLm4EEvNSt7__cxx1112basic_stringIcSt11char_traitsIcESaIcEEET0_SA_+0x360>
   13614:	f6cfd0ef          	jal	10d80 <_ZSt16__throw_bad_castv@plt>

0000000000013618 <_Z19benchmark_ntt_unaryIN6nncase3ntt3ops6squareEfLm4EEvNSt7__cxx1112basic_stringIcSt11char_traitsIcESaIcEEET0_SA_>:
   13618:	ffffc2b7          	lui	t0,0xffffc
   1361c:	81010113          	addi	sp,sp,-2032
   13620:	ca028293          	addi	t0,t0,-864 # ffffffffffffbca0 <__global_pointer$+0xfffffffffffe1410>
   13624:	7e813023          	sd	s0,2016(sp)
   13628:	7c913c23          	sd	s1,2008(sp)
   1362c:	7d213823          	sd	s2,2000(sp)
   13630:	7e113423          	sd	ra,2024(sp)
   13634:	000027b7          	lui	a5,0x2
   13638:	00510133          	add	sp,sp,t0
   1363c:	01010493          	addi	s1,sp,16
   13640:	58078793          	addi	a5,a5,1408 # 2580 <__abi_tag-0xdd14>
   13644:	00050413          	mv	s0,a0
   13648:	00f48933          	add	s2,s1,a5
   1364c:	00048513          	mv	a0,s1
   13650:	00b12627          	fsw	fa1,12(sp)
   13654:	00a12427          	fsw	fa0,8(sp)
   13658:	01048493          	addi	s1,s1,16
   1365c:	8d8fe0ef          	jal	11734 <_ZN6nncase7NttTest11init_tensorIfNS_3ntt12basic_vectorIfJLm4EEEEEEvRT0_T_S7_>
   13660:	00812507          	flw	fa0,8(sp)
   13664:	00c12587          	flw	fa1,12(sp)
   13668:	ff2492e3          	bne	s1,s2,1364c <_Z19benchmark_ntt_unaryIN6nncase3ntt3ops6squareEfLm4EEvNSt7__cxx1112basic_stringIcSt11char_traitsIcESaIcEEET0_SA_+0x34>
   1366c:	000028b7          	lui	a7,0x2
   13670:	5a088793          	addi	a5,a7,1440 # 25a0 <__abi_tag-0xdcf4>
   13674:	01010513          	addi	a0,sp,16
   13678:	002785b3          	add	a1,a5,sp
   1367c:	5f088893          	addi	a7,a7,1520
   13680:	12c00313          	li	t1,300
   13684:	cd027057          	vsetivli	zero,4,e32,m1,ta,ma
   13688:	07000693          	li	a3,112
   1368c:	03000613          	li	a2,48
   13690:	00c507b3          	add	a5,a0,a2
   13694:	fd078713          	addi	a4,a5,-48
   13698:	02876107          	vl1re32.v	v2,(a4)
   1369c:	fe078713          	addi	a4,a5,-32
   136a0:	02876087          	vl1re32.v	v1,(a4)
   136a4:	ff078813          	addi	a6,a5,-16
   136a8:	00d50733          	add	a4,a0,a3
   136ac:	02886307          	vl1re32.v	v6,(a6)
   136b0:	fc070813          	addi	a6,a4,-64
   136b4:	02886287          	vl1re32.v	v5,(a6)
   136b8:	fd070813          	addi	a6,a4,-48
   136bc:	02886207          	vl1re32.v	v4,(a6)
   136c0:	fe070813          	addi	a6,a4,-32
   136c4:	02886187          	vl1re32.v	v3,(a6)
   136c8:	ff070713          	addi	a4,a4,-16
   136cc:	92211457          	vfmul.vv	v8,v2,v2
   136d0:	04078793          	addi	a5,a5,64
   136d4:	02876107          	vl1re32.v	v2,(a4)
   136d8:	921093d7          	vfmul.vv	v7,v1,v1
   136dc:	0287e087          	vl1re32.v	v1,(a5)
   136e0:	92631357          	vfmul.vv	v6,v6,v6
   136e4:	925292d7          	vfmul.vv	v5,v5,v5
   136e8:	00c587b3          	add	a5,a1,a2
   136ec:	92421257          	vfmul.vv	v4,v4,v4
   136f0:	fd078713          	addi	a4,a5,-48
   136f4:	923191d7          	vfmul.vv	v3,v3,v3
   136f8:	02870427          	vs1r.v	v8,(a4)
   136fc:	92211157          	vfmul.vv	v2,v2,v2
   13700:	fe078713          	addi	a4,a5,-32
   13704:	028703a7          	vs1r.v	v7,(a4)
   13708:	ff078813          	addi	a6,a5,-16
   1370c:	00d58733          	add	a4,a1,a3
   13710:	921090d7          	vfmul.vv	v1,v1,v1
   13714:	02880327          	vs1r.v	v6,(a6)
   13718:	fc070813          	addi	a6,a4,-64
   1371c:	028802a7          	vs1r.v	v5,(a6)
   13720:	fd070813          	addi	a6,a4,-48
   13724:	02880227          	vs1r.v	v4,(a6)
   13728:	fe070813          	addi	a6,a4,-32
   1372c:	028801a7          	vs1r.v	v3,(a6)
   13730:	ff070713          	addi	a4,a4,-16
   13734:	02870127          	vs1r.v	v2,(a4)
   13738:	04078793          	addi	a5,a5,64
   1373c:	028780a7          	vs1r.v	v1,(a5)
   13740:	08068693          	addi	a3,a3,128
   13744:	08060613          	addi	a2,a2,128
   13748:	f51694e3          	bne	a3,a7,13690 <_Z19benchmark_ntt_unaryIN6nncase3ntt3ops6squareEfLm4EEvNSt7__cxx1112basic_stringIcSt11char_traitsIcESaIcEEET0_SA_+0x78>
   1374c:	fff30313          	addi	t1,t1,-1
   13750:	f2031ce3          	bnez	t1,13688 <_Z19benchmark_ntt_unaryIN6nncase3ntt3ops6squareEfLm4EEvNSt7__cxx1112basic_stringIcSt11char_traitsIcESaIcEEET0_SA_+0x70>
   13754:	c01024f3          	rdtime	s1
   13758:	64000793          	li	a5,1600
   1375c:	02f484b3          	mul	s1,s1,a5
   13760:	97b427b7          	lui	a5,0x97b42
   13764:	5ed78793          	addi	a5,a5,1517 # ffffffff97b425ed <__global_pointer$+0xffffffff97b27d5d>
   13768:	097b4737          	lui	a4,0x97b4
   1376c:	02079793          	slli	a5,a5,0x20
   13770:	25f70713          	addi	a4,a4,607 # 97b425f <__global_pointer$+0x97999cf>
   13774:	00e787b3          	add	a5,a5,a4
   13778:	000028b7          	lui	a7,0x2
   1377c:	01010513          	addi	a0,sp,16
   13780:	12c00313          	li	t1,300
   13784:	02f4b4b3          	mulhu	s1,s1,a5
   13788:	5a088793          	addi	a5,a7,1440 # 25a0 <__abi_tag-0xdcf4>
   1378c:	002785b3          	add	a1,a5,sp
   13790:	5f088893          	addi	a7,a7,1520
   13794:	cd027057          	vsetivli	zero,4,e32,m1,ta,ma
   13798:	0044d493          	srli	s1,s1,0x4
   1379c:	07000693          	li	a3,112
   137a0:	03000613          	li	a2,48
   137a4:	00c507b3          	add	a5,a0,a2
   137a8:	fd078713          	addi	a4,a5,-48
   137ac:	02876107          	vl1re32.v	v2,(a4)
   137b0:	fe078713          	addi	a4,a5,-32
   137b4:	02876087          	vl1re32.v	v1,(a4)
   137b8:	ff078813          	addi	a6,a5,-16
   137bc:	00d50733          	add	a4,a0,a3
   137c0:	02886307          	vl1re32.v	v6,(a6)
   137c4:	fc070813          	addi	a6,a4,-64
   137c8:	02886287          	vl1re32.v	v5,(a6)
   137cc:	fd070813          	addi	a6,a4,-48
   137d0:	02886207          	vl1re32.v	v4,(a6)
   137d4:	fe070813          	addi	a6,a4,-32
   137d8:	02886187          	vl1re32.v	v3,(a6)
   137dc:	ff070713          	addi	a4,a4,-16
   137e0:	92211457          	vfmul.vv	v8,v2,v2
   137e4:	04078793          	addi	a5,a5,64
   137e8:	02876107          	vl1re32.v	v2,(a4)
   137ec:	921093d7          	vfmul.vv	v7,v1,v1
   137f0:	0287e087          	vl1re32.v	v1,(a5)
   137f4:	92631357          	vfmul.vv	v6,v6,v6
   137f8:	925292d7          	vfmul.vv	v5,v5,v5
   137fc:	00c587b3          	add	a5,a1,a2
   13800:	92421257          	vfmul.vv	v4,v4,v4
   13804:	fd078713          	addi	a4,a5,-48
   13808:	923191d7          	vfmul.vv	v3,v3,v3
   1380c:	02870427          	vs1r.v	v8,(a4)
   13810:	92211157          	vfmul.vv	v2,v2,v2
   13814:	fe078713          	addi	a4,a5,-32
   13818:	028703a7          	vs1r.v	v7,(a4)
   1381c:	ff078813          	addi	a6,a5,-16
   13820:	00d58733          	add	a4,a1,a3
   13824:	921090d7          	vfmul.vv	v1,v1,v1
   13828:	02880327          	vs1r.v	v6,(a6)
   1382c:	fc070813          	addi	a6,a4,-64
   13830:	028802a7          	vs1r.v	v5,(a6)
   13834:	fd070813          	addi	a6,a4,-48
   13838:	02880227          	vs1r.v	v4,(a6)
   1383c:	fe070813          	addi	a6,a4,-32
   13840:	028801a7          	vs1r.v	v3,(a6)
   13844:	ff070713          	addi	a4,a4,-16
   13848:	02870127          	vs1r.v	v2,(a4)
   1384c:	04078793          	addi	a5,a5,64
   13850:	028780a7          	vs1r.v	v1,(a5)
   13854:	08068693          	addi	a3,a3,128
   13858:	08060613          	addi	a2,a2,128
   1385c:	f51694e3          	bne	a3,a7,137a4 <_Z19benchmark_ntt_unaryIN6nncase3ntt3ops6squareEfLm4EEvNSt7__cxx1112basic_stringIcSt11char_traitsIcESaIcEEET0_SA_+0x18c>
   13860:	fff30313          	addi	t1,t1,-1
   13864:	f2031ce3          	bnez	t1,1379c <_Z19benchmark_ntt_unaryIN6nncase3ntt3ops6squareEfLm4EEvNSt7__cxx1112basic_stringIcSt11char_traitsIcESaIcEEET0_SA_+0x184>
   13868:	c0102973          	rdtime	s2
   1386c:	01300613          	li	a2,19
   13870:	00003597          	auipc	a1,0x3
   13874:	77058593          	addi	a1,a1,1904 # 16fe0 <_IO_stdin_used+0x140>
   13878:	00006517          	auipc	a0,0x6
   1387c:	77053503          	ld	a0,1904(a0) # 19fe8 <_ZSt4cout@GLIBCXX_3.4>
   13880:	ce0fd0ef          	jal	10d60 <_ZSt16__ostream_insertIcSt11char_traitsIcEERSt13basic_ostreamIT_T0_ES6_PKS3_l@plt>
   13884:	00100613          	li	a2,1
   13888:	00003597          	auipc	a1,0x3
   1388c:	77058593          	addi	a1,a1,1904 # 16ff8 <_IO_stdin_used+0x158>
   13890:	00006517          	auipc	a0,0x6
   13894:	75853503          	ld	a0,1880(a0) # 19fe8 <_ZSt4cout@GLIBCXX_3.4>
   13898:	cc8fd0ef          	jal	10d60 <_ZSt16__ostream_insertIcSt11char_traitsIcEERSt13basic_ostreamIT_T0_ES6_PKS3_l@plt>
   1389c:	00843603          	ld	a2,8(s0)
   138a0:	00043583          	ld	a1,0(s0)
   138a4:	00006517          	auipc	a0,0x6
   138a8:	74453503          	ld	a0,1860(a0) # 19fe8 <_ZSt4cout@GLIBCXX_3.4>
   138ac:	cb4fd0ef          	jal	10d60 <_ZSt16__ostream_insertIcSt11char_traitsIcEERSt13basic_ostreamIT_T0_ES6_PKS3_l@plt>
   138b0:	00003597          	auipc	a1,0x3
   138b4:	75058593          	addi	a1,a1,1872 # 17000 <_IO_stdin_used+0x160>
   138b8:	00600613          	li	a2,6
   138bc:	00050413          	mv	s0,a0
   138c0:	ca0fd0ef          	jal	10d60 <_ZSt16__ostream_insertIcSt11char_traitsIcEERSt13basic_ostreamIT_T0_ES6_PKS3_l@plt>
   138c4:	64000793          	li	a5,1600
   138c8:	02f907b3          	mul	a5,s2,a5
   138cc:	97b42737          	lui	a4,0x97b42
   138d0:	5ed70713          	addi	a4,a4,1517 # ffffffff97b425ed <__global_pointer$+0xffffffff97b27d5d>
   138d4:	097b46b7          	lui	a3,0x97b4
   138d8:	25f68693          	addi	a3,a3,607 # 97b425f <__global_pointer$+0x97999cf>
   138dc:	02071713          	slli	a4,a4,0x20
   138e0:	00d70733          	add	a4,a4,a3
   138e4:	00003697          	auipc	a3,0x3
   138e8:	62c6a707          	flw	fa4,1580(a3) # 16f10 <_IO_stdin_used+0x70>
   138ec:	00003697          	auipc	a3,0x3
   138f0:	6286a787          	flw	fa5,1576(a3) # 16f14 <_IO_stdin_used+0x74>
   138f4:	00043683          	ld	a3,0(s0)
   138f8:	02e7b7b3          	mulhu	a5,a5,a4
   138fc:	00100613          	li	a2,1
   13900:	fe86b703          	ld	a4,-24(a3)
   13904:	00040513          	mv	a0,s0
   13908:	00e40733          	add	a4,s0,a4
   1390c:	00c73423          	sd	a2,8(a4)
   13910:	fe86b703          	ld	a4,-24(a3)
   13914:	0047d793          	srli	a5,a5,0x4
   13918:	409787b3          	sub	a5,a5,s1
   1391c:	d037f553          	fcvt.s.lu	fa0,a5
   13920:	00e40433          	add	s0,s0,a4
   13924:	01842783          	lw	a5,24(s0)
   13928:	18e57553          	fdiv.s	fa0,fa0,fa4
   1392c:	efb7f793          	andi	a5,a5,-261
   13930:	0047e793          	ori	a5,a5,4
   13934:	00f42c23          	sw	a5,24(s0)
   13938:	18f57553          	fdiv.s	fa0,fa0,fa5
   1393c:	42050553          	fcvt.d.s	fa0,fa0
   13940:	c80fd0ef          	jal	10dc0 <_ZNSo9_M_insertIdEERSoT_@plt>
   13944:	00700613          	li	a2,7
   13948:	00003597          	auipc	a1,0x3
   1394c:	6c058593          	addi	a1,a1,1728 # 17008 <_IO_stdin_used+0x168>
   13950:	00050493          	mv	s1,a0
   13954:	c0cfd0ef          	jal	10d60 <_ZSt16__ostream_insertIcSt11char_traitsIcEERSt13basic_ostreamIT_T0_ES6_PKS3_l@plt>
   13958:	0004b783          	ld	a5,0(s1)
   1395c:	fe87b783          	ld	a5,-24(a5)
   13960:	00f487b3          	add	a5,s1,a5
   13964:	0f07b403          	ld	s0,240(a5)
   13968:	06040663          	beqz	s0,139d4 <_Z19benchmark_ntt_unaryIN6nncase3ntt3ops6squareEfLm4EEvNSt7__cxx1112basic_stringIcSt11char_traitsIcESaIcEEET0_SA_+0x3bc>
   1396c:	03844783          	lbu	a5,56(s0)
   13970:	02078a63          	beqz	a5,139a4 <_Z19benchmark_ntt_unaryIN6nncase3ntt3ops6squareEfLm4EEvNSt7__cxx1112basic_stringIcSt11char_traitsIcESaIcEEET0_SA_+0x38c>
   13974:	04344583          	lbu	a1,67(s0)
   13978:	00048513          	mv	a0,s1
   1397c:	b54fd0ef          	jal	10cd0 <_ZNSo3putEc@plt>
   13980:	000042b7          	lui	t0,0x4
   13984:	36028293          	addi	t0,t0,864 # 4360 <__abi_tag-0xbf34>
   13988:	00510133          	add	sp,sp,t0
   1398c:	7e813083          	ld	ra,2024(sp)
   13990:	7e013403          	ld	s0,2016(sp)
   13994:	7d813483          	ld	s1,2008(sp)
   13998:	7d013903          	ld	s2,2000(sp)
   1399c:	7f010113          	addi	sp,sp,2032
   139a0:	b60fd06f          	j	10d00 <_ZNSo5flushEv@plt>
   139a4:	00040513          	mv	a0,s0
   139a8:	bc8fd0ef          	jal	10d70 <_ZNKSt5ctypeIcE13_M_widen_initEv@plt>
   139ac:	00043783          	ld	a5,0(s0)
   139b0:	ffffe717          	auipc	a4,0xffffe
   139b4:	97c70713          	addi	a4,a4,-1668 # 1132c <_ZNKSt5ctypeIcE8do_widenEc>
   139b8:	00a00593          	li	a1,10
   139bc:	0307b783          	ld	a5,48(a5)
   139c0:	fae78ce3          	beq	a5,a4,13978 <_Z19benchmark_ntt_unaryIN6nncase3ntt3ops6squareEfLm4EEvNSt7__cxx1112basic_stringIcSt11char_traitsIcESaIcEEET0_SA_+0x360>
   139c4:	00040513          	mv	a0,s0
   139c8:	000780e7          	jalr	a5
   139cc:	00050593          	mv	a1,a0
   139d0:	fa9ff06f          	j	13978 <_Z19benchmark_ntt_unaryIN6nncase3ntt3ops6squareEfLm4EEvNSt7__cxx1112basic_stringIcSt11char_traitsIcESaIcEEET0_SA_+0x360>
   139d4:	bacfd0ef          	jal	10d80 <_ZSt16__throw_bad_castv@plt>

00000000000139d8 <_Z19benchmark_ntt_unaryIN6nncase3ntt3ops5roundEfLm4EEvNSt7__cxx1112basic_stringIcSt11char_traitsIcESaIcEEET0_SA_>:
   139d8:	ffffc2b7          	lui	t0,0xffffc
   139dc:	81010113          	addi	sp,sp,-2032
   139e0:	ca028293          	addi	t0,t0,-864 # ffffffffffffbca0 <__global_pointer$+0xfffffffffffe1410>
   139e4:	7e813023          	sd	s0,2016(sp)
   139e8:	7c913c23          	sd	s1,2008(sp)
   139ec:	7d213823          	sd	s2,2000(sp)
   139f0:	7e113423          	sd	ra,2024(sp)
   139f4:	000027b7          	lui	a5,0x2
   139f8:	00510133          	add	sp,sp,t0
   139fc:	01010493          	addi	s1,sp,16
   13a00:	58078793          	addi	a5,a5,1408 # 2580 <__abi_tag-0xdd14>
   13a04:	00050413          	mv	s0,a0
   13a08:	00f48933          	add	s2,s1,a5
   13a0c:	00048513          	mv	a0,s1
   13a10:	00b12627          	fsw	fa1,12(sp)
   13a14:	00a12427          	fsw	fa0,8(sp)
   13a18:	01048493          	addi	s1,s1,16
   13a1c:	d19fd0ef          	jal	11734 <_ZN6nncase7NttTest11init_tensorIfNS_3ntt12basic_vectorIfJLm4EEEEEEvRT0_T_S7_>
   13a20:	00812507          	flw	fa0,8(sp)
   13a24:	00c12587          	flw	fa1,12(sp)
   13a28:	ff2492e3          	bne	s1,s2,13a0c <_Z19benchmark_ntt_unaryIN6nncase3ntt3ops5roundEfLm4EEvNSt7__cxx1112basic_stringIcSt11char_traitsIcESaIcEEET0_SA_+0x34>
   13a2c:	000028b7          	lui	a7,0x2
   13a30:	5a088793          	addi	a5,a7,1440 # 25a0 <__abi_tag-0xdcf4>
   13a34:	01010513          	addi	a0,sp,16
   13a38:	002785b3          	add	a1,a5,sp
   13a3c:	5f088893          	addi	a7,a7,1520
   13a40:	12c00313          	li	t1,300
   13a44:	cd027057          	vsetivli	zero,4,e32,m1,ta,ma
   13a48:	07000693          	li	a3,112
   13a4c:	03000613          	li	a2,48
   13a50:	00c507b3          	add	a5,a0,a2
   13a54:	fd078713          	addi	a4,a5,-48
   13a58:	02876407          	vl1re32.v	v8,(a4)
   13a5c:	fe078713          	addi	a4,a5,-32
   13a60:	02876387          	vl1re32.v	v7,(a4)
   13a64:	ff078813          	addi	a6,a5,-16
   13a68:	00d50733          	add	a4,a0,a3
   13a6c:	02886307          	vl1re32.v	v6,(a6)
   13a70:	fc070813          	addi	a6,a4,-64
   13a74:	02886287          	vl1re32.v	v5,(a6)
   13a78:	fd070813          	addi	a6,a4,-48
   13a7c:	02886207          	vl1re32.v	v4,(a6)
   13a80:	fe070813          	addi	a6,a4,-32
   13a84:	02886187          	vl1re32.v	v3,(a6)
   13a88:	ff070713          	addi	a4,a4,-16
   13a8c:	02876107          	vl1re32.v	v2,(a4)
   13a90:	04078793          	addi	a5,a5,64
   13a94:	4a809457          	vfcvt.x.f.v	v8,v8
   13a98:	0287e087          	vl1re32.v	v1,(a5)
   13a9c:	4a7093d7          	vfcvt.x.f.v	v7,v7
   13aa0:	4a609357          	vfcvt.x.f.v	v6,v6
   13aa4:	4a819457          	vfcvt.f.x.v	v8,v8
   13aa8:	4a5092d7          	vfcvt.x.f.v	v5,v5
   13aac:	00c587b3          	add	a5,a1,a2
   13ab0:	4a7193d7          	vfcvt.f.x.v	v7,v7
   13ab4:	4a409257          	vfcvt.x.f.v	v4,v4
   13ab8:	fd078713          	addi	a4,a5,-48
   13abc:	4a619357          	vfcvt.f.x.v	v6,v6
   13ac0:	4a3091d7          	vfcvt.x.f.v	v3,v3
   13ac4:	02870427          	vs1r.v	v8,(a4)
   13ac8:	4a5192d7          	vfcvt.f.x.v	v5,v5
   13acc:	fe078713          	addi	a4,a5,-32
   13ad0:	4a209157          	vfcvt.x.f.v	v2,v2
   13ad4:	028703a7          	vs1r.v	v7,(a4)
   13ad8:	ff078813          	addi	a6,a5,-16
   13adc:	00d58733          	add	a4,a1,a3
   13ae0:	4a419257          	vfcvt.f.x.v	v4,v4
   13ae4:	4a1090d7          	vfcvt.x.f.v	v1,v1
   13ae8:	02880327          	vs1r.v	v6,(a6)
   13aec:	4a3191d7          	vfcvt.f.x.v	v3,v3
   13af0:	fc070813          	addi	a6,a4,-64
   13af4:	028802a7          	vs1r.v	v5,(a6)
   13af8:	4a219157          	vfcvt.f.x.v	v2,v2
   13afc:	fd070813          	addi	a6,a4,-48
   13b00:	02880227          	vs1r.v	v4,(a6)
   13b04:	4a1190d7          	vfcvt.f.x.v	v1,v1
   13b08:	fe070813          	addi	a6,a4,-32
   13b0c:	028801a7          	vs1r.v	v3,(a6)
   13b10:	ff070713          	addi	a4,a4,-16
   13b14:	02870127          	vs1r.v	v2,(a4)
   13b18:	04078793          	addi	a5,a5,64
   13b1c:	028780a7          	vs1r.v	v1,(a5)
   13b20:	08068693          	addi	a3,a3,128
   13b24:	08060613          	addi	a2,a2,128
   13b28:	f31694e3          	bne	a3,a7,13a50 <_Z19benchmark_ntt_unaryIN6nncase3ntt3ops5roundEfLm4EEvNSt7__cxx1112basic_stringIcSt11char_traitsIcESaIcEEET0_SA_+0x78>
   13b2c:	fff30313          	addi	t1,t1,-1
   13b30:	f0031ce3          	bnez	t1,13a48 <_Z19benchmark_ntt_unaryIN6nncase3ntt3ops5roundEfLm4EEvNSt7__cxx1112basic_stringIcSt11char_traitsIcESaIcEEET0_SA_+0x70>
   13b34:	c01024f3          	rdtime	s1
   13b38:	64000793          	li	a5,1600
   13b3c:	02f484b3          	mul	s1,s1,a5
   13b40:	97b427b7          	lui	a5,0x97b42
   13b44:	5ed78793          	addi	a5,a5,1517 # ffffffff97b425ed <__global_pointer$+0xffffffff97b27d5d>
   13b48:	097b4737          	lui	a4,0x97b4
   13b4c:	02079793          	slli	a5,a5,0x20
   13b50:	25f70713          	addi	a4,a4,607 # 97b425f <__global_pointer$+0x97999cf>
   13b54:	00e787b3          	add	a5,a5,a4
   13b58:	000028b7          	lui	a7,0x2
   13b5c:	01010513          	addi	a0,sp,16
   13b60:	12c00313          	li	t1,300
   13b64:	02f4b4b3          	mulhu	s1,s1,a5
   13b68:	5a088793          	addi	a5,a7,1440 # 25a0 <__abi_tag-0xdcf4>
   13b6c:	002785b3          	add	a1,a5,sp
   13b70:	5f088893          	addi	a7,a7,1520
   13b74:	cd027057          	vsetivli	zero,4,e32,m1,ta,ma
   13b78:	0044d493          	srli	s1,s1,0x4
   13b7c:	07000693          	li	a3,112
   13b80:	03000613          	li	a2,48
   13b84:	00c507b3          	add	a5,a0,a2
   13b88:	fd078713          	addi	a4,a5,-48
   13b8c:	02876407          	vl1re32.v	v8,(a4)
   13b90:	fe078713          	addi	a4,a5,-32
   13b94:	02876387          	vl1re32.v	v7,(a4)
   13b98:	ff078813          	addi	a6,a5,-16
   13b9c:	00d50733          	add	a4,a0,a3
   13ba0:	02886307          	vl1re32.v	v6,(a6)
   13ba4:	fc070813          	addi	a6,a4,-64
   13ba8:	02886287          	vl1re32.v	v5,(a6)
   13bac:	fd070813          	addi	a6,a4,-48
   13bb0:	02886207          	vl1re32.v	v4,(a6)
   13bb4:	fe070813          	addi	a6,a4,-32
   13bb8:	02886187          	vl1re32.v	v3,(a6)
   13bbc:	ff070713          	addi	a4,a4,-16
   13bc0:	02876107          	vl1re32.v	v2,(a4)
   13bc4:	04078793          	addi	a5,a5,64
   13bc8:	4a809457          	vfcvt.x.f.v	v8,v8
   13bcc:	0287e087          	vl1re32.v	v1,(a5)
   13bd0:	4a7093d7          	vfcvt.x.f.v	v7,v7
   13bd4:	4a609357          	vfcvt.x.f.v	v6,v6
   13bd8:	4a819457          	vfcvt.f.x.v	v8,v8
   13bdc:	4a5092d7          	vfcvt.x.f.v	v5,v5
   13be0:	00c587b3          	add	a5,a1,a2
   13be4:	4a7193d7          	vfcvt.f.x.v	v7,v7
   13be8:	4a409257          	vfcvt.x.f.v	v4,v4
   13bec:	fd078713          	addi	a4,a5,-48
   13bf0:	4a619357          	vfcvt.f.x.v	v6,v6
   13bf4:	4a3091d7          	vfcvt.x.f.v	v3,v3
   13bf8:	02870427          	vs1r.v	v8,(a4)
   13bfc:	4a5192d7          	vfcvt.f.x.v	v5,v5
   13c00:	fe078713          	addi	a4,a5,-32
   13c04:	4a209157          	vfcvt.x.f.v	v2,v2
   13c08:	028703a7          	vs1r.v	v7,(a4)
   13c0c:	ff078813          	addi	a6,a5,-16
   13c10:	00d58733          	add	a4,a1,a3
   13c14:	4a419257          	vfcvt.f.x.v	v4,v4
   13c18:	4a1090d7          	vfcvt.x.f.v	v1,v1
   13c1c:	02880327          	vs1r.v	v6,(a6)
   13c20:	4a3191d7          	vfcvt.f.x.v	v3,v3
   13c24:	fc070813          	addi	a6,a4,-64
   13c28:	028802a7          	vs1r.v	v5,(a6)
   13c2c:	4a219157          	vfcvt.f.x.v	v2,v2
   13c30:	fd070813          	addi	a6,a4,-48
   13c34:	02880227          	vs1r.v	v4,(a6)
   13c38:	4a1190d7          	vfcvt.f.x.v	v1,v1
   13c3c:	fe070813          	addi	a6,a4,-32
   13c40:	028801a7          	vs1r.v	v3,(a6)
   13c44:	ff070713          	addi	a4,a4,-16
   13c48:	02870127          	vs1r.v	v2,(a4)
   13c4c:	04078793          	addi	a5,a5,64
   13c50:	028780a7          	vs1r.v	v1,(a5)
   13c54:	08068693          	addi	a3,a3,128
   13c58:	08060613          	addi	a2,a2,128
   13c5c:	f31694e3          	bne	a3,a7,13b84 <_Z19benchmark_ntt_unaryIN6nncase3ntt3ops5roundEfLm4EEvNSt7__cxx1112basic_stringIcSt11char_traitsIcESaIcEEET0_SA_+0x1ac>
   13c60:	fff30313          	addi	t1,t1,-1
   13c64:	f0031ce3          	bnez	t1,13b7c <_Z19benchmark_ntt_unaryIN6nncase3ntt3ops5roundEfLm4EEvNSt7__cxx1112basic_stringIcSt11char_traitsIcESaIcEEET0_SA_+0x1a4>
   13c68:	c0102973          	rdtime	s2
   13c6c:	01300613          	li	a2,19
   13c70:	00003597          	auipc	a1,0x3
   13c74:	37058593          	addi	a1,a1,880 # 16fe0 <_IO_stdin_used+0x140>
   13c78:	00006517          	auipc	a0,0x6
   13c7c:	37053503          	ld	a0,880(a0) # 19fe8 <_ZSt4cout@GLIBCXX_3.4>
   13c80:	8e0fd0ef          	jal	10d60 <_ZSt16__ostream_insertIcSt11char_traitsIcEERSt13basic_ostreamIT_T0_ES6_PKS3_l@plt>
   13c84:	00100613          	li	a2,1
   13c88:	00003597          	auipc	a1,0x3
   13c8c:	37058593          	addi	a1,a1,880 # 16ff8 <_IO_stdin_used+0x158>
   13c90:	00006517          	auipc	a0,0x6
   13c94:	35853503          	ld	a0,856(a0) # 19fe8 <_ZSt4cout@GLIBCXX_3.4>
   13c98:	8c8fd0ef          	jal	10d60 <_ZSt16__ostream_insertIcSt11char_traitsIcEERSt13basic_ostreamIT_T0_ES6_PKS3_l@plt>
   13c9c:	00843603          	ld	a2,8(s0)
   13ca0:	00043583          	ld	a1,0(s0)
   13ca4:	00006517          	auipc	a0,0x6
   13ca8:	34453503          	ld	a0,836(a0) # 19fe8 <_ZSt4cout@GLIBCXX_3.4>
   13cac:	8b4fd0ef          	jal	10d60 <_ZSt16__ostream_insertIcSt11char_traitsIcEERSt13basic_ostreamIT_T0_ES6_PKS3_l@plt>
   13cb0:	00003597          	auipc	a1,0x3
   13cb4:	35058593          	addi	a1,a1,848 # 17000 <_IO_stdin_used+0x160>
   13cb8:	00600613          	li	a2,6
   13cbc:	00050413          	mv	s0,a0
   13cc0:	8a0fd0ef          	jal	10d60 <_ZSt16__ostream_insertIcSt11char_traitsIcEERSt13basic_ostreamIT_T0_ES6_PKS3_l@plt>
   13cc4:	64000793          	li	a5,1600
   13cc8:	02f907b3          	mul	a5,s2,a5
   13ccc:	97b42737          	lui	a4,0x97b42
   13cd0:	5ed70713          	addi	a4,a4,1517 # ffffffff97b425ed <__global_pointer$+0xffffffff97b27d5d>
   13cd4:	097b46b7          	lui	a3,0x97b4
   13cd8:	25f68693          	addi	a3,a3,607 # 97b425f <__global_pointer$+0x97999cf>
   13cdc:	02071713          	slli	a4,a4,0x20
   13ce0:	00d70733          	add	a4,a4,a3
   13ce4:	00003697          	auipc	a3,0x3
   13ce8:	22c6a707          	flw	fa4,556(a3) # 16f10 <_IO_stdin_used+0x70>
   13cec:	00003697          	auipc	a3,0x3
   13cf0:	2286a787          	flw	fa5,552(a3) # 16f14 <_IO_stdin_used+0x74>
   13cf4:	00043683          	ld	a3,0(s0)
   13cf8:	02e7b7b3          	mulhu	a5,a5,a4
   13cfc:	00100613          	li	a2,1
   13d00:	fe86b703          	ld	a4,-24(a3)
   13d04:	00040513          	mv	a0,s0
   13d08:	00e40733          	add	a4,s0,a4
   13d0c:	00c73423          	sd	a2,8(a4)
   13d10:	fe86b703          	ld	a4,-24(a3)
   13d14:	0047d793          	srli	a5,a5,0x4
   13d18:	409787b3          	sub	a5,a5,s1
   13d1c:	d037f553          	fcvt.s.lu	fa0,a5
   13d20:	00e40433          	add	s0,s0,a4
   13d24:	01842783          	lw	a5,24(s0)
   13d28:	18e57553          	fdiv.s	fa0,fa0,fa4
   13d2c:	efb7f793          	andi	a5,a5,-261
   13d30:	0047e793          	ori	a5,a5,4
   13d34:	00f42c23          	sw	a5,24(s0)
   13d38:	18f57553          	fdiv.s	fa0,fa0,fa5
   13d3c:	42050553          	fcvt.d.s	fa0,fa0
   13d40:	880fd0ef          	jal	10dc0 <_ZNSo9_M_insertIdEERSoT_@plt>
   13d44:	00700613          	li	a2,7
   13d48:	00003597          	auipc	a1,0x3
   13d4c:	2c058593          	addi	a1,a1,704 # 17008 <_IO_stdin_used+0x168>
   13d50:	00050493          	mv	s1,a0
   13d54:	80cfd0ef          	jal	10d60 <_ZSt16__ostream_insertIcSt11char_traitsIcEERSt13basic_ostreamIT_T0_ES6_PKS3_l@plt>
   13d58:	0004b783          	ld	a5,0(s1)
   13d5c:	fe87b783          	ld	a5,-24(a5)
   13d60:	00f487b3          	add	a5,s1,a5
   13d64:	0f07b403          	ld	s0,240(a5)
   13d68:	06040663          	beqz	s0,13dd4 <_Z19benchmark_ntt_unaryIN6nncase3ntt3ops5roundEfLm4EEvNSt7__cxx1112basic_stringIcSt11char_traitsIcESaIcEEET0_SA_+0x3fc>
   13d6c:	03844783          	lbu	a5,56(s0)
   13d70:	02078a63          	beqz	a5,13da4 <_Z19benchmark_ntt_unaryIN6nncase3ntt3ops5roundEfLm4EEvNSt7__cxx1112basic_stringIcSt11char_traitsIcESaIcEEET0_SA_+0x3cc>
   13d74:	04344583          	lbu	a1,67(s0)
   13d78:	00048513          	mv	a0,s1
   13d7c:	f55fc0ef          	jal	10cd0 <_ZNSo3putEc@plt>
   13d80:	000042b7          	lui	t0,0x4
   13d84:	36028293          	addi	t0,t0,864 # 4360 <__abi_tag-0xbf34>
   13d88:	00510133          	add	sp,sp,t0
   13d8c:	7e813083          	ld	ra,2024(sp)
   13d90:	7e013403          	ld	s0,2016(sp)
   13d94:	7d813483          	ld	s1,2008(sp)
   13d98:	7d013903          	ld	s2,2000(sp)
   13d9c:	7f010113          	addi	sp,sp,2032
   13da0:	f61fc06f          	j	10d00 <_ZNSo5flushEv@plt>
   13da4:	00040513          	mv	a0,s0
   13da8:	fc9fc0ef          	jal	10d70 <_ZNKSt5ctypeIcE13_M_widen_initEv@plt>
   13dac:	00043783          	ld	a5,0(s0)
   13db0:	ffffd717          	auipc	a4,0xffffd
   13db4:	57c70713          	addi	a4,a4,1404 # 1132c <_ZNKSt5ctypeIcE8do_widenEc>
   13db8:	00a00593          	li	a1,10
   13dbc:	0307b783          	ld	a5,48(a5)
   13dc0:	fae78ce3          	beq	a5,a4,13d78 <_Z19benchmark_ntt_unaryIN6nncase3ntt3ops5roundEfLm4EEvNSt7__cxx1112basic_stringIcSt11char_traitsIcESaIcEEET0_SA_+0x3a0>
   13dc4:	00040513          	mv	a0,s0
   13dc8:	000780e7          	jalr	a5
   13dcc:	00050593          	mv	a1,a0
   13dd0:	fa9ff06f          	j	13d78 <_Z19benchmark_ntt_unaryIN6nncase3ntt3ops5roundEfLm4EEvNSt7__cxx1112basic_stringIcSt11char_traitsIcESaIcEEET0_SA_+0x3a0>
   13dd4:	fadfc0ef          	jal	10d80 <_ZSt16__throw_bad_castv@plt>

0000000000013dd8 <_Z19benchmark_ntt_unaryIN6nncase3ntt3ops4ceilEfLm4EEvNSt7__cxx1112basic_stringIcSt11char_traitsIcESaIcEEET0_SA_>:
   13dd8:	ffffc2b7          	lui	t0,0xffffc
   13ddc:	81010113          	addi	sp,sp,-2032
   13de0:	ca028293          	addi	t0,t0,-864 # ffffffffffffbca0 <__global_pointer$+0xfffffffffffe1410>
   13de4:	7e813023          	sd	s0,2016(sp)
   13de8:	7c913c23          	sd	s1,2008(sp)
   13dec:	7d213823          	sd	s2,2000(sp)
   13df0:	7e113423          	sd	ra,2024(sp)
   13df4:	000027b7          	lui	a5,0x2
   13df8:	00510133          	add	sp,sp,t0
   13dfc:	01010493          	addi	s1,sp,16
   13e00:	58078793          	addi	a5,a5,1408 # 2580 <__abi_tag-0xdd14>
   13e04:	00050413          	mv	s0,a0
   13e08:	00f48933          	add	s2,s1,a5
   13e0c:	00048513          	mv	a0,s1
   13e10:	00b12627          	fsw	fa1,12(sp)
   13e14:	00a12427          	fsw	fa0,8(sp)
   13e18:	01048493          	addi	s1,s1,16
   13e1c:	919fd0ef          	jal	11734 <_ZN6nncase7NttTest11init_tensorIfNS_3ntt12basic_vectorIfJLm4EEEEEEvRT0_T_S7_>
   13e20:	00812507          	flw	fa0,8(sp)
   13e24:	00c12587          	flw	fa1,12(sp)
   13e28:	ff2492e3          	bne	s1,s2,13e0c <_Z19benchmark_ntt_unaryIN6nncase3ntt3ops4ceilEfLm4EEvNSt7__cxx1112basic_stringIcSt11char_traitsIcESaIcEEET0_SA_+0x34>
   13e2c:	000028b7          	lui	a7,0x2
   13e30:	5a088793          	addi	a5,a7,1440 # 25a0 <__abi_tag-0xdcf4>
   13e34:	002785b3          	add	a1,a5,sp
   13e38:	00003797          	auipc	a5,0x3
   13e3c:	0847a787          	flw	fa5,132(a5) # 16ebc <_IO_stdin_used+0x1c>
   13e40:	01010513          	addi	a0,sp,16
   13e44:	5f088893          	addi	a7,a7,1520
   13e48:	12c00313          	li	t1,300
   13e4c:	cd027057          	vsetivli	zero,4,e32,m1,ta,ma
   13e50:	07000693          	li	a3,112
   13e54:	03000613          	li	a2,48
   13e58:	00c507b3          	add	a5,a0,a2
   13e5c:	fd078713          	addi	a4,a5,-48
   13e60:	02876007          	vl1re32.v	v0,(a4)
   13e64:	fe078713          	addi	a4,a5,-32
   13e68:	02876087          	vl1re32.v	v1,(a4)
   13e6c:	ff078813          	addi	a6,a5,-16
   13e70:	02886707          	vl1re32.v	v14,(a6)
   13e74:	00d50733          	add	a4,a0,a3
   13e78:	fc070813          	addi	a6,a4,-64
   13e7c:	02886687          	vl1re32.v	v13,(a6)
   13e80:	4a009457          	vfcvt.x.f.v	v8,v0
   13e84:	4a1093d7          	vfcvt.x.f.v	v7,v1
   13e88:	fd070813          	addi	a6,a4,-48
   13e8c:	02886607          	vl1re32.v	v12,(a6)
   13e90:	4ae09357          	vfcvt.x.f.v	v6,v14
   13e94:	4a819457          	vfcvt.f.x.v	v8,v8
   13e98:	4a7193d7          	vfcvt.f.x.v	v7,v7
   13e9c:	fe070813          	addi	a6,a4,-32
   13ea0:	02886587          	vl1re32.v	v11,(a6)
   13ea4:	6e7097d7          	vmflt.vv	v15,v7,v1
   13ea8:	4ad092d7          	vfcvt.x.f.v	v5,v13
   13eac:	4a619357          	vfcvt.f.x.v	v6,v6
   13eb0:	6e801057          	vmflt.vv	v0,v8,v0
   13eb4:	ff070713          	addi	a4,a4,-16
   13eb8:	02876507          	vl1re32.v	v10,(a4)
   13ebc:	0087d457          	vfadd.vf	v8,v8,fa5,v0.t
   13ec0:	4ac09257          	vfcvt.x.f.v	v4,v12
   13ec4:	4a5192d7          	vfcvt.f.x.v	v5,v5
   13ec8:	6e671757          	vmflt.vv	v14,v6,v14
   13ecc:	9ef03057          	vmv1r.v	v0,v15
   13ed0:	04078793          	addi	a5,a5,64
   13ed4:	0287e487          	vl1re32.v	v9,(a5)
   13ed8:	0077d3d7          	vfadd.vf	v7,v7,fa5,v0.t
   13edc:	4ab091d7          	vfcvt.x.f.v	v3,v11
   13ee0:	4a419257          	vfcvt.f.x.v	v4,v4
   13ee4:	6e5696d7          	vmflt.vv	v13,v5,v13
   13ee8:	9ee03057          	vmv1r.v	v0,v14
   13eec:	4aa09157          	vfcvt.x.f.v	v2,v10
   13ef0:	4a3191d7          	vfcvt.f.x.v	v3,v3
   13ef4:	0067d357          	vfadd.vf	v6,v6,fa5,v0.t
   13ef8:	6e461657          	vmflt.vv	v12,v4,v12
   13efc:	9ed03057          	vmv1r.v	v0,v13
   13f00:	4a9090d7          	vfcvt.x.f.v	v1,v9
   13f04:	4a219157          	vfcvt.f.x.v	v2,v2
   13f08:	0057d2d7          	vfadd.vf	v5,v5,fa5,v0.t
   13f0c:	6e3595d7          	vmflt.vv	v11,v3,v11
   13f10:	9ec03057          	vmv1r.v	v0,v12
   13f14:	4a1190d7          	vfcvt.f.x.v	v1,v1
   13f18:	6e251557          	vmflt.vv	v10,v2,v10
   13f1c:	0047d257          	vfadd.vf	v4,v4,fa5,v0.t
   13f20:	9eb03057          	vmv1r.v	v0,v11
   13f24:	6e1494d7          	vmflt.vv	v9,v1,v9
   13f28:	00c587b3          	add	a5,a1,a2
   13f2c:	0037d1d7          	vfadd.vf	v3,v3,fa5,v0.t
   13f30:	9ea03057          	vmv1r.v	v0,v10
   13f34:	fd078713          	addi	a4,a5,-48
   13f38:	02870427          	vs1r.v	v8,(a4)
   13f3c:	0027d157          	vfadd.vf	v2,v2,fa5,v0.t
   13f40:	fe078713          	addi	a4,a5,-32
   13f44:	9e903057          	vmv1r.v	v0,v9
   13f48:	028703a7          	vs1r.v	v7,(a4)
   13f4c:	ff078813          	addi	a6,a5,-16
   13f50:	00d58733          	add	a4,a1,a3
   13f54:	02880327          	vs1r.v	v6,(a6)
   13f58:	fc070813          	addi	a6,a4,-64
   13f5c:	028802a7          	vs1r.v	v5,(a6)
   13f60:	0017d0d7          	vfadd.vf	v1,v1,fa5,v0.t
   13f64:	fd070813          	addi	a6,a4,-48
   13f68:	02880227          	vs1r.v	v4,(a6)
   13f6c:	fe070813          	addi	a6,a4,-32
   13f70:	028801a7          	vs1r.v	v3,(a6)
   13f74:	ff070713          	addi	a4,a4,-16
   13f78:	02870127          	vs1r.v	v2,(a4)
   13f7c:	04078793          	addi	a5,a5,64
   13f80:	028780a7          	vs1r.v	v1,(a5)
   13f84:	08068693          	addi	a3,a3,128
   13f88:	08060613          	addi	a2,a2,128
   13f8c:	ed1696e3          	bne	a3,a7,13e58 <_Z19benchmark_ntt_unaryIN6nncase3ntt3ops4ceilEfLm4EEvNSt7__cxx1112basic_stringIcSt11char_traitsIcESaIcEEET0_SA_+0x80>
   13f90:	fff30313          	addi	t1,t1,-1
   13f94:	ea031ee3          	bnez	t1,13e50 <_Z19benchmark_ntt_unaryIN6nncase3ntt3ops4ceilEfLm4EEvNSt7__cxx1112basic_stringIcSt11char_traitsIcESaIcEEET0_SA_+0x78>
   13f98:	c01024f3          	rdtime	s1
   13f9c:	64000793          	li	a5,1600
   13fa0:	02f484b3          	mul	s1,s1,a5
   13fa4:	97b427b7          	lui	a5,0x97b42
   13fa8:	5ed78793          	addi	a5,a5,1517 # ffffffff97b425ed <__global_pointer$+0xffffffff97b27d5d>
   13fac:	097b4737          	lui	a4,0x97b4
   13fb0:	02079793          	slli	a5,a5,0x20
   13fb4:	25f70713          	addi	a4,a4,607 # 97b425f <__global_pointer$+0x97999cf>
   13fb8:	00e787b3          	add	a5,a5,a4
   13fbc:	000028b7          	lui	a7,0x2
   13fc0:	01010513          	addi	a0,sp,16
   13fc4:	12c00313          	li	t1,300
   13fc8:	02f4b4b3          	mulhu	s1,s1,a5
   13fcc:	5a088793          	addi	a5,a7,1440 # 25a0 <__abi_tag-0xdcf4>
   13fd0:	002785b3          	add	a1,a5,sp
   13fd4:	5f088893          	addi	a7,a7,1520
   13fd8:	cd027057          	vsetivli	zero,4,e32,m1,ta,ma
   13fdc:	0044d493          	srli	s1,s1,0x4
   13fe0:	07000693          	li	a3,112
   13fe4:	03000613          	li	a2,48
   13fe8:	00c507b3          	add	a5,a0,a2
   13fec:	fd078713          	addi	a4,a5,-48
   13ff0:	02876007          	vl1re32.v	v0,(a4)
   13ff4:	fe078713          	addi	a4,a5,-32
   13ff8:	02876087          	vl1re32.v	v1,(a4)
   13ffc:	ff078813          	addi	a6,a5,-16
   14000:	02886707          	vl1re32.v	v14,(a6)
   14004:	00d50733          	add	a4,a0,a3
   14008:	fc070813          	addi	a6,a4,-64
   1400c:	02886687          	vl1re32.v	v13,(a6)
   14010:	4a009457          	vfcvt.x.f.v	v8,v0
   14014:	4a1093d7          	vfcvt.x.f.v	v7,v1
   14018:	fd070813          	addi	a6,a4,-48
   1401c:	02886607          	vl1re32.v	v12,(a6)
   14020:	4ae09357          	vfcvt.x.f.v	v6,v14
   14024:	4a819457          	vfcvt.f.x.v	v8,v8
   14028:	4a7193d7          	vfcvt.f.x.v	v7,v7
   1402c:	fe070813          	addi	a6,a4,-32
   14030:	02886587          	vl1re32.v	v11,(a6)
   14034:	6e7097d7          	vmflt.vv	v15,v7,v1
   14038:	4ad092d7          	vfcvt.x.f.v	v5,v13
   1403c:	4a619357          	vfcvt.f.x.v	v6,v6
   14040:	6e801057          	vmflt.vv	v0,v8,v0
   14044:	ff070713          	addi	a4,a4,-16
   14048:	02876507          	vl1re32.v	v10,(a4)
   1404c:	0087d457          	vfadd.vf	v8,v8,fa5,v0.t
   14050:	4ac09257          	vfcvt.x.f.v	v4,v12
   14054:	4a5192d7          	vfcvt.f.x.v	v5,v5
   14058:	6e671757          	vmflt.vv	v14,v6,v14
   1405c:	9ef03057          	vmv1r.v	v0,v15
   14060:	04078793          	addi	a5,a5,64
   14064:	0287e487          	vl1re32.v	v9,(a5)
   14068:	0077d3d7          	vfadd.vf	v7,v7,fa5,v0.t
   1406c:	4ab091d7          	vfcvt.x.f.v	v3,v11
   14070:	4a419257          	vfcvt.f.x.v	v4,v4
   14074:	6e5696d7          	vmflt.vv	v13,v5,v13
   14078:	9ee03057          	vmv1r.v	v0,v14
   1407c:	4aa09157          	vfcvt.x.f.v	v2,v10
   14080:	4a3191d7          	vfcvt.f.x.v	v3,v3
   14084:	0067d357          	vfadd.vf	v6,v6,fa5,v0.t
   14088:	6e461657          	vmflt.vv	v12,v4,v12
   1408c:	9ed03057          	vmv1r.v	v0,v13
   14090:	4a9090d7          	vfcvt.x.f.v	v1,v9
   14094:	4a219157          	vfcvt.f.x.v	v2,v2
   14098:	0057d2d7          	vfadd.vf	v5,v5,fa5,v0.t
   1409c:	6e3595d7          	vmflt.vv	v11,v3,v11
   140a0:	9ec03057          	vmv1r.v	v0,v12
   140a4:	4a1190d7          	vfcvt.f.x.v	v1,v1
   140a8:	6e251557          	vmflt.vv	v10,v2,v10
   140ac:	0047d257          	vfadd.vf	v4,v4,fa5,v0.t
   140b0:	9eb03057          	vmv1r.v	v0,v11
   140b4:	6e1494d7          	vmflt.vv	v9,v1,v9
   140b8:	00c587b3          	add	a5,a1,a2
   140bc:	0037d1d7          	vfadd.vf	v3,v3,fa5,v0.t
   140c0:	9ea03057          	vmv1r.v	v0,v10
   140c4:	fd078713          	addi	a4,a5,-48
   140c8:	02870427          	vs1r.v	v8,(a4)
   140cc:	0027d157          	vfadd.vf	v2,v2,fa5,v0.t
   140d0:	fe078713          	addi	a4,a5,-32
   140d4:	9e903057          	vmv1r.v	v0,v9
   140d8:	028703a7          	vs1r.v	v7,(a4)
   140dc:	ff078813          	addi	a6,a5,-16
   140e0:	00d58733          	add	a4,a1,a3
   140e4:	02880327          	vs1r.v	v6,(a6)
   140e8:	fc070813          	addi	a6,a4,-64
   140ec:	028802a7          	vs1r.v	v5,(a6)
   140f0:	0017d0d7          	vfadd.vf	v1,v1,fa5,v0.t
   140f4:	fd070813          	addi	a6,a4,-48
   140f8:	02880227          	vs1r.v	v4,(a6)
   140fc:	fe070813          	addi	a6,a4,-32
   14100:	028801a7          	vs1r.v	v3,(a6)
   14104:	ff070713          	addi	a4,a4,-16
   14108:	02870127          	vs1r.v	v2,(a4)
   1410c:	04078793          	addi	a5,a5,64
   14110:	028780a7          	vs1r.v	v1,(a5)
   14114:	08068693          	addi	a3,a3,128
   14118:	08060613          	addi	a2,a2,128
   1411c:	ed1696e3          	bne	a3,a7,13fe8 <_Z19benchmark_ntt_unaryIN6nncase3ntt3ops4ceilEfLm4EEvNSt7__cxx1112basic_stringIcSt11char_traitsIcESaIcEEET0_SA_+0x210>
   14120:	fff30313          	addi	t1,t1,-1
   14124:	ea031ee3          	bnez	t1,13fe0 <_Z19benchmark_ntt_unaryIN6nncase3ntt3ops4ceilEfLm4EEvNSt7__cxx1112basic_stringIcSt11char_traitsIcESaIcEEET0_SA_+0x208>
   14128:	c0102973          	rdtime	s2
   1412c:	01300613          	li	a2,19
   14130:	00003597          	auipc	a1,0x3
   14134:	eb058593          	addi	a1,a1,-336 # 16fe0 <_IO_stdin_used+0x140>
   14138:	00006517          	auipc	a0,0x6
   1413c:	eb053503          	ld	a0,-336(a0) # 19fe8 <_ZSt4cout@GLIBCXX_3.4>
   14140:	c21fc0ef          	jal	10d60 <_ZSt16__ostream_insertIcSt11char_traitsIcEERSt13basic_ostreamIT_T0_ES6_PKS3_l@plt>
   14144:	00100613          	li	a2,1
   14148:	00003597          	auipc	a1,0x3
   1414c:	eb058593          	addi	a1,a1,-336 # 16ff8 <_IO_stdin_used+0x158>
   14150:	00006517          	auipc	a0,0x6
   14154:	e9853503          	ld	a0,-360(a0) # 19fe8 <_ZSt4cout@GLIBCXX_3.4>
   14158:	c09fc0ef          	jal	10d60 <_ZSt16__ostream_insertIcSt11char_traitsIcEERSt13basic_ostreamIT_T0_ES6_PKS3_l@plt>
   1415c:	00843603          	ld	a2,8(s0)
   14160:	00043583          	ld	a1,0(s0)
   14164:	00006517          	auipc	a0,0x6
   14168:	e8453503          	ld	a0,-380(a0) # 19fe8 <_ZSt4cout@GLIBCXX_3.4>
   1416c:	bf5fc0ef          	jal	10d60 <_ZSt16__ostream_insertIcSt11char_traitsIcEERSt13basic_ostreamIT_T0_ES6_PKS3_l@plt>
   14170:	00003597          	auipc	a1,0x3
   14174:	e9058593          	addi	a1,a1,-368 # 17000 <_IO_stdin_used+0x160>
   14178:	00600613          	li	a2,6
   1417c:	00050413          	mv	s0,a0
   14180:	be1fc0ef          	jal	10d60 <_ZSt16__ostream_insertIcSt11char_traitsIcEERSt13basic_ostreamIT_T0_ES6_PKS3_l@plt>
   14184:	64000793          	li	a5,1600
   14188:	02f907b3          	mul	a5,s2,a5
   1418c:	97b42737          	lui	a4,0x97b42
   14190:	5ed70713          	addi	a4,a4,1517 # ffffffff97b425ed <__global_pointer$+0xffffffff97b27d5d>
   14194:	097b46b7          	lui	a3,0x97b4
   14198:	25f68693          	addi	a3,a3,607 # 97b425f <__global_pointer$+0x97999cf>
   1419c:	02071713          	slli	a4,a4,0x20
   141a0:	00d70733          	add	a4,a4,a3
   141a4:	00003697          	auipc	a3,0x3
   141a8:	d6c6a707          	flw	fa4,-660(a3) # 16f10 <_IO_stdin_used+0x70>
   141ac:	00003697          	auipc	a3,0x3
   141b0:	d686a787          	flw	fa5,-664(a3) # 16f14 <_IO_stdin_used+0x74>
   141b4:	00043683          	ld	a3,0(s0)
   141b8:	02e7b7b3          	mulhu	a5,a5,a4
   141bc:	00100613          	li	a2,1
   141c0:	fe86b703          	ld	a4,-24(a3)
   141c4:	00040513          	mv	a0,s0
   141c8:	00e40733          	add	a4,s0,a4
   141cc:	00c73423          	sd	a2,8(a4)
   141d0:	fe86b703          	ld	a4,-24(a3)
   141d4:	0047d793          	srli	a5,a5,0x4
   141d8:	409787b3          	sub	a5,a5,s1
   141dc:	d037f553          	fcvt.s.lu	fa0,a5
   141e0:	00e40433          	add	s0,s0,a4
   141e4:	01842783          	lw	a5,24(s0)
   141e8:	18e57553          	fdiv.s	fa0,fa0,fa4
   141ec:	efb7f793          	andi	a5,a5,-261
   141f0:	0047e793          	ori	a5,a5,4
   141f4:	00f42c23          	sw	a5,24(s0)
   141f8:	18f57553          	fdiv.s	fa0,fa0,fa5
   141fc:	42050553          	fcvt.d.s	fa0,fa0
   14200:	bc1fc0ef          	jal	10dc0 <_ZNSo9_M_insertIdEERSoT_@plt>
   14204:	00700613          	li	a2,7
   14208:	00003597          	auipc	a1,0x3
   1420c:	e0058593          	addi	a1,a1,-512 # 17008 <_IO_stdin_used+0x168>
   14210:	00050493          	mv	s1,a0
   14214:	b4dfc0ef          	jal	10d60 <_ZSt16__ostream_insertIcSt11char_traitsIcEERSt13basic_ostreamIT_T0_ES6_PKS3_l@plt>
   14218:	0004b783          	ld	a5,0(s1)
   1421c:	fe87b783          	ld	a5,-24(a5)
   14220:	00f487b3          	add	a5,s1,a5
   14224:	0f07b403          	ld	s0,240(a5)
   14228:	06040663          	beqz	s0,14294 <_Z19benchmark_ntt_unaryIN6nncase3ntt3ops4ceilEfLm4EEvNSt7__cxx1112basic_stringIcSt11char_traitsIcESaIcEEET0_SA_+0x4bc>
   1422c:	03844783          	lbu	a5,56(s0)
   14230:	02078a63          	beqz	a5,14264 <_Z19benchmark_ntt_unaryIN6nncase3ntt3ops4ceilEfLm4EEvNSt7__cxx1112basic_stringIcSt11char_traitsIcESaIcEEET0_SA_+0x48c>
   14234:	04344583          	lbu	a1,67(s0)
   14238:	00048513          	mv	a0,s1
   1423c:	a95fc0ef          	jal	10cd0 <_ZNSo3putEc@plt>
   14240:	000042b7          	lui	t0,0x4
   14244:	36028293          	addi	t0,t0,864 # 4360 <__abi_tag-0xbf34>
   14248:	00510133          	add	sp,sp,t0
   1424c:	7e813083          	ld	ra,2024(sp)
   14250:	7e013403          	ld	s0,2016(sp)
   14254:	7d813483          	ld	s1,2008(sp)
   14258:	7d013903          	ld	s2,2000(sp)
   1425c:	7f010113          	addi	sp,sp,2032
   14260:	aa1fc06f          	j	10d00 <_ZNSo5flushEv@plt>
   14264:	00040513          	mv	a0,s0
   14268:	b09fc0ef          	jal	10d70 <_ZNKSt5ctypeIcE13_M_widen_initEv@plt>
   1426c:	00043783          	ld	a5,0(s0)
   14270:	ffffd717          	auipc	a4,0xffffd
   14274:	0bc70713          	addi	a4,a4,188 # 1132c <_ZNKSt5ctypeIcE8do_widenEc>
   14278:	00a00593          	li	a1,10
   1427c:	0307b783          	ld	a5,48(a5)
   14280:	fae78ce3          	beq	a5,a4,14238 <_Z19benchmark_ntt_unaryIN6nncase3ntt3ops4ceilEfLm4EEvNSt7__cxx1112basic_stringIcSt11char_traitsIcESaIcEEET0_SA_+0x460>
   14284:	00040513          	mv	a0,s0
   14288:	000780e7          	jalr	a5
   1428c:	00050593          	mv	a1,a0
   14290:	fa9ff06f          	j	14238 <_Z19benchmark_ntt_unaryIN6nncase3ntt3ops4ceilEfLm4EEvNSt7__cxx1112basic_stringIcSt11char_traitsIcESaIcEEET0_SA_+0x460>
   14294:	aedfc0ef          	jal	10d80 <_ZSt16__throw_bad_castv@plt>

0000000000014298 <_Z19benchmark_ntt_unaryIN6nncase3ntt3ops5floorEfLm4EEvNSt7__cxx1112basic_stringIcSt11char_traitsIcESaIcEEET0_SA_>:
   14298:	ffffc2b7          	lui	t0,0xffffc
   1429c:	81010113          	addi	sp,sp,-2032
   142a0:	ca028293          	addi	t0,t0,-864 # ffffffffffffbca0 <__global_pointer$+0xfffffffffffe1410>
   142a4:	7e813023          	sd	s0,2016(sp)
   142a8:	7c913c23          	sd	s1,2008(sp)
   142ac:	7d213823          	sd	s2,2000(sp)
   142b0:	7e113423          	sd	ra,2024(sp)
   142b4:	000027b7          	lui	a5,0x2
   142b8:	00510133          	add	sp,sp,t0
   142bc:	01010493          	addi	s1,sp,16
   142c0:	58078793          	addi	a5,a5,1408 # 2580 <__abi_tag-0xdd14>
   142c4:	00050413          	mv	s0,a0
   142c8:	00f48933          	add	s2,s1,a5
   142cc:	00048513          	mv	a0,s1
   142d0:	00b12627          	fsw	fa1,12(sp)
   142d4:	00a12427          	fsw	fa0,8(sp)
   142d8:	01048493          	addi	s1,s1,16
   142dc:	c58fd0ef          	jal	11734 <_ZN6nncase7NttTest11init_tensorIfNS_3ntt12basic_vectorIfJLm4EEEEEEvRT0_T_S7_>
   142e0:	00812507          	flw	fa0,8(sp)
   142e4:	00c12587          	flw	fa1,12(sp)
   142e8:	ff2492e3          	bne	s1,s2,142cc <_Z19benchmark_ntt_unaryIN6nncase3ntt3ops5floorEfLm4EEvNSt7__cxx1112basic_stringIcSt11char_traitsIcESaIcEEET0_SA_+0x34>
   142ec:	000028b7          	lui	a7,0x2
   142f0:	5a088793          	addi	a5,a7,1440 # 25a0 <__abi_tag-0xdcf4>
   142f4:	002785b3          	add	a1,a5,sp
   142f8:	00003797          	auipc	a5,0x3
   142fc:	bc47a787          	flw	fa5,-1084(a5) # 16ebc <_IO_stdin_used+0x1c>
   14300:	01010513          	addi	a0,sp,16
   14304:	5f088893          	addi	a7,a7,1520
   14308:	12c00313          	li	t1,300
   1430c:	cd027057          	vsetivli	zero,4,e32,m1,ta,ma
   14310:	07000693          	li	a3,112
   14314:	03000613          	li	a2,48
   14318:	00c507b3          	add	a5,a0,a2
   1431c:	fd078713          	addi	a4,a5,-48
   14320:	02876007          	vl1re32.v	v0,(a4)
   14324:	fe078713          	addi	a4,a5,-32
   14328:	02876087          	vl1re32.v	v1,(a4)
   1432c:	ff078813          	addi	a6,a5,-16
   14330:	02886707          	vl1re32.v	v14,(a6)
   14334:	00d50733          	add	a4,a0,a3
   14338:	fc070813          	addi	a6,a4,-64
   1433c:	02886687          	vl1re32.v	v13,(a6)
   14340:	4a009457          	vfcvt.x.f.v	v8,v0
   14344:	4a1093d7          	vfcvt.x.f.v	v7,v1
   14348:	fd070813          	addi	a6,a4,-48
   1434c:	02886607          	vl1re32.v	v12,(a6)
   14350:	4ae09357          	vfcvt.x.f.v	v6,v14
   14354:	4a819457          	vfcvt.f.x.v	v8,v8
   14358:	4a7193d7          	vfcvt.f.x.v	v7,v7
   1435c:	fe070813          	addi	a6,a4,-32
   14360:	02886587          	vl1re32.v	v11,(a6)
   14364:	6e1397d7          	vmflt.vv	v15,v1,v7
   14368:	4ad092d7          	vfcvt.x.f.v	v5,v13
   1436c:	4a619357          	vfcvt.f.x.v	v6,v6
   14370:	6e041057          	vmflt.vv	v0,v0,v8
   14374:	ff070713          	addi	a4,a4,-16
   14378:	02876507          	vl1re32.v	v10,(a4)
   1437c:	0887d457          	vfsub.vf	v8,v8,fa5,v0.t
   14380:	4ac09257          	vfcvt.x.f.v	v4,v12
   14384:	4a5192d7          	vfcvt.f.x.v	v5,v5
   14388:	6ee31757          	vmflt.vv	v14,v14,v6
   1438c:	9ef03057          	vmv1r.v	v0,v15
   14390:	04078793          	addi	a5,a5,64
   14394:	0287e487          	vl1re32.v	v9,(a5)
   14398:	0877d3d7          	vfsub.vf	v7,v7,fa5,v0.t
   1439c:	4ab091d7          	vfcvt.x.f.v	v3,v11
   143a0:	4a419257          	vfcvt.f.x.v	v4,v4
   143a4:	6ed296d7          	vmflt.vv	v13,v13,v5
   143a8:	9ee03057          	vmv1r.v	v0,v14
   143ac:	4aa09157          	vfcvt.x.f.v	v2,v10
   143b0:	4a3191d7          	vfcvt.f.x.v	v3,v3
   143b4:	0867d357          	vfsub.vf	v6,v6,fa5,v0.t
   143b8:	6ec21657          	vmflt.vv	v12,v12,v4
   143bc:	9ed03057          	vmv1r.v	v0,v13
   143c0:	4a9090d7          	vfcvt.x.f.v	v1,v9
   143c4:	4a219157          	vfcvt.f.x.v	v2,v2
   143c8:	0857d2d7          	vfsub.vf	v5,v5,fa5,v0.t
   143cc:	6eb195d7          	vmflt.vv	v11,v11,v3
   143d0:	9ec03057          	vmv1r.v	v0,v12
   143d4:	4a1190d7          	vfcvt.f.x.v	v1,v1
   143d8:	6ea11557          	vmflt.vv	v10,v10,v2
   143dc:	0847d257          	vfsub.vf	v4,v4,fa5,v0.t
   143e0:	9eb03057          	vmv1r.v	v0,v11
   143e4:	6e9094d7          	vmflt.vv	v9,v9,v1
   143e8:	00c587b3          	add	a5,a1,a2
   143ec:	0837d1d7          	vfsub.vf	v3,v3,fa5,v0.t
   143f0:	9ea03057          	vmv1r.v	v0,v10
   143f4:	fd078713          	addi	a4,a5,-48
   143f8:	02870427          	vs1r.v	v8,(a4)
   143fc:	0827d157          	vfsub.vf	v2,v2,fa5,v0.t
   14400:	fe078713          	addi	a4,a5,-32
   14404:	9e903057          	vmv1r.v	v0,v9
   14408:	028703a7          	vs1r.v	v7,(a4)
   1440c:	ff078813          	addi	a6,a5,-16
   14410:	00d58733          	add	a4,a1,a3
   14414:	02880327          	vs1r.v	v6,(a6)
   14418:	fc070813          	addi	a6,a4,-64
   1441c:	028802a7          	vs1r.v	v5,(a6)
   14420:	0817d0d7          	vfsub.vf	v1,v1,fa5,v0.t
   14424:	fd070813          	addi	a6,a4,-48
   14428:	02880227          	vs1r.v	v4,(a6)
   1442c:	fe070813          	addi	a6,a4,-32
   14430:	028801a7          	vs1r.v	v3,(a6)
   14434:	ff070713          	addi	a4,a4,-16
   14438:	02870127          	vs1r.v	v2,(a4)
   1443c:	04078793          	addi	a5,a5,64
   14440:	028780a7          	vs1r.v	v1,(a5)
   14444:	08068693          	addi	a3,a3,128
   14448:	08060613          	addi	a2,a2,128
   1444c:	ed1696e3          	bne	a3,a7,14318 <_Z19benchmark_ntt_unaryIN6nncase3ntt3ops5floorEfLm4EEvNSt7__cxx1112basic_stringIcSt11char_traitsIcESaIcEEET0_SA_+0x80>
   14450:	fff30313          	addi	t1,t1,-1
   14454:	ea031ee3          	bnez	t1,14310 <_Z19benchmark_ntt_unaryIN6nncase3ntt3ops5floorEfLm4EEvNSt7__cxx1112basic_stringIcSt11char_traitsIcESaIcEEET0_SA_+0x78>
   14458:	c01024f3          	rdtime	s1
   1445c:	64000793          	li	a5,1600
   14460:	02f484b3          	mul	s1,s1,a5
   14464:	97b427b7          	lui	a5,0x97b42
   14468:	5ed78793          	addi	a5,a5,1517 # ffffffff97b425ed <__global_pointer$+0xffffffff97b27d5d>
   1446c:	097b4737          	lui	a4,0x97b4
   14470:	02079793          	slli	a5,a5,0x20
   14474:	25f70713          	addi	a4,a4,607 # 97b425f <__global_pointer$+0x97999cf>
   14478:	00e787b3          	add	a5,a5,a4
   1447c:	000028b7          	lui	a7,0x2
   14480:	01010513          	addi	a0,sp,16
   14484:	12c00313          	li	t1,300
   14488:	02f4b4b3          	mulhu	s1,s1,a5
   1448c:	5a088793          	addi	a5,a7,1440 # 25a0 <__abi_tag-0xdcf4>
   14490:	002785b3          	add	a1,a5,sp
   14494:	5f088893          	addi	a7,a7,1520
   14498:	cd027057          	vsetivli	zero,4,e32,m1,ta,ma
   1449c:	0044d493          	srli	s1,s1,0x4
   144a0:	07000693          	li	a3,112
   144a4:	03000613          	li	a2,48
   144a8:	00c507b3          	add	a5,a0,a2
   144ac:	fd078713          	addi	a4,a5,-48
   144b0:	02876007          	vl1re32.v	v0,(a4)
   144b4:	fe078713          	addi	a4,a5,-32
   144b8:	02876087          	vl1re32.v	v1,(a4)
   144bc:	ff078813          	addi	a6,a5,-16
   144c0:	02886707          	vl1re32.v	v14,(a6)
   144c4:	00d50733          	add	a4,a0,a3
   144c8:	fc070813          	addi	a6,a4,-64
   144cc:	02886687          	vl1re32.v	v13,(a6)
   144d0:	4a009457          	vfcvt.x.f.v	v8,v0
   144d4:	4a1093d7          	vfcvt.x.f.v	v7,v1
   144d8:	fd070813          	addi	a6,a4,-48
   144dc:	02886607          	vl1re32.v	v12,(a6)
   144e0:	4ae09357          	vfcvt.x.f.v	v6,v14
   144e4:	4a819457          	vfcvt.f.x.v	v8,v8
   144e8:	4a7193d7          	vfcvt.f.x.v	v7,v7
   144ec:	fe070813          	addi	a6,a4,-32
   144f0:	02886587          	vl1re32.v	v11,(a6)
   144f4:	6e1397d7          	vmflt.vv	v15,v1,v7
   144f8:	4ad092d7          	vfcvt.x.f.v	v5,v13
   144fc:	4a619357          	vfcvt.f.x.v	v6,v6
   14500:	6e041057          	vmflt.vv	v0,v0,v8
   14504:	ff070713          	addi	a4,a4,-16
   14508:	02876507          	vl1re32.v	v10,(a4)
   1450c:	0887d457          	vfsub.vf	v8,v8,fa5,v0.t
   14510:	4ac09257          	vfcvt.x.f.v	v4,v12
   14514:	4a5192d7          	vfcvt.f.x.v	v5,v5
   14518:	6ee31757          	vmflt.vv	v14,v14,v6
   1451c:	9ef03057          	vmv1r.v	v0,v15
   14520:	04078793          	addi	a5,a5,64
   14524:	0287e487          	vl1re32.v	v9,(a5)
   14528:	0877d3d7          	vfsub.vf	v7,v7,fa5,v0.t
   1452c:	4ab091d7          	vfcvt.x.f.v	v3,v11
   14530:	4a419257          	vfcvt.f.x.v	v4,v4
   14534:	6ed296d7          	vmflt.vv	v13,v13,v5
   14538:	9ee03057          	vmv1r.v	v0,v14
   1453c:	4aa09157          	vfcvt.x.f.v	v2,v10
   14540:	4a3191d7          	vfcvt.f.x.v	v3,v3
   14544:	0867d357          	vfsub.vf	v6,v6,fa5,v0.t
   14548:	6ec21657          	vmflt.vv	v12,v12,v4
   1454c:	9ed03057          	vmv1r.v	v0,v13
   14550:	4a9090d7          	vfcvt.x.f.v	v1,v9
   14554:	4a219157          	vfcvt.f.x.v	v2,v2
   14558:	0857d2d7          	vfsub.vf	v5,v5,fa5,v0.t
   1455c:	6eb195d7          	vmflt.vv	v11,v11,v3
   14560:	9ec03057          	vmv1r.v	v0,v12
   14564:	4a1190d7          	vfcvt.f.x.v	v1,v1
   14568:	6ea11557          	vmflt.vv	v10,v10,v2
   1456c:	0847d257          	vfsub.vf	v4,v4,fa5,v0.t
   14570:	9eb03057          	vmv1r.v	v0,v11
   14574:	6e9094d7          	vmflt.vv	v9,v9,v1
   14578:	00c587b3          	add	a5,a1,a2
   1457c:	0837d1d7          	vfsub.vf	v3,v3,fa5,v0.t
   14580:	9ea03057          	vmv1r.v	v0,v10
   14584:	fd078713          	addi	a4,a5,-48
   14588:	02870427          	vs1r.v	v8,(a4)
   1458c:	0827d157          	vfsub.vf	v2,v2,fa5,v0.t
   14590:	fe078713          	addi	a4,a5,-32
   14594:	9e903057          	vmv1r.v	v0,v9
   14598:	028703a7          	vs1r.v	v7,(a4)
   1459c:	ff078813          	addi	a6,a5,-16
   145a0:	00d58733          	add	a4,a1,a3
   145a4:	02880327          	vs1r.v	v6,(a6)
   145a8:	fc070813          	addi	a6,a4,-64
   145ac:	028802a7          	vs1r.v	v5,(a6)
   145b0:	0817d0d7          	vfsub.vf	v1,v1,fa5,v0.t
   145b4:	fd070813          	addi	a6,a4,-48
   145b8:	02880227          	vs1r.v	v4,(a6)
   145bc:	fe070813          	addi	a6,a4,-32
   145c0:	028801a7          	vs1r.v	v3,(a6)
   145c4:	ff070713          	addi	a4,a4,-16
   145c8:	02870127          	vs1r.v	v2,(a4)
   145cc:	04078793          	addi	a5,a5,64
   145d0:	028780a7          	vs1r.v	v1,(a5)
   145d4:	08068693          	addi	a3,a3,128
   145d8:	08060613          	addi	a2,a2,128
   145dc:	ed1696e3          	bne	a3,a7,144a8 <_Z19benchmark_ntt_unaryIN6nncase3ntt3ops5floorEfLm4EEvNSt7__cxx1112basic_stringIcSt11char_traitsIcESaIcEEET0_SA_+0x210>
   145e0:	fff30313          	addi	t1,t1,-1
   145e4:	ea031ee3          	bnez	t1,144a0 <_Z19benchmark_ntt_unaryIN6nncase3ntt3ops5floorEfLm4EEvNSt7__cxx1112basic_stringIcSt11char_traitsIcESaIcEEET0_SA_+0x208>
   145e8:	c0102973          	rdtime	s2
   145ec:	01300613          	li	a2,19
   145f0:	00003597          	auipc	a1,0x3
   145f4:	9f058593          	addi	a1,a1,-1552 # 16fe0 <_IO_stdin_used+0x140>
   145f8:	00006517          	auipc	a0,0x6
   145fc:	9f053503          	ld	a0,-1552(a0) # 19fe8 <_ZSt4cout@GLIBCXX_3.4>
   14600:	f60fc0ef          	jal	10d60 <_ZSt16__ostream_insertIcSt11char_traitsIcEERSt13basic_ostreamIT_T0_ES6_PKS3_l@plt>
   14604:	00100613          	li	a2,1
   14608:	00003597          	auipc	a1,0x3
   1460c:	9f058593          	addi	a1,a1,-1552 # 16ff8 <_IO_stdin_used+0x158>
   14610:	00006517          	auipc	a0,0x6
   14614:	9d853503          	ld	a0,-1576(a0) # 19fe8 <_ZSt4cout@GLIBCXX_3.4>
   14618:	f48fc0ef          	jal	10d60 <_ZSt16__ostream_insertIcSt11char_traitsIcEERSt13basic_ostreamIT_T0_ES6_PKS3_l@plt>
   1461c:	00843603          	ld	a2,8(s0)
   14620:	00043583          	ld	a1,0(s0)
   14624:	00006517          	auipc	a0,0x6
   14628:	9c453503          	ld	a0,-1596(a0) # 19fe8 <_ZSt4cout@GLIBCXX_3.4>
   1462c:	f34fc0ef          	jal	10d60 <_ZSt16__ostream_insertIcSt11char_traitsIcEERSt13basic_ostreamIT_T0_ES6_PKS3_l@plt>
   14630:	00003597          	auipc	a1,0x3
   14634:	9d058593          	addi	a1,a1,-1584 # 17000 <_IO_stdin_used+0x160>
   14638:	00600613          	li	a2,6
   1463c:	00050413          	mv	s0,a0
   14640:	f20fc0ef          	jal	10d60 <_ZSt16__ostream_insertIcSt11char_traitsIcEERSt13basic_ostreamIT_T0_ES6_PKS3_l@plt>
   14644:	64000793          	li	a5,1600
   14648:	02f907b3          	mul	a5,s2,a5
   1464c:	97b42737          	lui	a4,0x97b42
   14650:	5ed70713          	addi	a4,a4,1517 # ffffffff97b425ed <__global_pointer$+0xffffffff97b27d5d>
   14654:	097b46b7          	lui	a3,0x97b4
   14658:	25f68693          	addi	a3,a3,607 # 97b425f <__global_pointer$+0x97999cf>
   1465c:	02071713          	slli	a4,a4,0x20
   14660:	00d70733          	add	a4,a4,a3
   14664:	00003697          	auipc	a3,0x3
   14668:	8ac6a707          	flw	fa4,-1876(a3) # 16f10 <_IO_stdin_used+0x70>
   1466c:	00003697          	auipc	a3,0x3
   14670:	8a86a787          	flw	fa5,-1880(a3) # 16f14 <_IO_stdin_used+0x74>
   14674:	00043683          	ld	a3,0(s0)
   14678:	02e7b7b3          	mulhu	a5,a5,a4
   1467c:	00100613          	li	a2,1
   14680:	fe86b703          	ld	a4,-24(a3)
   14684:	00040513          	mv	a0,s0
   14688:	00e40733          	add	a4,s0,a4
   1468c:	00c73423          	sd	a2,8(a4)
   14690:	fe86b703          	ld	a4,-24(a3)
   14694:	0047d793          	srli	a5,a5,0x4
   14698:	409787b3          	sub	a5,a5,s1
   1469c:	d037f553          	fcvt.s.lu	fa0,a5
   146a0:	00e40433          	add	s0,s0,a4
   146a4:	01842783          	lw	a5,24(s0)
   146a8:	18e57553          	fdiv.s	fa0,fa0,fa4
   146ac:	efb7f793          	andi	a5,a5,-261
   146b0:	0047e793          	ori	a5,a5,4
   146b4:	00f42c23          	sw	a5,24(s0)
   146b8:	18f57553          	fdiv.s	fa0,fa0,fa5
   146bc:	42050553          	fcvt.d.s	fa0,fa0
   146c0:	f00fc0ef          	jal	10dc0 <_ZNSo9_M_insertIdEERSoT_@plt>
   146c4:	00700613          	li	a2,7
   146c8:	00003597          	auipc	a1,0x3
   146cc:	94058593          	addi	a1,a1,-1728 # 17008 <_IO_stdin_used+0x168>
   146d0:	00050493          	mv	s1,a0
   146d4:	e8cfc0ef          	jal	10d60 <_ZSt16__ostream_insertIcSt11char_traitsIcEERSt13basic_ostreamIT_T0_ES6_PKS3_l@plt>
   146d8:	0004b783          	ld	a5,0(s1)
   146dc:	fe87b783          	ld	a5,-24(a5)
   146e0:	00f487b3          	add	a5,s1,a5
   146e4:	0f07b403          	ld	s0,240(a5)
   146e8:	06040663          	beqz	s0,14754 <_Z19benchmark_ntt_unaryIN6nncase3ntt3ops5floorEfLm4EEvNSt7__cxx1112basic_stringIcSt11char_traitsIcESaIcEEET0_SA_+0x4bc>
   146ec:	03844783          	lbu	a5,56(s0)
   146f0:	02078a63          	beqz	a5,14724 <_Z19benchmark_ntt_unaryIN6nncase3ntt3ops5floorEfLm4EEvNSt7__cxx1112basic_stringIcSt11char_traitsIcESaIcEEET0_SA_+0x48c>
   146f4:	04344583          	lbu	a1,67(s0)
   146f8:	00048513          	mv	a0,s1
   146fc:	dd4fc0ef          	jal	10cd0 <_ZNSo3putEc@plt>
   14700:	000042b7          	lui	t0,0x4
   14704:	36028293          	addi	t0,t0,864 # 4360 <__abi_tag-0xbf34>
   14708:	00510133          	add	sp,sp,t0
   1470c:	7e813083          	ld	ra,2024(sp)
   14710:	7e013403          	ld	s0,2016(sp)
   14714:	7d813483          	ld	s1,2008(sp)
   14718:	7d013903          	ld	s2,2000(sp)
   1471c:	7f010113          	addi	sp,sp,2032
   14720:	de0fc06f          	j	10d00 <_ZNSo5flushEv@plt>
   14724:	00040513          	mv	a0,s0
   14728:	e48fc0ef          	jal	10d70 <_ZNKSt5ctypeIcE13_M_widen_initEv@plt>
   1472c:	00043783          	ld	a5,0(s0)
   14730:	ffffd717          	auipc	a4,0xffffd
   14734:	bfc70713          	addi	a4,a4,-1028 # 1132c <_ZNKSt5ctypeIcE8do_widenEc>
   14738:	00a00593          	li	a1,10
   1473c:	0307b783          	ld	a5,48(a5)
   14740:	fae78ce3          	beq	a5,a4,146f8 <_Z19benchmark_ntt_unaryIN6nncase3ntt3ops5floorEfLm4EEvNSt7__cxx1112basic_stringIcSt11char_traitsIcESaIcEEET0_SA_+0x460>
   14744:	00040513          	mv	a0,s0
   14748:	000780e7          	jalr	a5
   1474c:	00050593          	mv	a1,a0
   14750:	fa9ff06f          	j	146f8 <_Z19benchmark_ntt_unaryIN6nncase3ntt3ops5floorEfLm4EEvNSt7__cxx1112basic_stringIcSt11char_traitsIcESaIcEEET0_SA_+0x460>
   14754:	e2cfc0ef          	jal	10d80 <_ZSt16__throw_bad_castv@plt>

0000000000014758 <_Z19benchmark_ntt_unaryIN6nncase3ntt3ops4signEfLm4EEvNSt7__cxx1112basic_stringIcSt11char_traitsIcESaIcEEET0_SA_>:
   14758:	ffffc2b7          	lui	t0,0xffffc
   1475c:	81010113          	addi	sp,sp,-2032
   14760:	ca028293          	addi	t0,t0,-864 # ffffffffffffbca0 <__global_pointer$+0xfffffffffffe1410>
   14764:	7e813023          	sd	s0,2016(sp)
   14768:	7c913c23          	sd	s1,2008(sp)
   1476c:	7d213823          	sd	s2,2000(sp)
   14770:	7e113423          	sd	ra,2024(sp)
   14774:	000027b7          	lui	a5,0x2
   14778:	00510133          	add	sp,sp,t0
   1477c:	01010493          	addi	s1,sp,16
   14780:	58078793          	addi	a5,a5,1408 # 2580 <__abi_tag-0xdd14>
   14784:	00050413          	mv	s0,a0
   14788:	00f48933          	add	s2,s1,a5
   1478c:	00048513          	mv	a0,s1
   14790:	00b12627          	fsw	fa1,12(sp)
   14794:	00a12427          	fsw	fa0,8(sp)
   14798:	01048493          	addi	s1,s1,16
   1479c:	f99fc0ef          	jal	11734 <_ZN6nncase7NttTest11init_tensorIfNS_3ntt12basic_vectorIfJLm4EEEEEEvRT0_T_S7_>
   147a0:	00812507          	flw	fa0,8(sp)
   147a4:	00c12587          	flw	fa1,12(sp)
   147a8:	fe9912e3          	bne	s2,s1,1478c <_Z19benchmark_ntt_unaryIN6nncase3ntt3ops4signEfLm4EEvNSt7__cxx1112basic_stringIcSt11char_traitsIcESaIcEEET0_SA_+0x34>
   147ac:	000028b7          	lui	a7,0x2
   147b0:	5a088793          	addi	a5,a7,1440 # 25a0 <__abi_tag-0xdcf4>
   147b4:	cd027057          	vsetivli	zero,4,e32,m1,ta,ma
   147b8:	002785b3          	add	a1,a5,sp
   147bc:	5e0030d7          	vmv.v.i	v1,0
   147c0:	00002797          	auipc	a5,0x2
   147c4:	6fc7a687          	flw	fa3,1788(a5) # 16ebc <_IO_stdin_used+0x1c>
   147c8:	00002797          	auipc	a5,0x2
   147cc:	7507a707          	flw	fa4,1872(a5) # 16f18 <_IO_stdin_used+0x78>
   147d0:	f00007d3          	fmv.w.x	fa5,zero
   147d4:	01010513          	addi	a0,sp,16
   147d8:	5f088893          	addi	a7,a7,1520
   147dc:	12c00313          	li	t1,300
   147e0:	07000693          	li	a3,112
   147e4:	03000613          	li	a2,48
   147e8:	00c507b3          	add	a5,a0,a2
   147ec:	fd078713          	addi	a4,a5,-48
   147f0:	02876487          	vl1re32.v	v9,(a4)
   147f4:	fe078713          	addi	a4,a5,-32
   147f8:	02876407          	vl1re32.v	v8,(a4)
   147fc:	ff078813          	addi	a6,a5,-16
   14800:	02886387          	vl1re32.v	v7,(a6)
   14804:	00d50733          	add	a4,a0,a3
   14808:	7697d057          	vmfgt.vf	v0,v9,fa5
   1480c:	fc070813          	addi	a6,a4,-64
   14810:	7687d5d7          	vmfgt.vf	v11,v8,fa5
   14814:	02886307          	vl1re32.v	v6,(a6)
   14818:	7677d557          	vmfgt.vf	v10,v7,fa5
   1481c:	5c16d657          	vfmerge.vfm	v12,v1,fa3,v0
   14820:	9eb03057          	vmv1r.v	v0,v11
   14824:	6e97d4d7          	vmflt.vf	v9,v9,fa5
   14828:	fd070813          	addi	a6,a4,-48
   1482c:	5c16d5d7          	vfmerge.vfm	v11,v1,fa3,v0
   14830:	9ea03057          	vmv1r.v	v0,v10
   14834:	02886287          	vl1re32.v	v5,(a6)
   14838:	7667d757          	vmfgt.vf	v14,v6,fa5
   1483c:	5c16d557          	vfmerge.vfm	v10,v1,fa3,v0
   14840:	9e903057          	vmv1r.v	v0,v9
   14844:	6e87d457          	vmflt.vf	v8,v8,fa5
   14848:	fe070813          	addi	a6,a4,-32
   1484c:	5cc75657          	vfmerge.vfm	v12,v12,fa4,v0
   14850:	9ee03057          	vmv1r.v	v0,v14
   14854:	02886207          	vl1re32.v	v4,(a6)
   14858:	7657d6d7          	vmfgt.vf	v13,v5,fa5
   1485c:	5c16d4d7          	vfmerge.vfm	v9,v1,fa3,v0
   14860:	9e803057          	vmv1r.v	v0,v8
   14864:	6e77d3d7          	vmflt.vf	v7,v7,fa5
   14868:	ff070713          	addi	a4,a4,-16
   1486c:	5cb755d7          	vfmerge.vfm	v11,v11,fa4,v0
   14870:	9ed03057          	vmv1r.v	v0,v13
   14874:	02876187          	vl1re32.v	v3,(a4)
   14878:	7647d7d7          	vmfgt.vf	v15,v4,fa5
   1487c:	5c16d457          	vfmerge.vfm	v8,v1,fa3,v0
   14880:	9e703057          	vmv1r.v	v0,v7
   14884:	6e67d357          	vmflt.vf	v6,v6,fa5
   14888:	04078793          	addi	a5,a5,64
   1488c:	5ca75557          	vfmerge.vfm	v10,v10,fa4,v0
   14890:	9ef03057          	vmv1r.v	v0,v15
   14894:	0287e107          	vl1re32.v	v2,(a5)
   14898:	7637d757          	vmfgt.vf	v14,v3,fa5
   1489c:	5c16d3d7          	vfmerge.vfm	v7,v1,fa3,v0
   148a0:	9e603057          	vmv1r.v	v0,v6
   148a4:	6e57d2d7          	vmflt.vf	v5,v5,fa5
   148a8:	6e47d257          	vmflt.vf	v4,v4,fa5
   148ac:	5c9754d7          	vfmerge.vfm	v9,v9,fa4,v0
   148b0:	9ee03057          	vmv1r.v	v0,v14
   148b4:	7627d6d7          	vmfgt.vf	v13,v2,fa5
   148b8:	6e37d1d7          	vmflt.vf	v3,v3,fa5
   148bc:	5c16d357          	vfmerge.vfm	v6,v1,fa3,v0
   148c0:	9e503057          	vmv1r.v	v0,v5
   148c4:	00c587b3          	add	a5,a1,a2
   148c8:	6e27d157          	vmflt.vf	v2,v2,fa5
   148cc:	5c875457          	vfmerge.vfm	v8,v8,fa4,v0
   148d0:	9ed03057          	vmv1r.v	v0,v13
   148d4:	fd078713          	addi	a4,a5,-48
   148d8:	02870627          	vs1r.v	v12,(a4)
   148dc:	5c16d2d7          	vfmerge.vfm	v5,v1,fa3,v0
   148e0:	9e403057          	vmv1r.v	v0,v4
   148e4:	fe078713          	addi	a4,a5,-32
   148e8:	028705a7          	vs1r.v	v11,(a4)
   148ec:	5c7753d7          	vfmerge.vfm	v7,v7,fa4,v0
   148f0:	9e303057          	vmv1r.v	v0,v3
   148f4:	00d58733          	add	a4,a1,a3
   148f8:	ff078813          	addi	a6,a5,-16
   148fc:	5c675357          	vfmerge.vfm	v6,v6,fa4,v0
   14900:	9e203057          	vmv1r.v	v0,v2
   14904:	02880527          	vs1r.v	v10,(a6)
   14908:	fc070813          	addi	a6,a4,-64
   1490c:	028804a7          	vs1r.v	v9,(a6)
   14910:	fd070813          	addi	a6,a4,-48
   14914:	02880427          	vs1r.v	v8,(a6)
   14918:	5c5752d7          	vfmerge.vfm	v5,v5,fa4,v0
   1491c:	fe070813          	addi	a6,a4,-32
   14920:	028803a7          	vs1r.v	v7,(a6)
   14924:	ff070713          	addi	a4,a4,-16
   14928:	02870327          	vs1r.v	v6,(a4)
   1492c:	04078793          	addi	a5,a5,64
   14930:	028782a7          	vs1r.v	v5,(a5)
   14934:	08068693          	addi	a3,a3,128
   14938:	08060613          	addi	a2,a2,128
   1493c:	eb1696e3          	bne	a3,a7,147e8 <_Z19benchmark_ntt_unaryIN6nncase3ntt3ops4signEfLm4EEvNSt7__cxx1112basic_stringIcSt11char_traitsIcESaIcEEET0_SA_+0x90>
   14940:	fff30313          	addi	t1,t1,-1
   14944:	e8031ee3          	bnez	t1,147e0 <_Z19benchmark_ntt_unaryIN6nncase3ntt3ops4signEfLm4EEvNSt7__cxx1112basic_stringIcSt11char_traitsIcESaIcEEET0_SA_+0x88>
   14948:	c01024f3          	rdtime	s1
   1494c:	64000793          	li	a5,1600
   14950:	02f484b3          	mul	s1,s1,a5
   14954:	97b427b7          	lui	a5,0x97b42
   14958:	5ed78793          	addi	a5,a5,1517 # ffffffff97b425ed <__global_pointer$+0xffffffff97b27d5d>
   1495c:	097b4737          	lui	a4,0x97b4
   14960:	02079793          	slli	a5,a5,0x20
   14964:	25f70713          	addi	a4,a4,607 # 97b425f <__global_pointer$+0x97999cf>
   14968:	00e787b3          	add	a5,a5,a4
   1496c:	000028b7          	lui	a7,0x2
   14970:	f00007d3          	fmv.w.x	fa5,zero
   14974:	01010513          	addi	a0,sp,16
   14978:	02f4b4b3          	mulhu	s1,s1,a5
   1497c:	5a088793          	addi	a5,a7,1440 # 25a0 <__abi_tag-0xdcf4>
   14980:	002785b3          	add	a1,a5,sp
   14984:	5f088893          	addi	a7,a7,1520
   14988:	12c00313          	li	t1,300
   1498c:	cd027057          	vsetivli	zero,4,e32,m1,ta,ma
   14990:	0044d493          	srli	s1,s1,0x4
   14994:	07000693          	li	a3,112
   14998:	03000613          	li	a2,48
   1499c:	00c507b3          	add	a5,a0,a2
   149a0:	fd078713          	addi	a4,a5,-48
   149a4:	02876487          	vl1re32.v	v9,(a4)
   149a8:	fe078713          	addi	a4,a5,-32
   149ac:	02876407          	vl1re32.v	v8,(a4)
   149b0:	ff078813          	addi	a6,a5,-16
   149b4:	02886387          	vl1re32.v	v7,(a6)
   149b8:	00d50733          	add	a4,a0,a3
   149bc:	7697d057          	vmfgt.vf	v0,v9,fa5
   149c0:	fc070813          	addi	a6,a4,-64
   149c4:	7687d5d7          	vmfgt.vf	v11,v8,fa5
   149c8:	02886307          	vl1re32.v	v6,(a6)
   149cc:	7677d557          	vmfgt.vf	v10,v7,fa5
   149d0:	5c16d657          	vfmerge.vfm	v12,v1,fa3,v0
   149d4:	9eb03057          	vmv1r.v	v0,v11
   149d8:	6e97d4d7          	vmflt.vf	v9,v9,fa5
   149dc:	fd070813          	addi	a6,a4,-48
   149e0:	5c16d5d7          	vfmerge.vfm	v11,v1,fa3,v0
   149e4:	9ea03057          	vmv1r.v	v0,v10
   149e8:	02886287          	vl1re32.v	v5,(a6)
   149ec:	7667d757          	vmfgt.vf	v14,v6,fa5
   149f0:	5c16d557          	vfmerge.vfm	v10,v1,fa3,v0
   149f4:	9e903057          	vmv1r.v	v0,v9
   149f8:	6e87d457          	vmflt.vf	v8,v8,fa5
   149fc:	fe070813          	addi	a6,a4,-32
   14a00:	5cc75657          	vfmerge.vfm	v12,v12,fa4,v0
   14a04:	9ee03057          	vmv1r.v	v0,v14
   14a08:	02886207          	vl1re32.v	v4,(a6)
   14a0c:	7657d6d7          	vmfgt.vf	v13,v5,fa5
   14a10:	5c16d4d7          	vfmerge.vfm	v9,v1,fa3,v0
   14a14:	9e803057          	vmv1r.v	v0,v8
   14a18:	6e77d3d7          	vmflt.vf	v7,v7,fa5
   14a1c:	ff070713          	addi	a4,a4,-16
   14a20:	5cb755d7          	vfmerge.vfm	v11,v11,fa4,v0
   14a24:	9ed03057          	vmv1r.v	v0,v13
   14a28:	02876187          	vl1re32.v	v3,(a4)
   14a2c:	7647d7d7          	vmfgt.vf	v15,v4,fa5
   14a30:	5c16d457          	vfmerge.vfm	v8,v1,fa3,v0
   14a34:	9e703057          	vmv1r.v	v0,v7
   14a38:	6e67d357          	vmflt.vf	v6,v6,fa5
   14a3c:	04078793          	addi	a5,a5,64
   14a40:	5ca75557          	vfmerge.vfm	v10,v10,fa4,v0
   14a44:	9ef03057          	vmv1r.v	v0,v15
   14a48:	0287e107          	vl1re32.v	v2,(a5)
   14a4c:	7637d757          	vmfgt.vf	v14,v3,fa5
   14a50:	5c16d3d7          	vfmerge.vfm	v7,v1,fa3,v0
   14a54:	9e603057          	vmv1r.v	v0,v6
   14a58:	6e57d2d7          	vmflt.vf	v5,v5,fa5
   14a5c:	6e47d257          	vmflt.vf	v4,v4,fa5
   14a60:	5c9754d7          	vfmerge.vfm	v9,v9,fa4,v0
   14a64:	9ee03057          	vmv1r.v	v0,v14
   14a68:	7627d6d7          	vmfgt.vf	v13,v2,fa5
   14a6c:	6e37d1d7          	vmflt.vf	v3,v3,fa5
   14a70:	5c16d357          	vfmerge.vfm	v6,v1,fa3,v0
   14a74:	9e503057          	vmv1r.v	v0,v5
   14a78:	00c587b3          	add	a5,a1,a2
   14a7c:	6e27d157          	vmflt.vf	v2,v2,fa5
   14a80:	5c875457          	vfmerge.vfm	v8,v8,fa4,v0
   14a84:	9ed03057          	vmv1r.v	v0,v13
   14a88:	fd078713          	addi	a4,a5,-48
   14a8c:	02870627          	vs1r.v	v12,(a4)
   14a90:	5c16d2d7          	vfmerge.vfm	v5,v1,fa3,v0
   14a94:	9e403057          	vmv1r.v	v0,v4
   14a98:	fe078713          	addi	a4,a5,-32
   14a9c:	028705a7          	vs1r.v	v11,(a4)
   14aa0:	5c7753d7          	vfmerge.vfm	v7,v7,fa4,v0
   14aa4:	9e303057          	vmv1r.v	v0,v3
   14aa8:	00d58733          	add	a4,a1,a3
   14aac:	ff078813          	addi	a6,a5,-16
   14ab0:	5c675357          	vfmerge.vfm	v6,v6,fa4,v0
   14ab4:	9e203057          	vmv1r.v	v0,v2
   14ab8:	02880527          	vs1r.v	v10,(a6)
   14abc:	fc070813          	addi	a6,a4,-64
   14ac0:	028804a7          	vs1r.v	v9,(a6)
   14ac4:	fd070813          	addi	a6,a4,-48
   14ac8:	02880427          	vs1r.v	v8,(a6)
   14acc:	5c5752d7          	vfmerge.vfm	v5,v5,fa4,v0
   14ad0:	fe070813          	addi	a6,a4,-32
   14ad4:	028803a7          	vs1r.v	v7,(a6)
   14ad8:	ff070713          	addi	a4,a4,-16
   14adc:	02870327          	vs1r.v	v6,(a4)
   14ae0:	04078793          	addi	a5,a5,64
   14ae4:	028782a7          	vs1r.v	v5,(a5)
   14ae8:	08068693          	addi	a3,a3,128
   14aec:	08060613          	addi	a2,a2,128
   14af0:	eb1696e3          	bne	a3,a7,1499c <_Z19benchmark_ntt_unaryIN6nncase3ntt3ops4signEfLm4EEvNSt7__cxx1112basic_stringIcSt11char_traitsIcESaIcEEET0_SA_+0x244>
   14af4:	fff30313          	addi	t1,t1,-1
   14af8:	e8031ee3          	bnez	t1,14994 <_Z19benchmark_ntt_unaryIN6nncase3ntt3ops4signEfLm4EEvNSt7__cxx1112basic_stringIcSt11char_traitsIcESaIcEEET0_SA_+0x23c>
   14afc:	c0102973          	rdtime	s2
   14b00:	01300613          	li	a2,19
   14b04:	00002597          	auipc	a1,0x2
   14b08:	4dc58593          	addi	a1,a1,1244 # 16fe0 <_IO_stdin_used+0x140>
   14b0c:	00005517          	auipc	a0,0x5
   14b10:	4dc53503          	ld	a0,1244(a0) # 19fe8 <_ZSt4cout@GLIBCXX_3.4>
   14b14:	a4cfc0ef          	jal	10d60 <_ZSt16__ostream_insertIcSt11char_traitsIcEERSt13basic_ostreamIT_T0_ES6_PKS3_l@plt>
   14b18:	00100613          	li	a2,1
   14b1c:	00002597          	auipc	a1,0x2
   14b20:	4dc58593          	addi	a1,a1,1244 # 16ff8 <_IO_stdin_used+0x158>
   14b24:	00005517          	auipc	a0,0x5
   14b28:	4c453503          	ld	a0,1220(a0) # 19fe8 <_ZSt4cout@GLIBCXX_3.4>
   14b2c:	a34fc0ef          	jal	10d60 <_ZSt16__ostream_insertIcSt11char_traitsIcEERSt13basic_ostreamIT_T0_ES6_PKS3_l@plt>
   14b30:	00843603          	ld	a2,8(s0)
   14b34:	00043583          	ld	a1,0(s0)
   14b38:	00005517          	auipc	a0,0x5
   14b3c:	4b053503          	ld	a0,1200(a0) # 19fe8 <_ZSt4cout@GLIBCXX_3.4>
   14b40:	a20fc0ef          	jal	10d60 <_ZSt16__ostream_insertIcSt11char_traitsIcEERSt13basic_ostreamIT_T0_ES6_PKS3_l@plt>
   14b44:	00002597          	auipc	a1,0x2
   14b48:	4bc58593          	addi	a1,a1,1212 # 17000 <_IO_stdin_used+0x160>
   14b4c:	00600613          	li	a2,6
   14b50:	00050413          	mv	s0,a0
   14b54:	a0cfc0ef          	jal	10d60 <_ZSt16__ostream_insertIcSt11char_traitsIcEERSt13basic_ostreamIT_T0_ES6_PKS3_l@plt>
   14b58:	64000793          	li	a5,1600
   14b5c:	02f907b3          	mul	a5,s2,a5
   14b60:	97b42737          	lui	a4,0x97b42
   14b64:	5ed70713          	addi	a4,a4,1517 # ffffffff97b425ed <__global_pointer$+0xffffffff97b27d5d>
   14b68:	097b46b7          	lui	a3,0x97b4
   14b6c:	25f68693          	addi	a3,a3,607 # 97b425f <__global_pointer$+0x97999cf>
   14b70:	02071713          	slli	a4,a4,0x20
   14b74:	00d70733          	add	a4,a4,a3
   14b78:	00002697          	auipc	a3,0x2
   14b7c:	3986a707          	flw	fa4,920(a3) # 16f10 <_IO_stdin_used+0x70>
   14b80:	00002697          	auipc	a3,0x2
   14b84:	3946a787          	flw	fa5,916(a3) # 16f14 <_IO_stdin_used+0x74>
   14b88:	00043683          	ld	a3,0(s0)
   14b8c:	02e7b7b3          	mulhu	a5,a5,a4
   14b90:	00100613          	li	a2,1
   14b94:	fe86b703          	ld	a4,-24(a3)
   14b98:	00040513          	mv	a0,s0
   14b9c:	00e40733          	add	a4,s0,a4
   14ba0:	00c73423          	sd	a2,8(a4)
   14ba4:	fe86b703          	ld	a4,-24(a3)
   14ba8:	0047d793          	srli	a5,a5,0x4
   14bac:	409787b3          	sub	a5,a5,s1
   14bb0:	d037f553          	fcvt.s.lu	fa0,a5
   14bb4:	00e40433          	add	s0,s0,a4
   14bb8:	01842783          	lw	a5,24(s0)
   14bbc:	18e57553          	fdiv.s	fa0,fa0,fa4
   14bc0:	efb7f793          	andi	a5,a5,-261
   14bc4:	0047e793          	ori	a5,a5,4
   14bc8:	00f42c23          	sw	a5,24(s0)
   14bcc:	18f57553          	fdiv.s	fa0,fa0,fa5
   14bd0:	42050553          	fcvt.d.s	fa0,fa0
   14bd4:	9ecfc0ef          	jal	10dc0 <_ZNSo9_M_insertIdEERSoT_@plt>
   14bd8:	00700613          	li	a2,7
   14bdc:	00002597          	auipc	a1,0x2
   14be0:	42c58593          	addi	a1,a1,1068 # 17008 <_IO_stdin_used+0x168>
   14be4:	00050493          	mv	s1,a0
   14be8:	978fc0ef          	jal	10d60 <_ZSt16__ostream_insertIcSt11char_traitsIcEERSt13basic_ostreamIT_T0_ES6_PKS3_l@plt>
   14bec:	0004b783          	ld	a5,0(s1)
   14bf0:	fe87b783          	ld	a5,-24(a5)
   14bf4:	00f487b3          	add	a5,s1,a5
   14bf8:	0f07b403          	ld	s0,240(a5)
   14bfc:	06040663          	beqz	s0,14c68 <_Z19benchmark_ntt_unaryIN6nncase3ntt3ops4signEfLm4EEvNSt7__cxx1112basic_stringIcSt11char_traitsIcESaIcEEET0_SA_+0x510>
   14c00:	03844783          	lbu	a5,56(s0)
   14c04:	02078a63          	beqz	a5,14c38 <_Z19benchmark_ntt_unaryIN6nncase3ntt3ops4signEfLm4EEvNSt7__cxx1112basic_stringIcSt11char_traitsIcESaIcEEET0_SA_+0x4e0>
   14c08:	04344583          	lbu	a1,67(s0)
   14c0c:	00048513          	mv	a0,s1
   14c10:	8c0fc0ef          	jal	10cd0 <_ZNSo3putEc@plt>
   14c14:	000042b7          	lui	t0,0x4
   14c18:	36028293          	addi	t0,t0,864 # 4360 <__abi_tag-0xbf34>
   14c1c:	00510133          	add	sp,sp,t0
   14c20:	7e813083          	ld	ra,2024(sp)
   14c24:	7e013403          	ld	s0,2016(sp)
   14c28:	7d813483          	ld	s1,2008(sp)
   14c2c:	7d013903          	ld	s2,2000(sp)
   14c30:	7f010113          	addi	sp,sp,2032
   14c34:	8ccfc06f          	j	10d00 <_ZNSo5flushEv@plt>
   14c38:	00040513          	mv	a0,s0
   14c3c:	934fc0ef          	jal	10d70 <_ZNKSt5ctypeIcE13_M_widen_initEv@plt>
   14c40:	00043783          	ld	a5,0(s0)
   14c44:	ffffc717          	auipc	a4,0xffffc
   14c48:	6e870713          	addi	a4,a4,1768 # 1132c <_ZNKSt5ctypeIcE8do_widenEc>
   14c4c:	00a00593          	li	a1,10
   14c50:	0307b783          	ld	a5,48(a5)
   14c54:	fae78ce3          	beq	a5,a4,14c0c <_Z19benchmark_ntt_unaryIN6nncase3ntt3ops4signEfLm4EEvNSt7__cxx1112basic_stringIcSt11char_traitsIcESaIcEEET0_SA_+0x4b4>
   14c58:	00040513          	mv	a0,s0
   14c5c:	000780e7          	jalr	a5
   14c60:	00050593          	mv	a1,a0
   14c64:	fa9ff06f          	j	14c0c <_Z19benchmark_ntt_unaryIN6nncase3ntt3ops4signEfLm4EEvNSt7__cxx1112basic_stringIcSt11char_traitsIcESaIcEEET0_SA_+0x4b4>
   14c68:	918fc0ef          	jal	10d80 <_ZSt16__throw_bad_castv@plt>

0000000000014c6c <_Z19benchmark_ntt_unaryIN6nncase3ntt3ops5rsqrtEfLm4EEvNSt7__cxx1112basic_stringIcSt11char_traitsIcESaIcEEET0_SA_>:
   14c6c:	81010113          	addi	sp,sp,-2032
   14c70:	ffffc2b7          	lui	t0,0xffffc
   14c74:	7c813427          	fsd	fs0,1992(sp)
   14c78:	7c913027          	fsd	fs1,1984(sp)
   14c7c:	ca028293          	addi	t0,t0,-864 # ffffffffffffbca0 <__global_pointer$+0xfffffffffffe1410>
   14c80:	000027b7          	lui	a5,0x2
   14c84:	20a504d3          	fmv.s	fs1,fa0
   14c88:	20b58453          	fmv.s	fs0,fa1
   14c8c:	7e813023          	sd	s0,2016(sp)
   14c90:	7c913c23          	sd	s1,2008(sp)
   14c94:	7d213823          	sd	s2,2000(sp)
   14c98:	7e113423          	sd	ra,2024(sp)
   14c9c:	58078793          	addi	a5,a5,1408 # 2580 <__abi_tag-0xdd14>
   14ca0:	00510133          	add	sp,sp,t0
   14ca4:	00010493          	mv	s1,sp
   14ca8:	00050413          	mv	s0,a0
   14cac:	00f10933          	add	s2,sp,a5
   14cb0:	208405d3          	fmv.s	fa1,fs0
   14cb4:	20948553          	fmv.s	fa0,fs1
   14cb8:	00048513          	mv	a0,s1
   14cbc:	01048493          	addi	s1,s1,16
   14cc0:	a75fc0ef          	jal	11734 <_ZN6nncase7NttTest11init_tensorIfNS_3ntt12basic_vectorIfJLm4EEEEEEvRT0_T_S7_>
   14cc4:	ff2496e3          	bne	s1,s2,14cb0 <_Z19benchmark_ntt_unaryIN6nncase3ntt3ops5rsqrtEfLm4EEvNSt7__cxx1112basic_stringIcSt11char_traitsIcESaIcEEET0_SA_+0x44>
   14cc8:	00002797          	auipc	a5,0x2
   14ccc:	2547a707          	flw	fa4,596(a5) # 16f1c <_IO_stdin_used+0x7c>
   14cd0:	cd027057          	vsetivli	zero,4,e32,m1,ta,ma
   14cd4:	000027b7          	lui	a5,0x2
   14cd8:	58078793          	addi	a5,a5,1408 # 2580 <__abi_tag-0xdd14>
   14cdc:	00f10633          	add	a2,sp,a5
   14ce0:	5e075257          	vfmv.v.f	v4,fa4
   14ce4:	00002797          	auipc	a5,0x2
   14ce8:	23c7a787          	flw	fa5,572(a5) # 16f20 <_IO_stdin_used+0x80>
   14cec:	5f3766b7          	lui	a3,0x5f376
   14cf0:	a866869b          	addiw	a3,a3,-1402 # 5f375a86 <__global_pointer$+0x5f35b1f6>
   14cf4:	12c00593          	li	a1,300
   14cf8:	000027b7          	lui	a5,0x2
   14cfc:	59078793          	addi	a5,a5,1424 # 2590 <__abi_tag-0xdd04>
   14d00:	00f10733          	add	a4,sp,a5
   14d04:	00010793          	mv	a5,sp
   14d08:	0287e107          	vl1re32.v	v2,(a5)
   14d0c:	01078793          	addi	a5,a5,16
   14d10:	a220b1d7          	vsrl.vi	v3,v2,1
   14d14:	9227d157          	vfmul.vf	v2,v2,fa5
   14d18:	0e36c1d7          	vrsub.vx	v3,v3,a3
   14d1c:	923190d7          	vfmul.vv	v1,v3,v3
   14d20:	a24110d7          	vfmadd.vv	v1,v2,v4
   14d24:	921190d7          	vfmul.vv	v1,v1,v3
   14d28:	921091d7          	vfmul.vv	v3,v1,v1
   14d2c:	a24111d7          	vfmadd.vv	v3,v2,v4
   14d30:	921190d7          	vfmul.vv	v1,v1,v3
   14d34:	921091d7          	vfmul.vv	v3,v1,v1
   14d38:	a24111d7          	vfmadd.vv	v3,v2,v4
   14d3c:	921190d7          	vfmul.vv	v1,v1,v3
   14d40:	921091d7          	vfmul.vv	v3,v1,v1
   14d44:	a24111d7          	vfmadd.vv	v3,v2,v4
   14d48:	921190d7          	vfmul.vv	v1,v1,v3
   14d4c:	028700a7          	vs1r.v	v1,(a4)
   14d50:	01070713          	addi	a4,a4,16
   14d54:	fac79ae3          	bne	a5,a2,14d08 <_Z19benchmark_ntt_unaryIN6nncase3ntt3ops5rsqrtEfLm4EEvNSt7__cxx1112basic_stringIcSt11char_traitsIcESaIcEEET0_SA_+0x9c>
   14d58:	fff58593          	addi	a1,a1,-1
   14d5c:	f8059ee3          	bnez	a1,14cf8 <_Z19benchmark_ntt_unaryIN6nncase3ntt3ops5rsqrtEfLm4EEvNSt7__cxx1112basic_stringIcSt11char_traitsIcESaIcEEET0_SA_+0x8c>
   14d60:	c0102973          	rdtime	s2
   14d64:	64000793          	li	a5,1600
   14d68:	02f90933          	mul	s2,s2,a5
   14d6c:	97b427b7          	lui	a5,0x97b42
   14d70:	5ed78793          	addi	a5,a5,1517 # ffffffff97b425ed <__global_pointer$+0xffffffff97b27d5d>
   14d74:	097b4737          	lui	a4,0x97b4
   14d78:	25f70713          	addi	a4,a4,607 # 97b425f <__global_pointer$+0x97999cf>
   14d7c:	02079793          	slli	a5,a5,0x20
   14d80:	00e787b3          	add	a5,a5,a4
   14d84:	cd027057          	vsetivli	zero,4,e32,m1,ta,ma
   14d88:	00002737          	lui	a4,0x2
   14d8c:	5e075257          	vfmv.v.f	v4,fa4
   14d90:	02f93933          	mulhu	s2,s2,a5
   14d94:	5f3766b7          	lui	a3,0x5f376
   14d98:	58070793          	addi	a5,a4,1408 # 2580 <__abi_tag-0xdd14>
   14d9c:	00f10633          	add	a2,sp,a5
   14da0:	a866869b          	addiw	a3,a3,-1402 # 5f375a86 <__global_pointer$+0x5f35b1f6>
   14da4:	12c00593          	li	a1,300
   14da8:	00495913          	srli	s2,s2,0x4
   14dac:	000027b7          	lui	a5,0x2
   14db0:	59078793          	addi	a5,a5,1424 # 2590 <__abi_tag-0xdd04>
   14db4:	00f10733          	add	a4,sp,a5
   14db8:	00010793          	mv	a5,sp
   14dbc:	0287e107          	vl1re32.v	v2,(a5)
   14dc0:	01078793          	addi	a5,a5,16
   14dc4:	a220b1d7          	vsrl.vi	v3,v2,1
   14dc8:	9227d157          	vfmul.vf	v2,v2,fa5
   14dcc:	0e36c1d7          	vrsub.vx	v3,v3,a3
   14dd0:	923190d7          	vfmul.vv	v1,v3,v3
   14dd4:	a24110d7          	vfmadd.vv	v1,v2,v4
   14dd8:	921190d7          	vfmul.vv	v1,v1,v3
   14ddc:	921091d7          	vfmul.vv	v3,v1,v1
   14de0:	a24111d7          	vfmadd.vv	v3,v2,v4
   14de4:	921190d7          	vfmul.vv	v1,v1,v3
   14de8:	921091d7          	vfmul.vv	v3,v1,v1
   14dec:	a24111d7          	vfmadd.vv	v3,v2,v4
   14df0:	921190d7          	vfmul.vv	v1,v1,v3
   14df4:	921091d7          	vfmul.vv	v3,v1,v1
   14df8:	a24111d7          	vfmadd.vv	v3,v2,v4
   14dfc:	921190d7          	vfmul.vv	v1,v1,v3
   14e00:	028700a7          	vs1r.v	v1,(a4)
   14e04:	01070713          	addi	a4,a4,16
   14e08:	fac79ae3          	bne	a5,a2,14dbc <_Z19benchmark_ntt_unaryIN6nncase3ntt3ops5rsqrtEfLm4EEvNSt7__cxx1112basic_stringIcSt11char_traitsIcESaIcEEET0_SA_+0x150>
   14e0c:	fff58593          	addi	a1,a1,-1
   14e10:	f8059ee3          	bnez	a1,14dac <_Z19benchmark_ntt_unaryIN6nncase3ntt3ops5rsqrtEfLm4EEvNSt7__cxx1112basic_stringIcSt11char_traitsIcESaIcEEET0_SA_+0x140>
   14e14:	c01024f3          	rdtime	s1
   14e18:	01300613          	li	a2,19
   14e1c:	00002597          	auipc	a1,0x2
   14e20:	1c458593          	addi	a1,a1,452 # 16fe0 <_IO_stdin_used+0x140>
   14e24:	00005517          	auipc	a0,0x5
   14e28:	1c453503          	ld	a0,452(a0) # 19fe8 <_ZSt4cout@GLIBCXX_3.4>
   14e2c:	f35fb0ef          	jal	10d60 <_ZSt16__ostream_insertIcSt11char_traitsIcEERSt13basic_ostreamIT_T0_ES6_PKS3_l@plt>
   14e30:	00100613          	li	a2,1
   14e34:	00002597          	auipc	a1,0x2
   14e38:	1c458593          	addi	a1,a1,452 # 16ff8 <_IO_stdin_used+0x158>
   14e3c:	00005517          	auipc	a0,0x5
   14e40:	1ac53503          	ld	a0,428(a0) # 19fe8 <_ZSt4cout@GLIBCXX_3.4>
   14e44:	f1dfb0ef          	jal	10d60 <_ZSt16__ostream_insertIcSt11char_traitsIcEERSt13basic_ostreamIT_T0_ES6_PKS3_l@plt>
   14e48:	00843603          	ld	a2,8(s0)
   14e4c:	00043583          	ld	a1,0(s0)
   14e50:	00005517          	auipc	a0,0x5
   14e54:	19853503          	ld	a0,408(a0) # 19fe8 <_ZSt4cout@GLIBCXX_3.4>
   14e58:	f09fb0ef          	jal	10d60 <_ZSt16__ostream_insertIcSt11char_traitsIcEERSt13basic_ostreamIT_T0_ES6_PKS3_l@plt>
   14e5c:	00002597          	auipc	a1,0x2
   14e60:	1a458593          	addi	a1,a1,420 # 17000 <_IO_stdin_used+0x160>
   14e64:	00600613          	li	a2,6
   14e68:	00050413          	mv	s0,a0
   14e6c:	ef5fb0ef          	jal	10d60 <_ZSt16__ostream_insertIcSt11char_traitsIcEERSt13basic_ostreamIT_T0_ES6_PKS3_l@plt>
   14e70:	64000793          	li	a5,1600
   14e74:	02f487b3          	mul	a5,s1,a5
   14e78:	97b42737          	lui	a4,0x97b42
   14e7c:	5ed70713          	addi	a4,a4,1517 # ffffffff97b425ed <__global_pointer$+0xffffffff97b27d5d>
   14e80:	097b46b7          	lui	a3,0x97b4
   14e84:	25f68693          	addi	a3,a3,607 # 97b425f <__global_pointer$+0x97999cf>
   14e88:	02071713          	slli	a4,a4,0x20
   14e8c:	00d70733          	add	a4,a4,a3
   14e90:	00002697          	auipc	a3,0x2
   14e94:	0806a707          	flw	fa4,128(a3) # 16f10 <_IO_stdin_used+0x70>
   14e98:	00002697          	auipc	a3,0x2
   14e9c:	07c6a787          	flw	fa5,124(a3) # 16f14 <_IO_stdin_used+0x74>
   14ea0:	00043683          	ld	a3,0(s0)
   14ea4:	02e7b7b3          	mulhu	a5,a5,a4
   14ea8:	00100613          	li	a2,1
   14eac:	fe86b703          	ld	a4,-24(a3)
   14eb0:	00040513          	mv	a0,s0
   14eb4:	00e40733          	add	a4,s0,a4
   14eb8:	00c73423          	sd	a2,8(a4)
   14ebc:	fe86b703          	ld	a4,-24(a3)
   14ec0:	0047d793          	srli	a5,a5,0x4
   14ec4:	412787b3          	sub	a5,a5,s2
   14ec8:	d037f553          	fcvt.s.lu	fa0,a5
   14ecc:	00e40433          	add	s0,s0,a4
   14ed0:	01842783          	lw	a5,24(s0)
   14ed4:	18e57553          	fdiv.s	fa0,fa0,fa4
   14ed8:	efb7f793          	andi	a5,a5,-261
   14edc:	0047e793          	ori	a5,a5,4
   14ee0:	00f42c23          	sw	a5,24(s0)
   14ee4:	18f57553          	fdiv.s	fa0,fa0,fa5
   14ee8:	42050553          	fcvt.d.s	fa0,fa0
   14eec:	ed5fb0ef          	jal	10dc0 <_ZNSo9_M_insertIdEERSoT_@plt>
   14ef0:	00700613          	li	a2,7
   14ef4:	00002597          	auipc	a1,0x2
   14ef8:	11458593          	addi	a1,a1,276 # 17008 <_IO_stdin_used+0x168>
   14efc:	00050493          	mv	s1,a0
   14f00:	e61fb0ef          	jal	10d60 <_ZSt16__ostream_insertIcSt11char_traitsIcEERSt13basic_ostreamIT_T0_ES6_PKS3_l@plt>
   14f04:	0004b783          	ld	a5,0(s1)
   14f08:	fe87b783          	ld	a5,-24(a5)
   14f0c:	00f487b3          	add	a5,s1,a5
   14f10:	0f07b403          	ld	s0,240(a5)
   14f14:	06040a63          	beqz	s0,14f88 <_Z19benchmark_ntt_unaryIN6nncase3ntt3ops5rsqrtEfLm4EEvNSt7__cxx1112basic_stringIcSt11char_traitsIcESaIcEEET0_SA_+0x31c>
   14f18:	03844783          	lbu	a5,56(s0)
   14f1c:	02078e63          	beqz	a5,14f58 <_Z19benchmark_ntt_unaryIN6nncase3ntt3ops5rsqrtEfLm4EEvNSt7__cxx1112basic_stringIcSt11char_traitsIcESaIcEEET0_SA_+0x2ec>
   14f20:	04344583          	lbu	a1,67(s0)
   14f24:	00048513          	mv	a0,s1
   14f28:	da9fb0ef          	jal	10cd0 <_ZNSo3putEc@plt>
   14f2c:	000042b7          	lui	t0,0x4
   14f30:	36028293          	addi	t0,t0,864 # 4360 <__abi_tag-0xbf34>
   14f34:	00510133          	add	sp,sp,t0
   14f38:	7e813083          	ld	ra,2024(sp)
   14f3c:	7e013403          	ld	s0,2016(sp)
   14f40:	7d813483          	ld	s1,2008(sp)
   14f44:	7d013903          	ld	s2,2000(sp)
   14f48:	7c813407          	fld	fs0,1992(sp)
   14f4c:	7c013487          	fld	fs1,1984(sp)
   14f50:	7f010113          	addi	sp,sp,2032
   14f54:	dadfb06f          	j	10d00 <_ZNSo5flushEv@plt>
   14f58:	00040513          	mv	a0,s0
   14f5c:	e15fb0ef          	jal	10d70 <_ZNKSt5ctypeIcE13_M_widen_initEv@plt>
   14f60:	00043783          	ld	a5,0(s0)
   14f64:	ffffc717          	auipc	a4,0xffffc
   14f68:	3c870713          	addi	a4,a4,968 # 1132c <_ZNKSt5ctypeIcE8do_widenEc>
   14f6c:	00a00593          	li	a1,10
   14f70:	0307b783          	ld	a5,48(a5)
   14f74:	fae788e3          	beq	a5,a4,14f24 <_Z19benchmark_ntt_unaryIN6nncase3ntt3ops5rsqrtEfLm4EEvNSt7__cxx1112basic_stringIcSt11char_traitsIcESaIcEEET0_SA_+0x2b8>
   14f78:	00040513          	mv	a0,s0
   14f7c:	000780e7          	jalr	a5
   14f80:	00050593          	mv	a1,a0
   14f84:	fa1ff06f          	j	14f24 <_Z19benchmark_ntt_unaryIN6nncase3ntt3ops5rsqrtEfLm4EEvNSt7__cxx1112basic_stringIcSt11char_traitsIcESaIcEEET0_SA_+0x2b8>
   14f88:	df9fb0ef          	jal	10d80 <_ZSt16__throw_bad_castv@plt>

0000000000014f8c <_Z19benchmark_ntt_unaryIN6nncase3ntt3ops3erfEfLm4EEvNSt7__cxx1112basic_stringIcSt11char_traitsIcESaIcEEET0_SA_>:
   14f8c:	81010113          	addi	sp,sp,-2032
   14f90:	ffffc2b7          	lui	t0,0xffffc
   14f94:	7c813427          	fsd	fs0,1992(sp)
   14f98:	7c913027          	fsd	fs1,1984(sp)
   14f9c:	ca028293          	addi	t0,t0,-864 # ffffffffffffbca0 <__global_pointer$+0xfffffffffffe1410>
   14fa0:	000027b7          	lui	a5,0x2
   14fa4:	20a504d3          	fmv.s	fs1,fa0
   14fa8:	20b58453          	fmv.s	fs0,fa1
   14fac:	7e813023          	sd	s0,2016(sp)
   14fb0:	7c913c23          	sd	s1,2008(sp)
   14fb4:	7d213823          	sd	s2,2000(sp)
   14fb8:	7e113423          	sd	ra,2024(sp)
   14fbc:	58078793          	addi	a5,a5,1408 # 2580 <__abi_tag-0xdd14>
   14fc0:	00510133          	add	sp,sp,t0
   14fc4:	00010493          	mv	s1,sp
   14fc8:	00050413          	mv	s0,a0
   14fcc:	00f10933          	add	s2,sp,a5
   14fd0:	208405d3          	fmv.s	fa1,fs0
   14fd4:	20948553          	fmv.s	fa0,fs1
   14fd8:	00048513          	mv	a0,s1
   14fdc:	01048493          	addi	s1,s1,16
   14fe0:	f54fc0ef          	jal	11734 <_ZN6nncase7NttTest11init_tensorIfNS_3ntt12basic_vectorIfJLm4EEEEEEvRT0_T_S7_>
   14fe4:	ff2496e3          	bne	s1,s2,14fd0 <_Z19benchmark_ntt_unaryIN6nncase3ntt3ops3erfEfLm4EEvNSt7__cxx1112basic_stringIcSt11char_traitsIcESaIcEEET0_SA_+0x44>
   14fe8:	000027b7          	lui	a5,0x2
   14fec:	58078793          	addi	a5,a5,1408 # 2580 <__abi_tag-0xdd14>
   14ff0:	cd027057          	vsetivli	zero,4,e32,m1,ta,ma
   14ff4:	00f105b3          	add	a1,sp,a5
   14ff8:	5e003257          	vmv.v.i	v4,0
   14ffc:	00002797          	auipc	a5,0x2
   15000:	f287a787          	flw	fa5,-216(a5) # 16f24 <_IO_stdin_used+0x84>
   15004:	00002797          	auipc	a5,0x2
   15008:	f247a707          	flw	fa4,-220(a5) # 16f28 <_IO_stdin_used+0x88>
   1500c:	00002797          	auipc	a5,0x2
   15010:	f207a687          	flw	fa3,-224(a5) # 16f2c <_IO_stdin_used+0x8c>
   15014:	00002797          	auipc	a5,0x2
   15018:	f1c7a607          	flw	fa2,-228(a5) # 16f30 <_IO_stdin_used+0x90>
   1501c:	00002797          	auipc	a5,0x2
   15020:	f187a587          	flw	fa1,-232(a5) # 16f34 <_IO_stdin_used+0x94>
   15024:	00002797          	auipc	a5,0x2
   15028:	e987a507          	flw	fa0,-360(a5) # 16ebc <_IO_stdin_used+0x1c>
   1502c:	12c00893          	li	a7,300
   15030:	00002697          	auipc	a3,0x2
   15034:	09068693          	addi	a3,a3,144 # 170c0 <_ZL14__sv_erff_data>
   15038:	00003617          	auipc	a2,0x3
   1503c:	88c60613          	addi	a2,a2,-1908 # 178c4 <_ZL14__sv_erff_data+0x804>
   15040:	20000813          	li	a6,512
   15044:	00400513          	li	a0,4
   15048:	000027b7          	lui	a5,0x2
   1504c:	59078793          	addi	a5,a5,1424 # 2590 <__abi_tag-0xdd04>
   15050:	00f10733          	add	a4,sp,a5
   15054:	00010793          	mv	a5,sp
   15058:	0287e287          	vl1re32.v	v5,(a5)
   1505c:	01078793          	addi	a5,a5,16
   15060:	2a5291d7          	vfabs.v	v3,v5
   15064:	92375157          	vfmul.vf	v2,v3,fa4
   15068:	7637d057          	vmfgt.vf	v0,v3,fa5
   1506c:	7e365357          	vmfge.vf	v6,v3,fa2
   15070:	4a201157          	vfcvt.xu.f.v	v2,v2
   15074:	5c410157          	vmerge.vvm	v2,v4,v2,v0
   15078:	9e603057          	vmv1r.v	v0,v6
   1507c:	12284157          	vminu.vx	v2,v2,a6
   15080:	4a2110d7          	vfcvt.f.xu.v	v1,v2
   15084:	96256157          	vmul.vx	v2,v2,a0
   15088:	9216d0d7          	vfmul.vf	v1,v1,fa3
   1508c:	0626e387          	vluxei32.v	v7,(a3),v2
   15090:	06266107          	vluxei32.v	v2,(a2),v2
   15094:	0a3091d7          	vfsub.vv	v3,v3,v1
   15098:	b235d0d7          	vfmacc.vf	v1,fa1,v3
   1509c:	92319457          	vfmul.vv	v8,v3,v3
   150a0:	ae3410d7          	vfnmsub.vv	v1,v8,v3
   150a4:	a27110d7          	vfmadd.vv	v1,v2,v7
   150a8:	5c1550d7          	vfmerge.vfm	v1,v1,fa0,v0
   150ac:	221290d7          	vfsgnj.vv	v1,v1,v5
   150b0:	028700a7          	vs1r.v	v1,(a4)
   150b4:	01070713          	addi	a4,a4,16
   150b8:	fab790e3          	bne	a5,a1,15058 <_Z19benchmark_ntt_unaryIN6nncase3ntt3ops3erfEfLm4EEvNSt7__cxx1112basic_stringIcSt11char_traitsIcESaIcEEET0_SA_+0xcc>
   150bc:	fff88893          	addi	a7,a7,-1
   150c0:	f80894e3          	bnez	a7,15048 <_Z19benchmark_ntt_unaryIN6nncase3ntt3ops3erfEfLm4EEvNSt7__cxx1112basic_stringIcSt11char_traitsIcESaIcEEET0_SA_+0xbc>
   150c4:	c0102973          	rdtime	s2
   150c8:	64000793          	li	a5,1600
   150cc:	02f90933          	mul	s2,s2,a5
   150d0:	97b427b7          	lui	a5,0x97b42
   150d4:	5ed78793          	addi	a5,a5,1517 # ffffffff97b425ed <__global_pointer$+0xffffffff97b27d5d>
   150d8:	097b4737          	lui	a4,0x97b4
   150dc:	25f70713          	addi	a4,a4,607 # 97b425f <__global_pointer$+0x97999cf>
   150e0:	02079793          	slli	a5,a5,0x20
   150e4:	00e787b3          	add	a5,a5,a4
   150e8:	00005737          	lui	a4,0x5
   150ec:	b1070713          	addi	a4,a4,-1264 # 4b10 <__abi_tag-0xb784>
   150f0:	00e10833          	add	a6,sp,a4
   150f4:	02f93933          	mulhu	s2,s2,a5
   150f8:	12c00893          	li	a7,300
   150fc:	20000513          	li	a0,512
   15100:	00400593          	li	a1,4
   15104:	cd027057          	vsetivli	zero,4,e32,m1,ta,ma
   15108:	00495913          	srli	s2,s2,0x4
   1510c:	000027b7          	lui	a5,0x2
   15110:	59078793          	addi	a5,a5,1424 # 2590 <__abi_tag-0xdd04>
   15114:	00f107b3          	add	a5,sp,a5
   15118:	00010713          	mv	a4,sp
   1511c:	02876287          	vl1re32.v	v5,(a4)
   15120:	01070713          	addi	a4,a4,16
   15124:	2a5291d7          	vfabs.v	v3,v5
   15128:	92375157          	vfmul.vf	v2,v3,fa4
   1512c:	7637d057          	vmfgt.vf	v0,v3,fa5
   15130:	7e365357          	vmfge.vf	v6,v3,fa2
   15134:	4a201157          	vfcvt.xu.f.v	v2,v2
   15138:	5c410157          	vmerge.vvm	v2,v4,v2,v0
   1513c:	9e603057          	vmv1r.v	v0,v6
   15140:	12254157          	vminu.vx	v2,v2,a0
   15144:	4a2110d7          	vfcvt.f.xu.v	v1,v2
   15148:	9625e157          	vmul.vx	v2,v2,a1
   1514c:	9216d0d7          	vfmul.vf	v1,v1,fa3
   15150:	0626e387          	vluxei32.v	v7,(a3),v2
   15154:	06266107          	vluxei32.v	v2,(a2),v2
   15158:	0a3091d7          	vfsub.vv	v3,v3,v1
   1515c:	b235d0d7          	vfmacc.vf	v1,fa1,v3
   15160:	92319457          	vfmul.vv	v8,v3,v3
   15164:	ae3410d7          	vfnmsub.vv	v1,v8,v3
   15168:	a27110d7          	vfmadd.vv	v1,v2,v7
   1516c:	5c1550d7          	vfmerge.vfm	v1,v1,fa0,v0
   15170:	221290d7          	vfsgnj.vv	v1,v1,v5
   15174:	028780a7          	vs1r.v	v1,(a5)
   15178:	01078793          	addi	a5,a5,16
   1517c:	fb0790e3          	bne	a5,a6,1511c <_Z19benchmark_ntt_unaryIN6nncase3ntt3ops3erfEfLm4EEvNSt7__cxx1112basic_stringIcSt11char_traitsIcESaIcEEET0_SA_+0x190>
   15180:	fff88893          	addi	a7,a7,-1
   15184:	f80894e3          	bnez	a7,1510c <_Z19benchmark_ntt_unaryIN6nncase3ntt3ops3erfEfLm4EEvNSt7__cxx1112basic_stringIcSt11char_traitsIcESaIcEEET0_SA_+0x180>
   15188:	c01024f3          	rdtime	s1
   1518c:	01300613          	li	a2,19
   15190:	00002597          	auipc	a1,0x2
   15194:	e5058593          	addi	a1,a1,-432 # 16fe0 <_IO_stdin_used+0x140>
   15198:	00005517          	auipc	a0,0x5
   1519c:	e5053503          	ld	a0,-432(a0) # 19fe8 <_ZSt4cout@GLIBCXX_3.4>
   151a0:	bc1fb0ef          	jal	10d60 <_ZSt16__ostream_insertIcSt11char_traitsIcEERSt13basic_ostreamIT_T0_ES6_PKS3_l@plt>
   151a4:	00100613          	li	a2,1
   151a8:	00002597          	auipc	a1,0x2
   151ac:	e5058593          	addi	a1,a1,-432 # 16ff8 <_IO_stdin_used+0x158>
   151b0:	00005517          	auipc	a0,0x5
   151b4:	e3853503          	ld	a0,-456(a0) # 19fe8 <_ZSt4cout@GLIBCXX_3.4>
   151b8:	ba9fb0ef          	jal	10d60 <_ZSt16__ostream_insertIcSt11char_traitsIcEERSt13basic_ostreamIT_T0_ES6_PKS3_l@plt>
   151bc:	00843603          	ld	a2,8(s0)
   151c0:	00043583          	ld	a1,0(s0)
   151c4:	00005517          	auipc	a0,0x5
   151c8:	e2453503          	ld	a0,-476(a0) # 19fe8 <_ZSt4cout@GLIBCXX_3.4>
   151cc:	b95fb0ef          	jal	10d60 <_ZSt16__ostream_insertIcSt11char_traitsIcEERSt13basic_ostreamIT_T0_ES6_PKS3_l@plt>
   151d0:	00002597          	auipc	a1,0x2
   151d4:	e3058593          	addi	a1,a1,-464 # 17000 <_IO_stdin_used+0x160>
   151d8:	00600613          	li	a2,6
   151dc:	00050413          	mv	s0,a0
   151e0:	b81fb0ef          	jal	10d60 <_ZSt16__ostream_insertIcSt11char_traitsIcEERSt13basic_ostreamIT_T0_ES6_PKS3_l@plt>
   151e4:	64000793          	li	a5,1600
   151e8:	02f487b3          	mul	a5,s1,a5
   151ec:	97b42737          	lui	a4,0x97b42
   151f0:	5ed70713          	addi	a4,a4,1517 # ffffffff97b425ed <__global_pointer$+0xffffffff97b27d5d>
   151f4:	097b46b7          	lui	a3,0x97b4
   151f8:	25f68693          	addi	a3,a3,607 # 97b425f <__global_pointer$+0x97999cf>
   151fc:	02071713          	slli	a4,a4,0x20
   15200:	00d70733          	add	a4,a4,a3
   15204:	00002697          	auipc	a3,0x2
   15208:	d0c6a707          	flw	fa4,-756(a3) # 16f10 <_IO_stdin_used+0x70>
   1520c:	00002697          	auipc	a3,0x2
   15210:	d086a787          	flw	fa5,-760(a3) # 16f14 <_IO_stdin_used+0x74>
   15214:	00043683          	ld	a3,0(s0)
   15218:	02e7b7b3          	mulhu	a5,a5,a4
   1521c:	00100613          	li	a2,1
   15220:	fe86b703          	ld	a4,-24(a3)
   15224:	00040513          	mv	a0,s0
   15228:	00e40733          	add	a4,s0,a4
   1522c:	00c73423          	sd	a2,8(a4)
   15230:	fe86b703          	ld	a4,-24(a3)
   15234:	0047d793          	srli	a5,a5,0x4
   15238:	412787b3          	sub	a5,a5,s2
   1523c:	d037f553          	fcvt.s.lu	fa0,a5
   15240:	00e40433          	add	s0,s0,a4
   15244:	01842783          	lw	a5,24(s0)
   15248:	18e57553          	fdiv.s	fa0,fa0,fa4
   1524c:	efb7f793          	andi	a5,a5,-261
   15250:	0047e793          	ori	a5,a5,4
   15254:	00f42c23          	sw	a5,24(s0)
   15258:	18f57553          	fdiv.s	fa0,fa0,fa5
   1525c:	42050553          	fcvt.d.s	fa0,fa0
   15260:	b61fb0ef          	jal	10dc0 <_ZNSo9_M_insertIdEERSoT_@plt>
   15264:	00700613          	li	a2,7
   15268:	00002597          	auipc	a1,0x2
   1526c:	da058593          	addi	a1,a1,-608 # 17008 <_IO_stdin_used+0x168>
   15270:	00050493          	mv	s1,a0
